ARM GAS  /tmp/cco7tNt2.s 			page 1


   1              		.cpu cortex-m0
   2              		.fpu softvfp
   3              		.eabi_attribute 20, 1	@ Tag_ABI_FP_denormal
   4              		.eabi_attribute 21, 1	@ Tag_ABI_FP_exceptions
   5              		.eabi_attribute 23, 3	@ Tag_ABI_FP_number_model
   6              		.eabi_attribute 24, 1	@ Tag_ABI_align8_needed
   7              		.eabi_attribute 25, 1	@ Tag_ABI_align8_preserved
   8              		.eabi_attribute 26, 1	@ Tag_ABI_enum_size
   9              		.eabi_attribute 30, 6	@ Tag_ABI_optimization_goals
  10              		.eabi_attribute 34, 0	@ Tag_CPU_unaligned_access
  11              		.eabi_attribute 18, 4	@ Tag_ABI_PCS_wchar_t
  12              		.file	"main.c"
  13              	@ GNU C (GNU Tools for ARM Embedded Processors) version 4.7.4 20130613 (release) [ARM/embedded-4_7-
  14              	@	compiled by GNU C version 4.3.6, GMP version 4.3.2, MPFR version 2.4.2, MPC version 0.8.1
  15              	@ GGC heuristics: --param ggc-min-expand=100 --param ggc-min-heapsize=131072
  16              	@ options passed:  -I . -I /home/wrcooke/git/projects/arm_gcc/include
  17              	@ -imultilib armv6-m
  18              	@ -iprefix /opt/gcc-arm-none-eabi-4_7-2013q2/bin/../lib/gcc/arm-none-eabi/4.7.4/
  19              	@ -isysroot /opt/gcc-arm-none-eabi-4_7-2013q2/bin/../arm-none-eabi
  20              	@ -MD out/main.d -MF out/main.d -MP -MQ out/main.o -D__USES_INITFINI__
  21              	@ main.c -mcpu=cortex-m0 -mthumb -auxbase-strip out/main.o -g -ggdb3 -O0
  22              	@ -Wall -Wstrict-prototypes -Wextra -std=gnu99 -ffunction-sections
  23              	@ -fdata-sections -fverbose-asm
  24              	@ options enabled:  -fauto-inc-dec -fbranch-count-reg -fcommon
  25              	@ -fdata-sections -fdebug-types-section -fdelete-null-pointer-checks
  26              	@ -fdwarf2-cfi-asm -fearly-inlining -feliminate-unused-debug-types
  27              	@ -ffunction-cse -ffunction-sections -fgcse-lm -fgnu-runtime -fident
  28              	@ -finline-atomics -fira-hoist-pressure -fira-share-save-slots
  29              	@ -fira-share-spill-slots -fivopts -fkeep-static-consts
  30              	@ -fleading-underscore -fmath-errno -fmerge-debug-strings
  31              	@ -fmove-loop-invariants -fpeephole -fprefetch-loop-arrays
  32              	@ -freg-struct-return -fsched-critical-path-heuristic
  33              	@ -fsched-dep-count-heuristic -fsched-group-heuristic -fsched-interblock
  34              	@ -fsched-last-insn-heuristic -fsched-rank-heuristic -fsched-spec
  35              	@ -fsched-spec-insn-heuristic -fsched-stalled-insns-dep -fshow-column
  36              	@ -fsigned-zeros -fsplit-ivs-in-unroller -fstrict-volatile-bitfields
  37              	@ -ftrapping-math -ftree-cselim -ftree-forwprop -ftree-loop-if-convert
  38              	@ -ftree-loop-im -ftree-loop-ivcanon -ftree-loop-optimize
  39              	@ -ftree-parallelize-loops= -ftree-phiprop -ftree-pta -ftree-reassoc
  40              	@ -ftree-scev-cprop -ftree-slp-vectorize -ftree-vect-loop-version
  41              	@ -funit-at-a-time -fverbose-asm -fzero-initialized-in-bss -mlittle-endian
  42              	@ -msched-prolog -mthumb -mvectorize-with-neon-quad
  43              	
  44              		.text
  45              	.Ltext0:
  46              		.cfi_sections	.debug_frame
  47              		.comm	my_timers,48,4
  48              		.global	msg
  49              		.section	.data.msg,"aw",%progbits
  50              		.align	2
  51              		.type	msg, %object
  52              		.size	msg, 32
  53              	msg:
  54 0000 20202048 		.ascii	"   Hello World! \012\000"
  54      656C6C6F 
  54      20576F72 
  54      6C642120 
ARM GAS  /tmp/cco7tNt2.s 			page 2


  54      0A00
  55 0012 00000000 		.space	14
  55      00000000 
  55      00000000 
  55      0000
  56              		.comm	rx_buf,32,4
  57              		.section	.text.systick_wait,"ax",%progbits
  58              		.align	2
  59              		.global	systick_wait
  60              		.code	16
  61              		.thumb_func
  62              		.type	systick_wait, %function
  63              	systick_wait:
  64              	.LFB33:
  65              		.file 1 "main.c"
   1:main.c        **** /** \file main.c
   2:main.c        ****  * \brief Sample LPC1114 project
   3:main.c        ****  * \details This file holds a very basic code for LPC1114. This code configures
   4:main.c        ****  * flash access time, enables the PLL and all required clocks and peripherals
   5:main.c        ****  * to achieve the highest allowed frequency for LPC1114 (50MHz). Main code
   6:main.c        ****  * block just blinks the LED. The LED port and pin are defined in config.h
   7:main.c        ****  * file. Target core frequency and quartz crystal resonator frequency are
   8:main.c        ****  * defined there as well.
   9:main.c        ****  *
  10:main.c        ****  * \author Freddie Chopin, http://www.freddiechopin.info/
  11:main.c        ****  * \date 2012-01-08
  12:main.c        ****  */
  13:main.c        **** 
  14:main.c        **** /******************************************************************************
  15:main.c        **** * project: lpc1114_blink_led
  16:main.c        **** * chip: LPC1114
  17:main.c        **** * compiler: arm-none-eabi-gcc (Sourcery CodeBench Lite 2011.09-69) 4.6.1
  18:main.c        **** *
  19:main.c        **** * prefix: (none)
  20:main.c        **** *
  21:main.c        **** * available global functions:
  22:main.c        **** * 	int main(void)
  23:main.c        **** *
  24:main.c        **** * available local functions:
  25:main.c        **** * 	static void flash_access_time(uint32_t frequency)
  26:main.c        **** * 	static uint32_t pll_start(uint32_t crystal, uint32_t frequency)
  27:main.c        **** * 	static void system_init(void)
  28:main.c        **** *
  29:main.c        **** * available interrupt handlers:
  30:main.c        **** ******************************************************************************/
  31:main.c        **** 
  32:main.c        **** /*
  33:main.c        **** +=============================================================================+
  34:main.c        **** | includes
  35:main.c        **** +=============================================================================+
  36:main.c        **** */
  37:main.c        **** 
  38:main.c        **** #include <stdint.h>
  39:main.c        **** 
  40:main.c        **** #include "LPC11xx.h"
  41:main.c        **** #include "system_LPC11xx.h"
  42:main.c        **** #include "systick.h"
ARM GAS  /tmp/cco7tNt2.s 			page 3


  43:main.c        **** #include "uart.h"
  44:main.c        **** #include "timers.h"
  45:main.c        **** 
  46:main.c        **** #include <stdio.h>
  47:main.c        **** #include "nonstdio.h"
  48:main.c        **** 
  49:main.c        **** extern uint32_t forth(uint32_t x);
  50:main.c        **** 
  51:main.c        **** void my_pwm_init(void);
  52:main.c        **** 
  53:main.c        **** 
  54:main.c        **** systick_timer_t  my_timers[4];
  55:main.c        **** 
  56:main.c        **** char msg[32] = "   Hello World! \n";
  57:main.c        **** uint8_t rx_buf[32];
  58:main.c        **** 
  59:main.c        **** void systick_wait(uint32_t ms)
  60:main.c        **** {
  66              		.loc 1 60 0
  67              		.cfi_startproc
  68 0000 80B5     		push	{r7, lr}	@
  69              	.LCFI0:
  70              		.cfi_def_cfa_offset 8
  71              		.cfi_offset 7, -8
  72              		.cfi_offset 14, -4
  73 0002 82B0     		sub	sp, sp, #8	@,,
  74              	.LCFI1:
  75              		.cfi_def_cfa_offset 16
  76 0004 00AF     		add	r7, sp, #0	@,,
  77              	.LCFI2:
  78              		.cfi_def_cfa_register 7
  79 0006 7860     		str	r0, [r7, #4]	@ ms, ms
  61:main.c        ****    systick_set_timer(0, ms, 0);
  80              		.loc 1 61 0
  81 0008 7B68     		ldr	r3, [r7, #4]	@ ms.21, ms
  82 000a 0020     		mov	r0, #0	@,
  83 000c 191C     		mov	r1, r3	@, ms.21
  84 000e 0022     		mov	r2, #0	@,
  85 0010 FFF7FEFF 		bl	systick_set_timer	@
  62:main.c        ****    while (systick_get_timer(0) != 0);
  86              		.loc 1 62 0
  87 0014 C046     		mov	r8, r8
  88              	.L2:
  89              		.loc 1 62 0 is_stmt 0 discriminator 1
  90 0016 0020     		mov	r0, #0	@,
  91 0018 FFF7FEFF 		bl	systick_get_timer	@
  92 001c 031C     		mov	r3, r0	@ D.5874,
  93 001e 002B     		cmp	r3, #0	@ D.5874,
  94 0020 F9D1     		bne	.L2	@,
  63:main.c        **** }
  95              		.loc 1 63 0 is_stmt 1
  96 0022 BD46     		mov	sp, r7	@,
  97 0024 02B0     		add	sp, sp, #8	@,,
  98              		@ sp needed for prologue	@
  99 0026 80BD     		pop	{r7, pc}
 100              		.cfi_endproc
 101              	.LFE33:
ARM GAS  /tmp/cco7tNt2.s 			page 4


 102              		.size	systick_wait, .-systick_wait
 103              		.section	.text.blinky,"ax",%progbits
 104              		.align	2
 105              		.global	blinky
 106              		.code	16
 107              		.thumb_func
 108              		.type	blinky, %function
 109              	blinky:
 110              	.LFB34:
  64:main.c        **** 
  65:main.c        **** void blinky(void)
  66:main.c        **** {
 111              		.loc 1 66 0
 112              		.cfi_startproc
 113 0000 80B5     		push	{r7, lr}	@
 114              	.LCFI3:
 115              		.cfi_def_cfa_offset 8
 116              		.cfi_offset 7, -8
 117              		.cfi_offset 14, -4
 118 0002 00AF     		add	r7, sp, #0	@,,
 119              	.LCFI4:
 120              		.cfi_def_cfa_register 7
  67:main.c        ****    GPIO0->DATA ^= 4;
 121              		.loc 1 67 0
 122 0004 A023     		mov	r3, #160	@ tmp141,
 123 0006 DA05     		lsl	r2, r3, #23	@ D.5869, tmp141,
 124 0008 A023     		mov	r3, #160	@ tmp142,
 125 000a D905     		lsl	r1, r3, #23	@ D.5870, tmp142,
 126 000c 034B     		ldr	r3, .L4	@ tmp138,
 127 000e CB58     		ldr	r3, [r1, r3]	@ D.5871, D.5870_2->DATA
 128 0010 0421     		mov	r1, #4	@ tmp139,
 129 0012 5940     		eor	r1, r3	@ D.5872, D.5871
 130 0014 014B     		ldr	r3, .L4	@ tmp140,
 131 0016 D150     		str	r1, [r2, r3]	@ D.5872, D.5869_1->DATA
  68:main.c        **** }
 132              		.loc 1 68 0
 133 0018 BD46     		mov	sp, r7	@,
 134              		@ sp needed for prologue	@
 135 001a 80BD     		pop	{r7, pc}
 136              	.L5:
 137              		.align	2
 138              	.L4:
 139 001c FC3F0000 		.word	16380
 140              		.cfi_endproc
 141              	.LFE34:
 142              		.size	blinky, .-blinky
 143              		.section	.bss.distance_mm,"aw",%nobits
 144              		.align	2
 145              		.type	distance_mm, %object
 146              		.size	distance_mm, 4
 147              	distance_mm:
 148 0000 00000000 		.space	4
 149              		.section	.text.TIMER16_1_IRQHandler,"ax",%progbits
 150              		.align	2
 151              		.global	TIMER16_1_IRQHandler
 152              		.code	16
 153              		.thumb_func
ARM GAS  /tmp/cco7tNt2.s 			page 5


 154              		.type	TIMER16_1_IRQHandler, %function
 155              	TIMER16_1_IRQHandler:
 156              	.LFB35:
  69:main.c        **** 
  70:main.c        **** 
  71:main.c        **** static volatile uint32_t distance_mm = 0;
  72:main.c        **** void TIMER16_1_IRQHandler(void)
  73:main.c        **** {
 157              		.loc 1 73 0
 158              		.cfi_startproc
 159 0000 80B5     		push	{r7, lr}	@
 160              	.LCFI5:
 161              		.cfi_def_cfa_offset 8
 162              		.cfi_offset 7, -8
 163              		.cfi_offset 14, -4
 164 0002 82B0     		sub	sp, sp, #8	@,,
 165              	.LCFI6:
 166              		.cfi_def_cfa_offset 16
 167 0004 00AF     		add	r7, sp, #0	@,,
 168              	.LCFI7:
 169              		.cfi_def_cfa_register 7
  74:main.c        ****    static uint32_t capture_rising = 0;
  75:main.c        ****    static uint32_t capture_falling = 0;
  76:main.c        ****    static uint8_t is_falling = 0;
  77:main.c        ****    uint32_t what_int = CT16B1->IR;
 170              		.loc 1 77 0
 171 0006 164B     		ldr	r3, .L9	@ D.5855,
 172 0008 1B68     		ldr	r3, [r3]	@ tmp145, D.5855_1->IR
 173 000a 7B60     		str	r3, [r7, #4]	@ tmp145, what_int
  78:main.c        ****    uint32_t capt;
  79:main.c        ****    capt = CT16B1->CR0;
 174              		.loc 1 79 0
 175 000c 144B     		ldr	r3, .L9	@ D.5856,
 176 000e DB6A     		ldr	r3, [r3, #44]	@ tmp146, D.5856_3->CR0
 177 0010 3B60     		str	r3, [r7]	@ tmp146, capt
  80:main.c        ****    if (is_falling == 1)
 178              		.loc 1 80 0
 179 0012 144B     		ldr	r3, .L9+4	@ tmp147,
 180 0014 1B78     		ldrb	r3, [r3]	@ is_falling.17, is_falling
 181 0016 012B     		cmp	r3, #1	@ is_falling.17,
 182 0018 13D1     		bne	.L7	@,
  81:main.c        ****    {
  82:main.c        ****       capture_falling = capt;
 183              		.loc 1 82 0
 184 001a 134B     		ldr	r3, .L9+8	@ tmp148,
 185 001c 3A68     		ldr	r2, [r7]	@ tmp149, capt
 186 001e 1A60     		str	r2, [r3]	@ tmp149, capture_falling
  83:main.c        ****       is_falling = 0;
 187              		.loc 1 83 0
 188 0020 104B     		ldr	r3, .L9+4	@ tmp150,
 189 0022 0022     		mov	r2, #0	@ tmp151,
 190 0024 1A70     		strb	r2, [r3]	@ tmp152, is_falling
  84:main.c        ****       CT16B1->CCR = TIMER_CAPTURE_RISING_EDGE|TIMER_CAPTURE_IRQ_ENABLE;
 191              		.loc 1 84 0
 192 0026 0E4B     		ldr	r3, .L9	@ D.5860,
 193 0028 0522     		mov	r2, #5	@ tmp153,
 194 002a 9A62     		str	r2, [r3, #40]	@ tmp153, D.5860_6->CCR
ARM GAS  /tmp/cco7tNt2.s 			page 6


  85:main.c        ****       distance_mm = (capture_falling - capture_rising) * 176 >> 10;
 195              		.loc 1 85 0
 196 002c 0E4B     		ldr	r3, .L9+8	@ tmp154,
 197 002e 1A68     		ldr	r2, [r3]	@ capture_falling.18, capture_falling
 198 0030 0E4B     		ldr	r3, .L9+12	@ tmp155,
 199 0032 1B68     		ldr	r3, [r3]	@ capture_rising.19, capture_rising
 200 0034 D31A     		sub	r3, r2, r3	@ D.5863, capture_falling.18, capture_rising.19
 201 0036 B022     		mov	r2, #176	@ tmp156,
 202 0038 5343     		mul	r3, r2	@ D.5864, tmp156
 203 003a 9A0A     		lsr	r2, r3, #10	@ distance_mm.20, D.5864,
 204 003c 0C4B     		ldr	r3, .L9+16	@ tmp157,
 205 003e 1A60     		str	r2, [r3]	@ distance_mm.20, distance_mm
 206 0040 08E0     		b	.L8	@
 207              	.L7:
  86:main.c        ****    }
  87:main.c        ****    else
  88:main.c        ****    {
  89:main.c        ****       capture_rising = capt;
 208              		.loc 1 89 0
 209 0042 0A4B     		ldr	r3, .L9+12	@ tmp158,
 210 0044 3A68     		ldr	r2, [r7]	@ tmp159, capt
 211 0046 1A60     		str	r2, [r3]	@ tmp159, capture_rising
  90:main.c        ****       is_falling = 1;
 212              		.loc 1 90 0
 213 0048 064B     		ldr	r3, .L9+4	@ tmp160,
 214 004a 0122     		mov	r2, #1	@ tmp161,
 215 004c 1A70     		strb	r2, [r3]	@ tmp162, is_falling
  91:main.c        ****       CT16B1->CCR = TIMER_CAPTURE_FALLING_EDGE | TIMER_CAPTURE_IRQ_ENABLE;
 216              		.loc 1 91 0
 217 004e 044B     		ldr	r3, .L9	@ D.5867,
 218 0050 0622     		mov	r2, #6	@ tmp163,
 219 0052 9A62     		str	r2, [r3, #40]	@ tmp163, D.5867_12->CCR
 220              	.L8:
  92:main.c        ****    }
  93:main.c        ****    CT16B1->IR = what_int;
 221              		.loc 1 93 0
 222 0054 024B     		ldr	r3, .L9	@ D.5868,
 223 0056 7A68     		ldr	r2, [r7, #4]	@ tmp164, what_int
 224 0058 1A60     		str	r2, [r3]	@ tmp164, D.5868_13->IR
  94:main.c        **** 
  95:main.c        **** }
 225              		.loc 1 95 0
 226 005a BD46     		mov	sp, r7	@,
 227 005c 02B0     		add	sp, sp, #8	@,,
 228              		@ sp needed for prologue	@
 229 005e 80BD     		pop	{r7, pc}
 230              	.L10:
 231              		.align	2
 232              	.L9:
 233 0060 00000140 		.word	1073807360
 234 0064 00000000 		.word	is_falling.5742
 235 0068 00000000 		.word	capture_falling.5741
 236 006c 00000000 		.word	capture_rising.5740
 237 0070 00000000 		.word	distance_mm
 238              		.cfi_endproc
 239              	.LFE35:
 240              		.size	TIMER16_1_IRQHandler, .-TIMER16_1_IRQHandler
ARM GAS  /tmp/cco7tNt2.s 			page 7


 241              		.global	__aeabi_uidiv
 242              		.section	.rodata
 243              		.align	2
 244              	.LC6:
 245 0000 463D00   		.ascii	"F=\000"
 246 0003 00       		.section	.text.main,"ax",%progbits
 247              		.align	2
 248              		.global	main
 249              		.code	16
 250              		.thumb_func
 251              		.type	main, %function
 252              	main:
 253              	.LFB36:
  96:main.c        **** 
  97:main.c        **** 
  98:main.c        **** 
  99:main.c        **** 
 100:main.c        **** void main(void)
 101:main.c        **** {
 254              		.loc 1 101 0
 255              		.cfi_startproc
 256 0000 80B5     		push	{r7, lr}	@
 257              	.LCFI8:
 258              		.cfi_def_cfa_offset 8
 259              		.cfi_offset 7, -8
 260              		.cfi_offset 14, -4
 261 0002 88B0     		sub	sp, sp, #32	@,,
 262              	.LCFI9:
 263              		.cfi_def_cfa_offset 40
 264 0004 02AF     		add	r7, sp, #8	@,,
 265              	.LCFI10:
 266              		.cfi_def_cfa 7, 32
 102:main.c        ****    uint32_t count = 0;
 267              		.loc 1 102 0
 268 0006 0023     		mov	r3, #0	@ tmp144,
 269 0008 7B61     		str	r3, [r7, #20]	@ tmp144, count
 103:main.c        ****    uint32_t count_max = 1000000;
 270              		.loc 1 103 0
 271 000a 504B     		ldr	r3, .L16	@ tmp145,
 272 000c 3B61     		str	r3, [r7, #16]	@ tmp145, count_max
 104:main.c        ****    int16_t ch ;
 105:main.c        ****    uint32_t ch_index = 0;
 273              		.loc 1 105 0
 274 000e 0023     		mov	r3, #0	@ tmp146,
 275 0010 FB60     		str	r3, [r7, #12]	@ tmp146, ch_index
 106:main.c        ****    uint32_t new_freq = 0;
 276              		.loc 1 106 0
 277 0012 0023     		mov	r3, #0	@ tmp147,
 278 0014 BB60     		str	r3, [r7, #8]	@ tmp147, new_freq
 107:main.c        ****    Flash_Set_Access_Clocks(48000000);
 279              		.loc 1 107 0
 280 0016 4E4B     		ldr	r3, .L16+4	@ tmp148,
 281 0018 181C     		mov	r0, r3	@, tmp148
 282 001a FFF7FEFF 		bl	Flash_Set_Access_Clocks	@
 108:main.c        ****    new_freq = PLL_Set_Registers(3,1, SYSPLLCLK_IRC, 12000000);  // set to 48 MHz
 283              		.loc 1 108 0
 284 001e 4D4B     		ldr	r3, .L16+8	@ tmp149,
ARM GAS  /tmp/cco7tNt2.s 			page 8


 285 0020 0320     		mov	r0, #3	@,
 286 0022 0121     		mov	r1, #1	@,
 287 0024 0022     		mov	r2, #0	@,
 288 0026 FFF7FEFF 		bl	PLL_Set_Registers	@
 289 002a 031C     		mov	r3, r0	@ tmp150,
 290 002c BB60     		str	r3, [r7, #8]	@ tmp150, new_freq
 109:main.c        ****    if(new_freq != 0) MAINCLK_Set_Source(MAINCLKSEL_PLLOUT);
 291              		.loc 1 109 0
 292 002e BB68     		ldr	r3, [r7, #8]	@ tmp151, new_freq
 293 0030 002B     		cmp	r3, #0	@ tmp151,
 294 0032 02D0     		beq	.L12	@,
 295              		.loc 1 109 0 is_stmt 0 discriminator 1
 296 0034 0320     		mov	r0, #3	@,
 297 0036 FFF7FEFF 		bl	MAINCLK_Set_Source	@
 298              	.L12:
 110:main.c        ****    uint32_t mpr = new_freq / 12000000;
 299              		.loc 1 110 0 is_stmt 1
 300 003a BB68     		ldr	r3, [r7, #8]	@ tmp153, new_freq
 301 003c 181C     		mov	r0, r3	@, tmp153
 302 003e 4549     		ldr	r1, .L16+8	@,
 303 0040 FFF7FEFF 		bl	__aeabi_uidiv	@
 304 0044 031C     		mov	r3, r0	@ tmp156,
 305 0046 7B60     		str	r3, [r7, #4]	@ tmp156, mpr
 111:main.c        ****    //uint32_t cpu_freq = System_Core_Clock;
 112:main.c        **** 
 113:main.c        **** // wait a bit
 114:main.c        ****     for (count = 0; count < 10000000; ++count);
 306              		.loc 1 114 0
 307 0048 0023     		mov	r3, #0	@ tmp157,
 308 004a 7B61     		str	r3, [r7, #20]	@ tmp157, count
 309 004c 02E0     		b	.L13	@
 310              	.L14:
 311              		.loc 1 114 0 is_stmt 0 discriminator 2
 312 004e 7B69     		ldr	r3, [r7, #20]	@ tmp159, count
 313 0050 0133     		add	r3, r3, #1	@ tmp158,
 314 0052 7B61     		str	r3, [r7, #20]	@ tmp158, count
 315              	.L13:
 316              		.loc 1 114 0 discriminator 1
 317 0054 7A69     		ldr	r2, [r7, #20]	@ tmp160, count
 318 0056 404B     		ldr	r3, .L16+12	@ tmp161,
 319 0058 9A42     		cmp	r2, r3	@ tmp160, tmp161
 320 005a F8D9     		bls	.L14	@,
 115:main.c        **** 
 116:main.c        **** 
 117:main.c        ****    AHBCLKCTRL_enable(AHBCLKCTRL_IOCON);  // turn on io configure clock
 321              		.loc 1 117 0 is_stmt 1
 322 005c 3F4A     		ldr	r2, .L16+16	@ D.5786,
 323 005e 3F49     		ldr	r1, .L16+16	@ D.5787,
 324 0060 8023     		mov	r3, #128	@ tmp162,
 325 0062 CB58     		ldr	r3, [r1, r3]	@ D.5788, D.5787_11->SYSAHBCLKCTRL
 326 0064 8021     		mov	r1, #128	@ tmp187,
 327 0066 4902     		lsl	r1, r1, #9	@ tmp163, tmp187,
 328 0068 1943     		orr	r1, r3	@ D.5789, D.5788
 329 006a 8023     		mov	r3, #128	@ tmp164,
 330 006c D150     		str	r1, [r2, r3]	@ D.5789, D.5786_10->SYSAHBCLKCTRL
 118:main.c        ****    GPIO0->DIR =0xffffffff;
 331              		.loc 1 118 0
ARM GAS  /tmp/cco7tNt2.s 			page 9


 332 006e A023     		mov	r3, #160	@ tmp188,
 333 0070 DA05     		lsl	r2, r3, #23	@ D.5790, tmp188,
 334 0072 8023     		mov	r3, #128	@ tmp189,
 335 0074 1B02     		lsl	r3, r3, #8	@ tmp165, tmp189,
 336 0076 0121     		mov	r1, #1	@ tmp190,
 337 0078 4942     		neg	r1, r1	@ tmp166, tmp190
 338 007a D150     		str	r1, [r2, r3]	@ tmp166, D.5790_14->DIR
 119:main.c        ****    GPIO1->DIR = 0xffffffff;
 339              		.loc 1 119 0
 340 007c 384A     		ldr	r2, .L16+20	@ D.5791,
 341 007e 8023     		mov	r3, #128	@ tmp191,
 342 0080 1B02     		lsl	r3, r3, #8	@ tmp167, tmp191,
 343 0082 0121     		mov	r1, #1	@ tmp192,
 344 0084 4942     		neg	r1, r1	@ tmp168, tmp192
 345 0086 D150     		str	r1, [r2, r3]	@ tmp168, D.5791_15->DIR
 120:main.c        **** 
 121:main.c        ****    systick_init(100,my_timers,4);
 346              		.loc 1 121 0
 347 0088 364B     		ldr	r3, .L16+24	@ tmp169,
 348 008a 6420     		mov	r0, #100	@,
 349 008c 191C     		mov	r1, r3	@, tmp169
 350 008e 0422     		mov	r2, #4	@,
 351 0090 FFF7FEFF 		bl	systick_init	@
 122:main.c        ****    IOCON->IOCON_RESET_PIO0_0 = PINFN_PIO0_0;   // set reset pin as gpio
 352              		.loc 1 122 0
 353 0094 344B     		ldr	r3, .L16+28	@ D.5792,
 354 0096 0122     		mov	r2, #1	@ tmp170,
 355 0098 DA60     		str	r2, [r3, #12]	@ tmp170, D.5792_16->IOCON_RESET_PIO0_0
 123:main.c        ****    pwm_init(CT32B1, 1, 1024, TIMER_CHANNEL_0 | TIMER_CHANNEL_1 | TIMER_CHANNEL_2);
 356              		.loc 1 123 0
 357 009a 344A     		ldr	r2, .L16+32	@ tmp171,
 358 009c 8023     		mov	r3, #128	@ tmp193,
 359 009e DB00     		lsl	r3, r3, #3	@ tmp172, tmp193,
 360 00a0 101C     		mov	r0, r2	@, tmp171
 361 00a2 0121     		mov	r1, #1	@,
 362 00a4 1A1C     		mov	r2, r3	@, tmp172
 363 00a6 0723     		mov	r3, #7	@,
 364 00a8 FFF7FEFF 		bl	pwm_init	@
 124:main.c        ****    pwm_init(CT16B1, 48, 65536, TIMER_CHANNEL_0);   // ultrasonic
 365              		.loc 1 124 0
 366 00ac 304A     		ldr	r2, .L16+36	@ tmp173,
 367 00ae 8023     		mov	r3, #128	@ tmp194,
 368 00b0 5B02     		lsl	r3, r3, #9	@ tmp174, tmp194,
 369 00b2 101C     		mov	r0, r2	@, tmp173
 370 00b4 3021     		mov	r1, #48	@,
 371 00b6 1A1C     		mov	r2, r3	@, tmp174
 372 00b8 0123     		mov	r3, #1	@,
 373 00ba FFF7FEFF 		bl	pwm_init	@
 125:main.c        ****    pwm_set(CT16B1,TIMER_CHANNEL_0, 10);            // 10 uS pulse to start ranging
 374              		.loc 1 125 0
 375 00be 2C4B     		ldr	r3, .L16+36	@ tmp175,
 376 00c0 181C     		mov	r0, r3	@, tmp175
 377 00c2 0121     		mov	r1, #1	@,
 378 00c4 0A22     		mov	r2, #10	@,
 379 00c6 FFF7FEFF 		bl	pwm_set	@
 126:main.c        ****    capture_init(CT16B1,  TIMER_CAPTURE_RISING_EDGE | TIMER_CAPTURE_IRQ_ENABLE);
 380              		.loc 1 126 0
ARM GAS  /tmp/cco7tNt2.s 			page 10


 381 00ca 294B     		ldr	r3, .L16+36	@ tmp176,
 382 00cc 181C     		mov	r0, r3	@, tmp176
 383 00ce 0521     		mov	r1, #5	@,
 384 00d0 FFF7FEFF 		bl	capture_init	@
 127:main.c        **** 
 128:main.c        ****    serial_init_irq(9600,0,8,1,rx_buf,32);
 385              		.loc 1 128 0
 386 00d4 9623     		mov	r3, #150	@ tmp195,
 387 00d6 9B01     		lsl	r3, r3, #6	@ tmp177, tmp195,
 388 00d8 264A     		ldr	r2, .L16+40	@ tmp178,
 389 00da 0092     		str	r2, [sp]	@ tmp178,
 390 00dc 2022     		mov	r2, #32	@ tmp179,
 391 00de 0192     		str	r2, [sp, #4]	@ tmp179,
 392 00e0 181C     		mov	r0, r3	@, tmp177
 393 00e2 0021     		mov	r1, #0	@,
 394 00e4 0822     		mov	r2, #8	@,
 395 00e6 0123     		mov	r3, #1	@,
 396 00e8 FFF7FEFF 		bl	serial_init_irq	@
 129:main.c        **** 
 130:main.c        ****    print_string("F=");
 397              		.loc 1 130 0
 398 00ec 224B     		ldr	r3, .L16+44	@ tmp180,
 399 00ee 181C     		mov	r0, r3	@, tmp180
 400 00f0 FFF7FEFF 		bl	print_string	@
 131:main.c        ****    print_uint(SystemCoreClock);
 401              		.loc 1 131 0
 402 00f4 214B     		ldr	r3, .L16+48	@ tmp181,
 403 00f6 1B68     		ldr	r3, [r3]	@ SystemCoreClock.0, SystemCoreClock
 404 00f8 181C     		mov	r0, r3	@, SystemCoreClock.0
 405 00fa FFF7FEFF 		bl	print_uint	@
 132:main.c        ****    print_newline();
 406              		.loc 1 132 0
 407 00fe FFF7FEFF 		bl	print_newline	@
 133:main.c        ****    systick_wait(5000);
 408              		.loc 1 133 0
 409 0102 1F4B     		ldr	r3, .L16+52	@ tmp182,
 410 0104 181C     		mov	r0, r3	@, tmp182
 411 0106 FFF7FEFF 		bl	systick_wait	@
 134:main.c        **** 
 135:main.c        ****    print_uint(forth(5));
 412              		.loc 1 135 0
 413 010a 0520     		mov	r0, #5	@,
 414 010c FFF7FEFF 		bl	forth	@
 415 0110 031C     		mov	r3, r0	@ D.5794,
 416 0112 181C     		mov	r0, r3	@, D.5794
 417 0114 FFF7FEFF 		bl	print_uint	@
 136:main.c        ****    systick_wait(1000);
 418              		.loc 1 136 0
 419 0118 FA23     		mov	r3, #250	@ tmp196,
 420 011a 9B00     		lsl	r3, r3, #2	@ tmp183, tmp196,
 421 011c 181C     		mov	r0, r3	@, tmp183
 422 011e FFF7FEFF 		bl	systick_wait	@
 137:main.c        **** 
 138:main.c        ****    systick_set_timer(1,500,1);
 423              		.loc 1 138 0
 424 0122 FA23     		mov	r3, #250	@ tmp197,
 425 0124 5B00     		lsl	r3, r3, #1	@ tmp184, tmp197,
ARM GAS  /tmp/cco7tNt2.s 			page 11


 426 0126 0120     		mov	r0, #1	@,
 427 0128 191C     		mov	r1, r3	@, tmp184
 428 012a 0122     		mov	r2, #1	@,
 429 012c FFF7FEFF 		bl	systick_set_timer	@
 139:main.c        ****    systick_set_callback(1,blinky);
 430              		.loc 1 139 0
 431 0130 144B     		ldr	r3, .L16+56	@ tmp185,
 432 0132 0120     		mov	r0, #1	@,
 433 0134 191C     		mov	r1, r3	@, tmp185
 434 0136 FFF7FEFF 		bl	systick_set_callback	@
 435              	.L15:
 140:main.c        ****    while (1)
 141:main.c        ****    {
 142:main.c        **** 
 143:main.c        ****       print_uint(distance_mm);
 436              		.loc 1 143 0 discriminator 1
 437 013a 134B     		ldr	r3, .L16+60	@ tmp186,
 438 013c 1B68     		ldr	r3, [r3]	@ distance_mm.1, distance_mm
 439 013e 181C     		mov	r0, r3	@, distance_mm.1
 440 0140 FFF7FEFF 		bl	print_uint	@
 144:main.c        ****       print_newline();
 441              		.loc 1 144 0 discriminator 1
 442 0144 FFF7FEFF 		bl	print_newline	@
 145:main.c        **** 
 146:main.c        ****    }
 443              		.loc 1 146 0 discriminator 1
 444 0148 F7E7     		b	.L15	@
 445              	.L17:
 446 014a C046     		.align	2
 447              	.L16:
 448 014c 40420F00 		.word	1000000
 449 0150 006CDC02 		.word	48000000
 450 0154 001BB700 		.word	12000000
 451 0158 7F969800 		.word	9999999
 452 015c 00800440 		.word	1074036736
 453 0160 00000150 		.word	1342242816
 454 0164 00000000 		.word	my_timers
 455 0168 00400440 		.word	1074020352
 456 016c 00800140 		.word	1073840128
 457 0170 00000140 		.word	1073807360
 458 0174 00000000 		.word	rx_buf
 459 0178 00000000 		.word	.LC6
 460 017c 00000000 		.word	SystemCoreClock
 461 0180 88130000 		.word	5000
 462 0184 00000000 		.word	blinky
 463 0188 00000000 		.word	distance_mm
 464              		.cfi_endproc
 465              	.LFE36:
 466              		.size	main, .-main
 467              		.section	.text.sound_set,"ax",%progbits
 468              		.align	2
 469              		.global	sound_set
 470              		.code	16
 471              		.thumb_func
 472              		.type	sound_set, %function
 473              	sound_set:
 474              	.LFB37:
ARM GAS  /tmp/cco7tNt2.s 			page 12


 147:main.c        **** 
 148:main.c        **** 
 149:main.c        **** 
 150:main.c        ****    while(1)
 151:main.c        ****    {
 152:main.c        ****    
 153:main.c        ****       for(count = 0; count < count_max; ++count);
 154:main.c        **** 
 155:main.c        ****       uint32_t pos = 0;
 156:main.c        ****       for(pos=1500; pos <2000; ++pos)
 157:main.c        ****       {
 158:main.c        ****         
 159:main.c        ****         
 160:main.c        ****          for(count = 0; count < 100000; ++count);
 161:main.c        **** 
 162:main.c        **** 	 ++ch_index;
 163:main.c        **** 	 if (msg[ch_index] == 0)
 164:main.c        **** 	 {
 165:main.c        **** 	    ch_index = 0;
 166:main.c        **** 	 }
 167:main.c        **** 
 168:main.c        **** 
 169:main.c        **** 	 while ((ch = serial_receive_irq()) != 0)
 170:main.c        **** 	 {
 171:main.c        **** 	    if (ch == 'p')
 172:main.c        **** 	    {
 173:main.c        **** 	       puts(" world!\n");
 174:main.c        **** 	    }
 175:main.c        **** 
 176:main.c        **** 	    if (ch > 0)
 177:main.c        **** 	    {
 178:main.c        **** 	       putchar(ch);
 179:main.c        **** 	    }
 180:main.c        **** 	 }
 181:main.c        **** 
 182:main.c        **** 	 //getchar();
 183:main.c        **** 	 //putchar('P');
 184:main.c        **** 	 //putc('F',1);
 185:main.c        **** 	 //write(1,msg, 3);
 186:main.c        **** 
 187:main.c        ****       }
 188:main.c        ****    
 189:main.c        ****       for(count = 0; count < count_max; ++count);
 190:main.c        **** 
 191:main.c        **** 
 192:main.c        ****    }
 193:main.c        **** 
 194:main.c        **** }
 195:main.c        **** 
 196:main.c        **** 
 197:main.c        **** 
 198:main.c        **** 
 199:main.c        **** 
 200:main.c        **** 
 201:main.c        **** void sound_set(uint32_t sample)
 202:main.c        **** {
 475              		.loc 1 202 0
ARM GAS  /tmp/cco7tNt2.s 			page 13


 476              		.cfi_startproc
 477 0000 80B5     		push	{r7, lr}	@
 478              	.LCFI11:
 479              		.cfi_def_cfa_offset 8
 480              		.cfi_offset 7, -8
 481              		.cfi_offset 14, -4
 482 0002 82B0     		sub	sp, sp, #8	@,,
 483              	.LCFI12:
 484              		.cfi_def_cfa_offset 16
 485 0004 00AF     		add	r7, sp, #0	@,,
 486              	.LCFI13:
 487              		.cfi_def_cfa_register 7
 488 0006 7860     		str	r0, [r7, #4]	@ sample, sample
 203:main.c        ****    if (sample < 1024)
 489              		.loc 1 203 0
 490 0008 7A68     		ldr	r2, [r7, #4]	@ tmp135, sample
 491 000a 074B     		ldr	r3, .L20	@ tmp136,
 492 000c 9A42     		cmp	r2, r3	@ tmp135, tmp136
 493 000e 04D8     		bhi	.L19	@,
 204:main.c        ****    {
 205:main.c        ****       sample = 1024 - sample;
 494              		.loc 1 205 0
 495 0010 7B68     		ldr	r3, [r7, #4]	@ tmp138, sample
 496 0012 8022     		mov	r2, #128	@ tmp141,
 497 0014 D200     		lsl	r2, r2, #3	@ tmp139, tmp141,
 498 0016 D31A     		sub	r3, r2, r3	@ tmp137, tmp139, tmp138
 499 0018 7B60     		str	r3, [r7, #4]	@ tmp137, sample
 500              	.L19:
 206:main.c        ****    }
 207:main.c        ****    CT32B1->MR2 = sample;
 501              		.loc 1 207 0
 502 001a 044B     		ldr	r3, .L20+4	@ D.5783,
 503 001c 7A68     		ldr	r2, [r7, #4]	@ tmp140, sample
 504 001e 1A62     		str	r2, [r3, #32]	@ tmp140, D.5783_4->MR2
 208:main.c        **** 
 209:main.c        **** }
 505              		.loc 1 209 0
 506 0020 BD46     		mov	sp, r7	@,
 507 0022 02B0     		add	sp, sp, #8	@,,
 508              		@ sp needed for prologue	@
 509 0024 80BD     		pop	{r7, pc}
 510              	.L21:
 511 0026 C046     		.align	2
 512              	.L20:
 513 0028 FF030000 		.word	1023
 514 002c 00800140 		.word	1073840128
 515              		.cfi_endproc
 516              	.LFE37:
 517              		.size	sound_set, .-sound_set
 518              		.section	.bss.is_falling.5742,"aw",%nobits
 519              		.type	is_falling.5742, %object
 520              		.size	is_falling.5742, 1
 521              	is_falling.5742:
 522 0000 00       		.space	1
 523              		.section	.bss.capture_falling.5741,"aw",%nobits
 524              		.align	2
 525              		.type	capture_falling.5741, %object
ARM GAS  /tmp/cco7tNt2.s 			page 14


 526              		.size	capture_falling.5741, 4
 527              	capture_falling.5741:
 528 0000 00000000 		.space	4
 529              		.section	.bss.capture_rising.5740,"aw",%nobits
 530              		.align	2
 531              		.type	capture_rising.5740, %object
 532              		.size	capture_rising.5740, 4
 533              	capture_rising.5740:
 534 0000 00000000 		.space	4
 535              		.text
 536              	.Letext0:
 537              		.file 2 "/opt/gcc-arm-none-eabi-4_7-2013q2/bin/../lib/gcc/arm-none-eabi/4.7.4/../../../../arm-none
 538              		.file 3 "/home/wrcooke/git/projects/arm_gcc/include/LPC11xx.h"
 539              		.file 4 "systick.h"
 540              		.file 5 "timers.h"
 541              		.file 6 "/opt/gcc-arm-none-eabi-4_7-2013q2/bin/../lib/gcc/arm-none-eabi/4.7.4/../../../../arm-none
 542              		.file 7 "/opt/gcc-arm-none-eabi-4_7-2013q2/bin/../lib/gcc/arm-none-eabi/4.7.4/../../../../arm-none
 543              		.file 8 "/opt/gcc-arm-none-eabi-4_7-2013q2/bin/../lib/gcc/arm-none-eabi/4.7.4/include/stddef.h"
 544              		.file 9 "/opt/gcc-arm-none-eabi-4_7-2013q2/bin/../lib/gcc/arm-none-eabi/4.7.4/../../../../arm-none
 545              		.file 10 "/home/wrcooke/git/projects/arm_gcc/include/system_LPC11xx.h"