ARM GAS  /tmp/ccZ1pKfK.s 			page 1


   1              		.cpu cortex-m0
   2              		.fpu softvfp
   3              		.eabi_attribute 20, 1	@ Tag_ABI_FP_denormal
   4              		.eabi_attribute 21, 1	@ Tag_ABI_FP_exceptions
   5              		.eabi_attribute 23, 3	@ Tag_ABI_FP_number_model
   6              		.eabi_attribute 24, 1	@ Tag_ABI_align8_needed
   7              		.eabi_attribute 25, 1	@ Tag_ABI_align8_preserved
   8              		.eabi_attribute 26, 1	@ Tag_ABI_enum_size
   9              		.eabi_attribute 30, 6	@ Tag_ABI_optimization_goals
  10              		.eabi_attribute 34, 0	@ Tag_CPU_unaligned_access
  11              		.eabi_attribute 18, 4	@ Tag_ABI_PCS_wchar_t
  12              		.file	"nonstdio.c"
  13              	@ GNU C (GNU Tools for ARM Embedded Processors) version 4.7.4 20130613 (release) [ARM/embedded-4_7-
  14              	@	compiled by GNU C version 4.3.6, GMP version 4.3.2, MPFR version 2.4.2, MPC version 0.8.1
  15              	@ GGC heuristics: --param ggc-min-expand=100 --param ggc-min-heapsize=131072
  16              	@ options passed:  -I . -I /home/wrcooke/git/projects/arm_gcc/include
  17              	@ -imultilib armv6-m
  18              	@ -iprefix /opt/gcc-arm-none-eabi-4_7-2013q2/bin/../lib/gcc/arm-none-eabi/4.7.4/
  19              	@ -isysroot /opt/gcc-arm-none-eabi-4_7-2013q2/bin/../arm-none-eabi
  20              	@ -MD out/nonstdio.d -MF out/nonstdio.d -MP -MQ out/nonstdio.o
  21              	@ -D__USES_INITFINI__ nonstdio.c -mcpu=cortex-m0 -mthumb
  22              	@ -auxbase-strip out/nonstdio.o -g -ggdb3 -O0 -Wall -Wstrict-prototypes
  23              	@ -Wextra -std=gnu99 -ffunction-sections -fdata-sections -fverbose-asm
  24              	@ options enabled:  -fauto-inc-dec -fbranch-count-reg -fcommon
  25              	@ -fdata-sections -fdebug-types-section -fdelete-null-pointer-checks
  26              	@ -fdwarf2-cfi-asm -fearly-inlining -feliminate-unused-debug-types
  27              	@ -ffunction-cse -ffunction-sections -fgcse-lm -fgnu-runtime -fident
  28              	@ -finline-atomics -fira-hoist-pressure -fira-share-save-slots
  29              	@ -fira-share-spill-slots -fivopts -fkeep-static-consts
  30              	@ -fleading-underscore -fmath-errno -fmerge-debug-strings
  31              	@ -fmove-loop-invariants -fpeephole -fprefetch-loop-arrays
  32              	@ -freg-struct-return -fsched-critical-path-heuristic
  33              	@ -fsched-dep-count-heuristic -fsched-group-heuristic -fsched-interblock
  34              	@ -fsched-last-insn-heuristic -fsched-rank-heuristic -fsched-spec
  35              	@ -fsched-spec-insn-heuristic -fsched-stalled-insns-dep -fshow-column
  36              	@ -fsigned-zeros -fsplit-ivs-in-unroller -fstrict-volatile-bitfields
  37              	@ -ftrapping-math -ftree-cselim -ftree-forwprop -ftree-loop-if-convert
  38              	@ -ftree-loop-im -ftree-loop-ivcanon -ftree-loop-optimize
  39              	@ -ftree-parallelize-loops= -ftree-phiprop -ftree-pta -ftree-reassoc
  40              	@ -ftree-scev-cprop -ftree-slp-vectorize -ftree-vect-loop-version
  41              	@ -funit-at-a-time -fverbose-asm -fzero-initialized-in-bss -mlittle-endian
  42              	@ -msched-prolog -mthumb -mvectorize-with-neon-quad
  43              	
  44              		.text
  45              	.Ltext0:
  46              		.cfi_sections	.debug_frame
  47              		.section	.bss.buff,"aw",%nobits
  48              		.align	2
  49              		.type	buff, %object
  50              		.size	buff, 32
  51              	buff:
  52 0000 00000000 		.space	32
  52      00000000 
  52      00000000 
  52      00000000 
  52      00000000 
  53              		.section	.rodata.hex_chars,"a",%progbits
ARM GAS  /tmp/ccZ1pKfK.s 			page 2


  54              		.align	2
  55              		.type	hex_chars, %object
  56              		.size	hex_chars, 17
  57              	hex_chars:
  58 0000 30313233 		.ascii	"0123456789ABCDEF\000"
  58      34353637 
  58      38394142 
  58      43444546 
  58      00
  59              		.global	__aeabi_uidivmod
  60              		.global	__aeabi_uidiv
  61 0011 000000   		.section	.text.print_uint,"ax",%progbits
  62              		.align	2
  63              		.global	print_uint
  64              		.code	16
  65              		.thumb_func
  66              		.type	print_uint, %function
  67              	print_uint:
  68              	.LFB0:
  69              		.file 1 "nonstdio.c"
   1:nonstdio.c    **** //////////////////////////////////////////////////////////////////////////////
   2:nonstdio.c    **** ///
   3:nonstdio.c    **** ///  @file nonstdio.c
   4:nonstdio.c    **** ///
   5:nonstdio.c    **** ///  copyright (c) 2013 William R Cooke
   6:nonstdio.c    **** ///
   7:nonstdio.c    **** //////////////////////////////////////////////////////////////////////////////
   8:nonstdio.c    **** #include <stdint.h>
   9:nonstdio.c    **** #include "nonstdio.h"
  10:nonstdio.c    **** 
  11:nonstdio.c    **** #define buff_size 32
  12:nonstdio.c    **** 
  13:nonstdio.c    **** static uint8_t buff[buff_size];
  14:nonstdio.c    **** static const uint8_t hex_chars[] = "0123456789ABCDEF";
  15:nonstdio.c    **** 
  16:nonstdio.c    **** void print_uint(uint32_t num)
  17:nonstdio.c    **** {
  70              		.loc 1 17 0
  71              		.cfi_startproc
  72 0000 80B5     		push	{r7, lr}	@
  73              	.LCFI0:
  74              		.cfi_def_cfa_offset 8
  75              		.cfi_offset 7, -8
  76              		.cfi_offset 14, -4
  77 0002 84B0     		sub	sp, sp, #16	@,,
  78              	.LCFI1:
  79              		.cfi_def_cfa_offset 24
  80 0004 00AF     		add	r7, sp, #0	@,,
  81              	.LCFI2:
  82              		.cfi_def_cfa_register 7
  83 0006 7860     		str	r0, [r7, #4]	@ num, num
  18:nonstdio.c    ****    uint8_t *next = &(buff[buff_size-1]);
  84              		.loc 1 18 0
  85 0008 114B     		ldr	r3, .L3	@ tmp136,
  86 000a FB60     		str	r3, [r7, #12]	@ tmp136, next
  19:nonstdio.c    ****    *next = 0;
  87              		.loc 1 19 0
ARM GAS  /tmp/ccZ1pKfK.s 			page 3


  88 000c FB68     		ldr	r3, [r7, #12]	@ tmp137, next
  89 000e 0022     		mov	r2, #0	@ tmp138,
  90 0010 1A70     		strb	r2, [r3]	@ tmp139, *next_3
  91              	.L2:
  20:nonstdio.c    ****    do
  21:nonstdio.c    ****    {
  22:nonstdio.c    ****       --next;
  92              		.loc 1 22 0 discriminator 1
  93 0012 FB68     		ldr	r3, [r7, #12]	@ tmp141, next
  94 0014 013B     		sub	r3, r3, #1	@ tmp140,
  95 0016 FB60     		str	r3, [r7, #12]	@ tmp140, next
  23:nonstdio.c    ****       *next = hex_chars[num % 10];
  96              		.loc 1 23 0 discriminator 1
  97 0018 7B68     		ldr	r3, [r7, #4]	@ tmp142, num
  98 001a 181C     		mov	r0, r3	@, tmp142
  99 001c 0A21     		mov	r1, #10	@,
 100 001e FFF7FEFF 		bl	__aeabi_uidivmod	@
 101 0022 0B1C     		mov	r3, r1	@ tmp147,
 102 0024 0B4A     		ldr	r2, .L3+4	@ tmp148,
 103 0026 D25C     		ldrb	r2, [r2, r3]	@ D.4178,* D.4177
 104 0028 FB68     		ldr	r3, [r7, #12]	@ tmp149, next
 105 002a 1A70     		strb	r2, [r3]	@ tmp150, *next_5
  24:nonstdio.c    ****       num /= 10;
 106              		.loc 1 24 0 discriminator 1
 107 002c 7B68     		ldr	r3, [r7, #4]	@ tmp152, num
 108 002e 181C     		mov	r0, r3	@, tmp152
 109 0030 0A21     		mov	r1, #10	@,
 110 0032 FFF7FEFF 		bl	__aeabi_uidiv	@
 111 0036 031C     		mov	r3, r0	@ tmp155,
 112 0038 7B60     		str	r3, [r7, #4]	@ tmp155, num
  25:nonstdio.c    ****    } while (num != 0);
 113              		.loc 1 25 0 discriminator 1
 114 003a 7B68     		ldr	r3, [r7, #4]	@ tmp156, num
 115 003c 002B     		cmp	r3, #0	@ tmp156,
 116 003e E8D1     		bne	.L2	@,
  26:nonstdio.c    ****    print_string(next);
 117              		.loc 1 26 0
 118 0040 FB68     		ldr	r3, [r7, #12]	@ tmp157, next
 119 0042 181C     		mov	r0, r3	@, tmp157
 120 0044 FFF7FEFF 		bl	print_string	@
  27:nonstdio.c    **** }
 121              		.loc 1 27 0
 122 0048 BD46     		mov	sp, r7	@,
 123 004a 04B0     		add	sp, sp, #16	@,,
 124              		@ sp needed for prologue	@
 125 004c 80BD     		pop	{r7, pc}
 126              	.L4:
 127 004e C046     		.align	2
 128              	.L3:
 129 0050 1F000000 		.word	buff+31
 130 0054 00000000 		.word	hex_chars
 131              		.cfi_endproc
 132              	.LFE0:
 133              		.size	print_uint, .-print_uint
 134              		.section	.text.print_int,"ax",%progbits
 135              		.align	2
 136              		.global	print_int
ARM GAS  /tmp/ccZ1pKfK.s 			page 4


 137              		.code	16
 138              		.thumb_func
 139              		.type	print_int, %function
 140              	print_int:
 141              	.LFB1:
  28:nonstdio.c    **** 
  29:nonstdio.c    **** void print_int(int32_t num)
  30:nonstdio.c    **** {
 142              		.loc 1 30 0
 143              		.cfi_startproc
 144 0000 80B5     		push	{r7, lr}	@
 145              	.LCFI3:
 146              		.cfi_def_cfa_offset 8
 147              		.cfi_offset 7, -8
 148              		.cfi_offset 14, -4
 149 0002 82B0     		sub	sp, sp, #8	@,,
 150              	.LCFI4:
 151              		.cfi_def_cfa_offset 16
 152 0004 00AF     		add	r7, sp, #0	@,,
 153              	.LCFI5:
 154              		.cfi_def_cfa_register 7
 155 0006 7860     		str	r0, [r7, #4]	@ num, num
  31:nonstdio.c    ****    if (num < 0)
 156              		.loc 1 31 0
 157 0008 7B68     		ldr	r3, [r7, #4]	@ tmp135, num
 158 000a 002B     		cmp	r3, #0	@ tmp135,
 159 000c 05DA     		bge	.L6	@,
  32:nonstdio.c    ****    {
  33:nonstdio.c    ****       print_char('-');
 160              		.loc 1 33 0
 161 000e 2D20     		mov	r0, #45	@,
 162 0010 FFF7FEFF 		bl	print_char	@
  34:nonstdio.c    ****       num = -num;
 163              		.loc 1 34 0
 164 0014 7B68     		ldr	r3, [r7, #4]	@ tmp137, num
 165 0016 5B42     		neg	r3, r3	@ tmp136, tmp137
 166 0018 7B60     		str	r3, [r7, #4]	@ tmp136, num
 167              	.L6:
  35:nonstdio.c    ****    }
  36:nonstdio.c    ****    print_uint(num);
 168              		.loc 1 36 0
 169 001a 7B68     		ldr	r3, [r7, #4]	@ num.0, num
 170 001c 181C     		mov	r0, r3	@, num.0
 171 001e FFF7FEFF 		bl	print_uint	@
  37:nonstdio.c    **** }
 172              		.loc 1 37 0
 173 0022 BD46     		mov	sp, r7	@,
 174 0024 02B0     		add	sp, sp, #8	@,,
 175              		@ sp needed for prologue	@
 176 0026 80BD     		pop	{r7, pc}
 177              		.cfi_endproc
 178              	.LFE1:
 179              		.size	print_int, .-print_int
 180              		.section	.text.print_char,"ax",%progbits
 181              		.align	2
 182              		.global	print_char
 183              		.code	16
ARM GAS  /tmp/ccZ1pKfK.s 			page 5


 184              		.thumb_func
 185              		.type	print_char, %function
 186              	print_char:
 187              	.LFB2:
  38:nonstdio.c    **** 
  39:nonstdio.c    **** void print_char(uint8_t ch)
  40:nonstdio.c    **** {
 188              		.loc 1 40 0
 189              		.cfi_startproc
 190 0000 80B5     		push	{r7, lr}	@
 191              	.LCFI6:
 192              		.cfi_def_cfa_offset 8
 193              		.cfi_offset 7, -8
 194              		.cfi_offset 14, -4
 195 0002 82B0     		sub	sp, sp, #8	@,,
 196              	.LCFI7:
 197              		.cfi_def_cfa_offset 16
 198 0004 00AF     		add	r7, sp, #0	@,,
 199              	.LCFI8:
 200              		.cfi_def_cfa_register 7
 201 0006 021C     		mov	r2, r0	@ tmp135, ch
 202 0008 FB1D     		add	r3, r7, #7	@ tmp136,,
 203 000a 1A70     		strb	r2, [r3]	@ tmp137, ch
  41:nonstdio.c    ****    serial_send(ch);
 204              		.loc 1 41 0
 205 000c FB1D     		add	r3, r7, #7	@ tmp138,,
 206 000e 1B78     		ldrb	r3, [r3]	@ D.4173, ch
 207 0010 181C     		mov	r0, r3	@, D.4173
 208 0012 FFF7FEFF 		bl	serial_send	@
  42:nonstdio.c    **** }
 209              		.loc 1 42 0
 210 0016 BD46     		mov	sp, r7	@,
 211 0018 02B0     		add	sp, sp, #8	@,,
 212              		@ sp needed for prologue	@
 213 001a 80BD     		pop	{r7, pc}
 214              		.cfi_endproc
 215              	.LFE2:
 216              		.size	print_char, .-print_char
 217              		.section	.text.print_string,"ax",%progbits
 218              		.align	2
 219              		.global	print_string
 220              		.code	16
 221              		.thumb_func
 222              		.type	print_string, %function
 223              	print_string:
 224              	.LFB3:
  43:nonstdio.c    **** 
  44:nonstdio.c    **** void print_string(uint8_t *str)
  45:nonstdio.c    **** {
 225              		.loc 1 45 0
 226              		.cfi_startproc
 227 0000 80B5     		push	{r7, lr}	@
 228              	.LCFI9:
 229              		.cfi_def_cfa_offset 8
 230              		.cfi_offset 7, -8
 231              		.cfi_offset 14, -4
 232 0002 84B0     		sub	sp, sp, #16	@,,
ARM GAS  /tmp/ccZ1pKfK.s 			page 6


 233              	.LCFI10:
 234              		.cfi_def_cfa_offset 24
 235 0004 00AF     		add	r7, sp, #0	@,,
 236              	.LCFI11:
 237              		.cfi_def_cfa_register 7
 238 0006 7860     		str	r0, [r7, #4]	@ str, str
  46:nonstdio.c    ****    uint8_t ch;
  47:nonstdio.c    ****    while ((ch=*str) != 0)
 239              		.loc 1 47 0
 240 0008 08E0     		b	.L9	@
 241              	.L10:
 242              	.LBB2:
  48:nonstdio.c    ****    {
  49:nonstdio.c    ****       serial_send(ch);
 243              		.loc 1 49 0
 244 000a 3B1C     		mov	r3, r7	@ tmp135,
 245 000c 0F33     		add	r3, r3, #15	@ tmp135,
 246 000e 1B78     		ldrb	r3, [r3]	@ D.4172, ch
 247 0010 181C     		mov	r0, r3	@, D.4172
 248 0012 FFF7FEFF 		bl	serial_send	@
  50:nonstdio.c    ****       str++;
 249              		.loc 1 50 0
 250 0016 7B68     		ldr	r3, [r7, #4]	@ tmp137, str
 251 0018 0133     		add	r3, r3, #1	@ tmp136,
 252 001a 7B60     		str	r3, [r7, #4]	@ tmp136, str
 253              	.L9:
 254              	.LBE2:
  47:nonstdio.c    ****    while ((ch=*str) != 0)
 255              		.loc 1 47 0 discriminator 1
 256 001c 3B1C     		mov	r3, r7	@ tmp138,
 257 001e 0F33     		add	r3, r3, #15	@ tmp138,
 258 0020 7A68     		ldr	r2, [r7, #4]	@ tmp139, str
 259 0022 1278     		ldrb	r2, [r2]	@ tmp140, *str_1
 260 0024 1A70     		strb	r2, [r3]	@ tmp140, ch
 261 0026 3B1C     		mov	r3, r7	@ tmp141,
 262 0028 0F33     		add	r3, r3, #15	@ tmp141,
 263 002a 1B78     		ldrb	r3, [r3]	@ tmp142, ch
 264 002c 002B     		cmp	r3, #0	@ tmp142,
 265 002e ECD1     		bne	.L10	@,
  51:nonstdio.c    ****    }
  52:nonstdio.c    **** }
 266              		.loc 1 52 0
 267 0030 BD46     		mov	sp, r7	@,
 268 0032 04B0     		add	sp, sp, #16	@,,
 269              		@ sp needed for prologue	@
 270 0034 80BD     		pop	{r7, pc}
 271              		.cfi_endproc
 272              	.LFE3:
 273              		.size	print_string, .-print_string
 274 0036 C046     		.section	.text.print_hex,"ax",%progbits
 275              		.align	2
 276              		.global	print_hex
 277              		.code	16
 278              		.thumb_func
 279              		.type	print_hex, %function
 280              	print_hex:
 281              	.LFB4:
ARM GAS  /tmp/ccZ1pKfK.s 			page 7


  53:nonstdio.c    **** 
  54:nonstdio.c    **** void print_hex(uint32_t num)
  55:nonstdio.c    **** {
 282              		.loc 1 55 0
 283              		.cfi_startproc
 284 0000 80B5     		push	{r7, lr}	@
 285              	.LCFI12:
 286              		.cfi_def_cfa_offset 8
 287              		.cfi_offset 7, -8
 288              		.cfi_offset 14, -4
 289 0002 84B0     		sub	sp, sp, #16	@,,
 290              	.LCFI13:
 291              		.cfi_def_cfa_offset 24
 292 0004 00AF     		add	r7, sp, #0	@,,
 293              	.LCFI14:
 294              		.cfi_def_cfa_register 7
 295 0006 7860     		str	r0, [r7, #4]	@ num, num
  56:nonstdio.c    ****    uint32_t cnt;
  57:nonstdio.c    ****    for (cnt = 0; cnt < 8; ++cnt)
 296              		.loc 1 57 0
 297 0008 0023     		mov	r3, #0	@ tmp137,
 298 000a FB60     		str	r3, [r7, #12]	@ tmp137, cnt
 299 000c 0FE0     		b	.L12	@
 300              	.L13:
  58:nonstdio.c    ****    {
  59:nonstdio.c    ****       buff[buff_size - 2 - cnt] = hex_chars[num & 0xf];
 301              		.loc 1 59 0 discriminator 2
 302 000e FB68     		ldr	r3, [r7, #12]	@ tmp138, cnt
 303 0010 1E22     		mov	r2, #30	@ tmp139,
 304 0012 D31A     		sub	r3, r2, r3	@ D.4169, tmp139, tmp138
 305 0014 7968     		ldr	r1, [r7, #4]	@ tmp140, num
 306 0016 0F22     		mov	r2, #15	@ tmp141,
 307 0018 0A40     		and	r2, r1	@ D.4170, tmp140
 308 001a 0B49     		ldr	r1, .L14	@ tmp142,
 309 001c 895C     		ldrb	r1, [r1, r2]	@ D.4171,* D.4170
 310 001e 0B4A     		ldr	r2, .L14+4	@ tmp143,
 311 0020 D154     		strb	r1, [r2, r3]	@ tmp144, buff
  60:nonstdio.c    ****       num >>= 4;
 312              		.loc 1 60 0 discriminator 2
 313 0022 7B68     		ldr	r3, [r7, #4]	@ tmp146, num
 314 0024 1B09     		lsr	r3, r3, #4	@ tmp145, tmp146,
 315 0026 7B60     		str	r3, [r7, #4]	@ tmp145, num
  57:nonstdio.c    ****    for (cnt = 0; cnt < 8; ++cnt)
 316              		.loc 1 57 0 discriminator 2
 317 0028 FB68     		ldr	r3, [r7, #12]	@ tmp148, cnt
 318 002a 0133     		add	r3, r3, #1	@ tmp147,
 319 002c FB60     		str	r3, [r7, #12]	@ tmp147, cnt
 320              	.L12:
  57:nonstdio.c    ****    for (cnt = 0; cnt < 8; ++cnt)
 321              		.loc 1 57 0 is_stmt 0 discriminator 1
 322 002e FB68     		ldr	r3, [r7, #12]	@ tmp149, cnt
 323 0030 072B     		cmp	r3, #7	@ tmp149,
 324 0032 ECD9     		bls	.L13	@,
  61:nonstdio.c    ****    }
  62:nonstdio.c    ****    buff[buff_size - 1] = 0;
 325              		.loc 1 62 0 is_stmt 1
 326 0034 054B     		ldr	r3, .L14+4	@ tmp150,
ARM GAS  /tmp/ccZ1pKfK.s 			page 8


 327 0036 0022     		mov	r2, #0	@ tmp151,
 328 0038 DA77     		strb	r2, [r3, #31]	@ tmp152, buff
  63:nonstdio.c    ****    print_string (&(buff[buff_size - 2 - 7]));
 329              		.loc 1 63 0
 330 003a 054B     		ldr	r3, .L14+8	@ tmp153,
 331 003c 181C     		mov	r0, r3	@, tmp153
 332 003e FFF7FEFF 		bl	print_string	@
  64:nonstdio.c    **** }
 333              		.loc 1 64 0
 334 0042 BD46     		mov	sp, r7	@,
 335 0044 04B0     		add	sp, sp, #16	@,,
 336              		@ sp needed for prologue	@
 337 0046 80BD     		pop	{r7, pc}
 338              	.L15:
 339              		.align	2
 340              	.L14:
 341 0048 00000000 		.word	hex_chars
 342 004c 00000000 		.word	buff
 343 0050 17000000 		.word	buff+23
 344              		.cfi_endproc
 345              	.LFE4:
 346              		.size	print_hex, .-print_hex
 347              		.section	.text.print_newline,"ax",%progbits
 348              		.align	2
 349              		.global	print_newline
 350              		.code	16
 351              		.thumb_func
 352              		.type	print_newline, %function
 353              	print_newline:
 354              	.LFB5:
  65:nonstdio.c    **** 
  66:nonstdio.c    **** void print_newline(void)
  67:nonstdio.c    **** {
 355              		.loc 1 67 0
 356              		.cfi_startproc
 357 0000 80B5     		push	{r7, lr}	@
 358              	.LCFI15:
 359              		.cfi_def_cfa_offset 8
 360              		.cfi_offset 7, -8
 361              		.cfi_offset 14, -4
 362 0002 00AF     		add	r7, sp, #0	@,,
 363              	.LCFI16:
 364              		.cfi_def_cfa_register 7
  68:nonstdio.c    ****    serial_send(13);
 365              		.loc 1 68 0
 366 0004 0D20     		mov	r0, #13	@,
 367 0006 FFF7FEFF 		bl	serial_send	@
  69:nonstdio.c    ****    serial_send(10);
 368              		.loc 1 69 0
 369 000a 0A20     		mov	r0, #10	@,
 370 000c FFF7FEFF 		bl	serial_send	@
  70:nonstdio.c    **** }
 371              		.loc 1 70 0
 372 0010 BD46     		mov	sp, r7	@,
 373              		@ sp needed for prologue	@
 374 0012 80BD     		pop	{r7, pc}
 375              		.cfi_endproc
ARM GAS  /tmp/ccZ1pKfK.s 			page 9


 376              	.LFE5:
 377              		.size	print_newline, .-print_newline
 378              		.section	.text.read_char,"ax",%progbits
 379              		.align	2
 380              		.global	read_char
 381              		.code	16
 382              		.thumb_func
 383              		.type	read_char, %function
 384              	read_char:
 385              	.LFB6:
  71:nonstdio.c    **** 
  72:nonstdio.c    **** uint8_t read_char()
  73:nonstdio.c    **** {
 386              		.loc 1 73 0
 387              		.cfi_startproc
 388 0000 80B5     		push	{r7, lr}	@
 389              	.LCFI17:
 390              		.cfi_def_cfa_offset 8
 391              		.cfi_offset 7, -8
 392              		.cfi_offset 14, -4
 393 0002 00AF     		add	r7, sp, #0	@,,
 394              	.LCFI18:
 395              		.cfi_def_cfa_register 7
  74:nonstdio.c    ****    return serial_receive();
 396              		.loc 1 74 0
 397 0004 FFF7FEFF 		bl	serial_receive	@
 398 0008 031C     		mov	r3, r0	@ D.4167,
 399 000a DBB2     		uxtb	r3, r3	@ D.4166, D.4167
  75:nonstdio.c    **** }
 400              		.loc 1 75 0
 401 000c 181C     		mov	r0, r3	@, <retval>
 402 000e BD46     		mov	sp, r7	@,
 403              		@ sp needed for prologue	@
 404 0010 80BD     		pop	{r7, pc}
 405              		.cfi_endproc
 406              	.LFE6:
 407              		.size	read_char, .-read_char
 408 0012 C046     		.section	.text.read_line,"ax",%progbits
 409              		.align	2
 410              		.global	read_line
 411              		.code	16
 412              		.thumb_func
 413              		.type	read_line, %function
 414              	read_line:
 415              	.LFB7:
  76:nonstdio.c    **** 
  77:nonstdio.c    **** int32_t read_line(uint8_t *str, uint32_t len)
  78:nonstdio.c    **** {
 416              		.loc 1 78 0
 417              		.cfi_startproc
 418 0000 80B5     		push	{r7, lr}	@
 419              	.LCFI19:
 420              		.cfi_def_cfa_offset 8
 421              		.cfi_offset 7, -8
 422              		.cfi_offset 14, -4
 423 0002 82B0     		sub	sp, sp, #8	@,,
 424              	.LCFI20:
ARM GAS  /tmp/ccZ1pKfK.s 			page 10


 425              		.cfi_def_cfa_offset 16
 426 0004 00AF     		add	r7, sp, #0	@,,
 427              	.LCFI21:
 428              		.cfi_def_cfa_register 7
 429 0006 7860     		str	r0, [r7, #4]	@ str, str
 430 0008 3960     		str	r1, [r7]	@ len, len
  79:nonstdio.c    ****    return 0;
 431              		.loc 1 79 0
 432 000a 0023     		mov	r3, #0	@ D.4164,
  80:nonstdio.c    **** }
 433              		.loc 1 80 0
 434 000c 181C     		mov	r0, r3	@, <retval>
 435 000e BD46     		mov	sp, r7	@,
 436 0010 02B0     		add	sp, sp, #8	@,,
 437              		@ sp needed for prologue	@
 438 0012 80BD     		pop	{r7, pc}
 439              		.cfi_endproc
 440              	.LFE7:
 441              		.size	read_line, .-read_line
 442              		.section	.text.read_string,"ax",%progbits
 443              		.align	2
 444              		.global	read_string
 445              		.code	16
 446              		.thumb_func
 447              		.type	read_string, %function
 448              	read_string:
 449              	.LFB8:
  81:nonstdio.c    **** 
  82:nonstdio.c    **** int32_t read_string(uint8_t *str, uint32_t len)
  83:nonstdio.c    **** {
 450              		.loc 1 83 0
 451              		.cfi_startproc
 452 0000 80B5     		push	{r7, lr}	@
 453              	.LCFI22:
 454              		.cfi_def_cfa_offset 8
 455              		.cfi_offset 7, -8
 456              		.cfi_offset 14, -4
 457 0002 82B0     		sub	sp, sp, #8	@,,
 458              	.LCFI23:
 459              		.cfi_def_cfa_offset 16
 460 0004 00AF     		add	r7, sp, #0	@,,
 461              	.LCFI24:
 462              		.cfi_def_cfa_register 7
 463 0006 7860     		str	r0, [r7, #4]	@ str, str
 464 0008 3960     		str	r1, [r7]	@ len, len
  84:nonstdio.c    ****    return 0;
 465              		.loc 1 84 0
 466 000a 0023     		mov	r3, #0	@ D.4162,
  85:nonstdio.c    **** }
 467              		.loc 1 85 0
 468 000c 181C     		mov	r0, r3	@, <retval>
 469 000e BD46     		mov	sp, r7	@,
 470 0010 02B0     		add	sp, sp, #8	@,,
 471              		@ sp needed for prologue	@
 472 0012 80BD     		pop	{r7, pc}
 473              		.cfi_endproc
 474              	.LFE8:
ARM GAS  /tmp/ccZ1pKfK.s 			page 11


 475              		.size	read_string, .-read_string
 476              		.section	.text.unread_char,"ax",%progbits
 477              		.align	2
 478              		.global	unread_char
 479              		.code	16
 480              		.thumb_func
 481              		.type	unread_char, %function
 482              	unread_char:
 483              	.LFB9:
  86:nonstdio.c    **** 
  87:nonstdio.c    **** void unread_char(uint8_t ch)
  88:nonstdio.c    **** {
 484              		.loc 1 88 0
 485              		.cfi_startproc
 486 0000 80B5     		push	{r7, lr}	@
 487              	.LCFI25:
 488              		.cfi_def_cfa_offset 8
 489              		.cfi_offset 7, -8
 490              		.cfi_offset 14, -4
 491 0002 82B0     		sub	sp, sp, #8	@,,
 492              	.LCFI26:
 493              		.cfi_def_cfa_offset 16
 494 0004 00AF     		add	r7, sp, #0	@,,
 495              	.LCFI27:
 496              		.cfi_def_cfa_register 7
 497 0006 021C     		mov	r2, r0	@ tmp134, ch
 498 0008 FB1D     		add	r3, r7, #7	@ tmp135,,
 499 000a 1A70     		strb	r2, [r3]	@ tmp136, ch
  89:nonstdio.c    **** }
 500              		.loc 1 89 0
 501 000c BD46     		mov	sp, r7	@,
 502 000e 02B0     		add	sp, sp, #8	@,,
 503              		@ sp needed for prologue	@
 504 0010 80BD     		pop	{r7, pc}
 505              		.cfi_endproc
 506              	.LFE9:
 507              		.size	unread_char, .-unread_char
 508 0012 C046     		.section	.text.set_io_functions,"ax",%progbits
 509              		.align	2
 510              		.global	set_io_functions
 511              		.code	16
 512              		.thumb_func
 513              		.type	set_io_functions, %function
 514              	set_io_functions:
 515              	.LFB10:
  90:nonstdio.c    **** 
  91:nonstdio.c    **** void set_io_functions(void)
  92:nonstdio.c    **** {
 516              		.loc 1 92 0
 517              		.cfi_startproc
 518 0000 80B5     		push	{r7, lr}	@
 519              	.LCFI28:
 520              		.cfi_def_cfa_offset 8
 521              		.cfi_offset 7, -8
 522              		.cfi_offset 14, -4
 523 0002 00AF     		add	r7, sp, #0	@,,
 524              	.LCFI29:
ARM GAS  /tmp/ccZ1pKfK.s 			page 12


 525              		.cfi_def_cfa_register 7
  93:nonstdio.c    **** }
 526              		.loc 1 93 0
 527 0004 BD46     		mov	sp, r7	@,
 528              		@ sp needed for prologue	@
 529 0006 80BD     		pop	{r7, pc}
 530              		.cfi_endproc
 531              	.LFE10:
 532              		.size	set_io_functions, .-set_io_functions
 533              		.text
 534              	.Letext0:
 535              		.file 2 "/opt/gcc-arm-none-eabi-4_7-2013q2/bin/../lib/gcc/arm-none-eabi/4.7.4/../../../../arm-none