ARM GAS  /tmp/ccZ1pKfK.s 			page 1


   1              		.cpu cortex-m0
   2              		.fpu softvfp
   3              		.eabi_attribute 20, 1	@ Tag_ABI_FP_denormal
   4              		.eabi_attribute 21, 1	@ Tag_ABI_FP_exceptions
   5              		.eabi_attribute 23, 3	@ Tag_ABI_FP_number_model
   6              		.eabi_attribute 24, 1	@ Tag_ABI_align8_needed
   7              		.eabi_attribute 25, 1	@ Tag_ABI_align8_preserved
   8              		.eabi_attribute 26, 1	@ Tag_ABI_enum_size
   9              		.eabi_attribute 30, 6	@ Tag_ABI_optimization_goals
  10              		.eabi_attribute 34, 0	@ Tag_CPU_unaligned_access
  11              		.eabi_attribute 18, 4	@ Tag_ABI_PCS_wchar_t
  12              		.file	"nonstdio.c"
  13              	@ GNU C (GNU Tools for ARM Embedded Processors) version 4.7.4 20130613 (release) [ARM/embedded-4_7-
  14              	@	compiled by GNU C version 4.3.6, GMP version 4.3.2, MPFR version 2.4.2, MPC version 0.8.1
  15              	@ GGC heuristics: --param ggc-min-expand=100 --param ggc-min-heapsize=131072
  16              	@ options passed:  -I . -I /home/wrcooke/git/projects/arm_gcc/include
  17              	@ -imultilib armv6-m
  18              	@ -iprefix /opt/gcc-arm-none-eabi-4_7-2013q2/bin/../lib/gcc/arm-none-eabi/4.7.4/
  19              	@ -isysroot /opt/gcc-arm-none-eabi-4_7-2013q2/bin/../arm-none-eabi
  20              	@ -MD out/nonstdio.d -MF out/nonstdio.d -MP -MQ out/nonstdio.o
  21              	@ -D__USES_INITFINI__ nonstdio.c -mcpu=cortex-m0 -mthumb
  22              	@ -auxbase-strip out/nonstdio.o -g -ggdb3 -O0 -Wall -Wstrict-prototypes
  23              	@ -Wextra -std=gnu99 -ffunction-sections -fdata-sections -fverbose-asm
  24              	@ options enabled:  -fauto-inc-dec -fbranch-count-reg -fcommon
  25              	@ -fdata-sections -fdebug-types-section -fdelete-null-pointer-checks
  26              	@ -fdwarf2-cfi-asm -fearly-inlining -feliminate-unused-debug-types
  27              	@ -ffunction-cse -ffunction-sections -fgcse-lm -fgnu-runtime -fident
  28              	@ -finline-atomics -fira-hoist-pressure -fira-share-save-slots
  29              	@ -fira-share-spill-slots -fivopts -fkeep-static-consts
  30              	@ -fleading-underscore -fmath-errno -fmerge-debug-strings
  31              	@ -fmove-loop-invariants -fpeephole -fprefetch-loop-arrays
  32              	@ -freg-struct-return -fsched-critical-path-heuristic
  33              	@ -fsched-dep-count-heuristic -fsched-group-heuristic -fsched-interblock
  34              	@ -fsched-last-insn-heuristic -fsched-rank-heuristic -fsched-spec
  35              	@ -fsched-spec-insn-heuristic -fsched-stalled-insns-dep -fshow-column
  36              	@ -fsigned-zeros -fsplit-ivs-in-unroller -fstrict-volatile-bitfields
  37              	@ -ftrapping-math -ftree-cselim -ftree-forwprop -ftree-loop-if-convert
  38              	@ -ftree-loop-im -ftree-loop-ivcanon -ftree-loop-optimize
  39              	@ -ftree-parallelize-loops= -ftree-phiprop -ftree-pta -ftree-reassoc
  40              	@ -ftree-scev-cprop -ftree-slp-vectorize -ftree-vect-loop-version
  41              	@ -funit-at-a-time -fverbose-asm -fzero-initialized-in-bss -mlittle-endian
  42              	@ -msched-prolog -mthumb -mvectorize-with-neon-quad
  43              	
  44              		.text
  45              	.Ltext0:
  46              		.cfi_sections	.debug_frame
  47              		.section	.bss.buff,"aw",%nobits
  48              		.align	2
  49              		.type	buff, %object
  50              		.size	buff, 32
  51              	buff:
  52 0000 00000000 		.space	32
  52      00000000 
  52      00000000 
  52      00000000 
  52      00000000 
  53              		.section	.rodata.hex_chars,"a",%progbits
ARM GAS  /tmp/ccZ1pKfK.s 			page 2


  54              		.align	2
  55              		.type	hex_chars, %object
  56              		.size	hex_chars, 17
  57              	hex_chars:
  58 0000 30313233 		.ascii	"0123456789ABCDEF\000"
  58      34353637 
  58      38394142 
  58      43444546 
  58      00
  59              		.global	__aeabi_uidivmod
  60              		.global	__aeabi_uidiv
  61 0011 000000   		.section	.text.print_uint,"ax",%progbits
  62              		.align	2
  63              		.global	print_uint
  64              		.code	16
  65              		.thumb_func
  66              		.type	print_uint, %function
  67              	print_uint:
  68              	.LFB0:
  69              		.file 1 "nonstdio.c"
   1:nonstdio.c    **** //////////////////////////////////////////////////////////////////////////////
   2:nonstdio.c    **** ///
   3:nonstdio.c    **** ///  @file nonstdio.c
   4:nonstdio.c    **** ///
   5:nonstdio.c    **** ///  copyright (c) 2013 William R Cooke
   6:nonstdio.c    **** ///
   7:nonstdio.c    **** //////////////////////////////////////////////////////////////////////////////
   8:nonstdio.c    **** #include <stdint.h>
   9:nonstdio.c    **** #include "nonstdio.h"
  10:nonstdio.c    **** 
  11:nonstdio.c    **** #define buff_size 32
  12:nonstdio.c    **** 
  13:nonstdio.c    **** static uint8_t buff[buff_size];
  14:nonstdio.c    **** static const uint8_t hex_chars[] = "0123456789ABCDEF";
  15:nonstdio.c    **** 
  16:nonstdio.c    **** void print_uint(uint32_t num)
  17:nonstdio.c    **** {
  70              		.loc 1 17 0
  71              		.cfi_startproc
  72 0000 80B5     		push	{r7, lr}	@
  73              	.LCFI0:
  74              		.cfi_def_cfa_offset 8
  75              		.cfi_offset 7, -8
  76              		.cfi_offset 14, -4
  77 0002 84B0     		sub	sp, sp, #16	@,,
  78              	.LCFI1:
  79              		.cfi_def_cfa_offset 24
  80 0004 00AF     		add	r7, sp, #0	@,,
  81              	.LCFI2:
  82              		.cfi_def_cfa_register 7
  83 0006 7860     		str	r0, [r7, #4]	@ num, num
  18:nonstdio.c    ****    uint8_t *next = &(buff[buff_size-1]);
  84              		.loc 1 18 0
  85 0008 114B     		ldr	r3, .L3	@ tmp136,
  86 000a FB60     		str	r3, [r7, #12]	@ tmp136, next
  19:nonstdio.c    ****    *next = 0;
  87              		.loc 1 19 0
ARM GAS  /tmp/ccZ1pKfK.s 			page 3


  88 000c FB68     		ldr	r3, [r7, #12]	@ tmp137, next
  89 000e 0022     		mov	r2, #0	@ tmp138,
  90 0010 1A70     		strb	r2, [r3]	@ tmp139, *next_3
  91              	.L2:
  20:nonstdio.c    ****    do
  21:nonstdio.c    ****    {
  22:nonstdio.c    ****       --next;
  92              		.loc 1 22 0 discriminator 1
  93 0012 FB68     		ldr	r3, [r7, #12]	@ tmp141, next
  94 0014 013B     		sub	r3, r3, #1	@ tmp140,
  95 0016 FB60     		str	r3, [r7, #12]	@ tmp140, next
  23:nonstdio.c    ****       *next = hex_chars[num % 10];
  96              		.loc 1 23 0 discriminator 1
  97 0018 7B68     		ldr	r3, [r7, #4]	@ tmp142, num
  98 001a 181C     		mov	r0, r3	@, tmp142
  99 001c 0A21     		mov	r1, #10	@,
 100 001e FFF7FEFF 		bl	__aeabi_uidivmod	@
 101 0022 0B1C     		mov	r3, r1	@ tmp147,
 102 0024 0B4A     		ldr	r2, .L3+4	@ tmp148,
 103 0026 D25C     		ldrb	r2, [r2, r3]	@ D.4178,* D.4177
 104 0028 FB68     		ldr	r3, [r7, #12]	@ tmp149, next
 105 002a 1A70     		strb	r2, [r3]	@ tmp150, *next_5
  24:nonstdio.c    ****       num /= 10;
 106              		.loc 1 24 0 discriminator 1
 107 002c 7B68     		ldr	r3, [r7, #4]	@ tmp152, num
 108 002e 181C     		mov	r0, r3	@, tmp152
 109 0030 0A21     		mov	r1, #10	@,
 110 0032 FFF7FEFF 		bl	__aeabi_uidiv	@
 111 0036 031C     		mov	r3, r0	@ tmp155,
 112 0038 7B60     		str	r3, [r7, #4]	@ tmp155, num
  25:nonstdio.c    ****    } while (num != 0);
 113              		.loc 1 25 0 discriminator 1
 114 003a 7B68     		ldr	r3, [r7, #4]	@ tmp156, num
 115 003c 002B     		cmp	r3, #0	@ tmp156,
 116 003e E8D1     		bne	.L2	@,
  26:nonstdio.c    ****    print_string(next);
 117              		.loc 1 26 0
 118 0040 FB68     		ldr	r3, [r7, #12]	@ tmp157, next
 119 0042 181C     		mov	r0, r3	@, tmp157
 120 0044 FFF7FEFF 		bl	print_string	@
  27:nonstdio.c    **** }
 121              		.loc 1 27 0
 122 0048 BD46     		mov	sp, r7	@,
 123 004a 04B0     		add	sp, sp, #16	@,,
 124              		@ sp needed for prologue	@
 125 004c 80BD     		pop	{r7, pc}
 126              	.L4:
 127 004e C046     		.align	2
 128              	.L3:
 129 0050 1F000000 		.word	buff+31
 130 0054 00000000 		.word	hex_chars
 131              		.cfi_endproc
 132              	.LFE0:
 133              		.size	print_uint, .-print_uint
 134              		.section	.text.print_int,"ax",%progbits
 135              		.align	2
 136              		.global	print_int
ARM GAS  /tmp/ccZ1pKfK.s 			page 4


 137              		.code	16
 138              		.thumb_func
 139              		.type	print_int, %function
 140              	print_int:
 141              	.LFB1:
  28:nonstdio.c    **** 
  29:nonstdio.c    **** void print_int(int32_t num)
  30:nonstdio.c    **** {
 142              		.loc 1 30 0
 143              		.cfi_startproc
 144 0000 80B5     		push	{r7, lr}	@
 145              	.LCFI3:
 146              		.cfi_def_cfa_offset 8
 147              		.cfi_offset 7, -8
 148              		.cfi_offset 14, -4
 149 0002 82B0     		sub	sp, sp, #8	@,,
 150              	.LCFI4:
 151              		.cfi_def_cfa_offset 16
 152 0004 00AF     		add	r7, sp, #0	@,,
 153              	.LCFI5:
 154              		.cfi_def_cfa_register 7
 155 0006 7860     		str	r0, [r7, #4]	@ num, num
  31:nonstdio.c    ****    if (num < 0)
 156              		.loc 1 31 0
 157 0008 7B68     		ldr	r3, [r7, #4]	@ tmp135, num
 158 000a 002B     		cmp	r3, #0	@ tmp135,
 159 000c 05DA     		bge	.L6	@,
  32:nonstdio.c    ****    {
  33:nonstdio.c    ****       print_char('-');
 160              		.loc 1 33 0
 161 000e 2D20     		mov	r0, #45	@,
 162 0010 FFF7FEFF 		bl	print_char	@
  34:nonstdio.c    ****       num = -num;
 163              		.loc 1 34 0
 164 0014 7B68     		ldr	r3, [r7, #4]	@ tmp137, num
 165 0016 5B42     		neg	r3, r3	@ tmp136, tmp137
 166 0018 7B60     		str	r3, [r7, #4]	@ tmp136, num
 167              	.L6:
  35:nonstdio.c    ****    }
  36:nonstdio.c    ****    print_uint(num);
 168              		.loc 1 36 0
 169 001a 7B68     		ldr	r3, [r7, #4]	@ num.0, num
 170 001c 181C     		mov	r0, r3	@, num.0
 171 001e FFF7FEFF 		bl	print_uint	@
  37:nonstdio.c    **** }
 172              		.loc 1 37 0
 173 0022 BD46     		mov	sp, r7	@,
 174 0024 02B0     		add	sp, sp, #8	@,,
 175              		@ sp needed for prologue	@
 176 0026 80BD     		pop	{r7, pc}
 177              		.cfi_endproc
 178              	.LFE1:
 179              		.size	print_int, .-print_int
 180              		.section	.text.print_char,"ax",%progbits
 181              		.align	2
 182              		.global	print_char
 183              		.code	16
ARM GAS  /tmp/ccZ1pKfK.s 			page 5


 184              		.thumb_func
 185              		.type	print_char, %function
 186              	print_char:
 187              	.LFB2:
  38:nonstdio.c    **** 
  39:nonstdio.c    **** void print_char(uint8_t ch)
  40:nonstdio.c    **** {
 188              		.loc 1 40 0
 189              		.cfi_startproc
 190 0000 80B5     		push	{r7, lr}	@
 191              	.LCFI6:
 192              		.cfi_def_cfa_offset 8
 193              		.cfi_offset 7, -8
 194              		.cfi_offset 14, -4
 195 0002 82B0     		sub	sp, sp, #8	@,,
 196              	.LCFI7:
 197              		.cfi_def_cfa_offset 16
 198 0004 00AF     		add	r7, sp, #0	@,,
 199              	.LCFI8:
 200              		.cfi_def_cfa_register 7
 201 0006 021C     		mov	r2, r0	@ tmp135, ch
 202 0008 FB1D     		add	r3, r7, #7	@ tmp136,,
 203 000a 1A70     		strb	r2, [r3]	@ tmp137, ch
  41:nonstdio.c    ****    serial_send(ch);
 204              		.loc 1 41 0
 205 000c FB1D     		add	r3, r7, #7	@ tmp138,,
 206 000e 1B78     		ldrb	r3, [r3]	@ D.4173, ch
 207 0010 181C     		mov	r0, r3	@, D.4173
 208 0012 FFF7FEFF 		bl	serial_send	@
  42:nonstdio.c    **** }
 209              		.loc 1 42 0
 210 0016 BD46     		mov	sp, r7	@,
 211 0018 02B0     		add	sp, sp, #8	@,,
 212              		@ sp needed for prologue	@
 213 001a 80BD     		pop	{r7, pc}
 214              		.cfi_endproc
 215              	.LFE2:
 216              		.size	print_char, .-print_char
 217              		.section	.text.print_string,"ax",%progbits
 218              		.align	2
 219              		.global	print_string
 220              		.code	16
 221              		.thumb_func
 222              		.type	print_string, %function
 223              	print_string:
 224              	.LFB3:
  43:nonstdio.c    **** 
  44:nonstdio.c    **** void print_string(uint8_t *str)
  45:nonstdio.c    **** {
 225              		.loc 1 45 0
 226              		.cfi_startproc
 227 0000 80B5     		push	{r7, lr}	@
 228              	.LCFI9:
 229              		.cfi_def_cfa_offset 8
 230              		.cfi_offset 7, -8
 231              		.cfi_offset 14, -4
 232 0002 84B0     		sub	sp, sp, #16	@,,
ARM GAS  /tmp/ccZ1pKfK.s 			page 6


 233              	.LCFI10:
 234              		.cfi_def_cfa_offset 24
 235 0004 00AF     		add	r7, sp, #0	@,,
 236              	.LCFI11:
 237              		.cfi_def_cfa_register 7
 238 0006 7860     		str	r0, [r7, #4]	@ str, str
  46:nonstdio.c    ****    uint8_t ch;
  47:nonstdio.c    ****    while ((ch=*str) != 0)
 239              		.loc 1 47 0
 240 0008 08E0     		b	.L9	@
 241              	.L10:
 242              	.LBB2:
  48:nonstdio.c    ****    {
  49:nonstdio.c    ****       serial_send(ch);
 243              		.loc 1 49 0
 244 000a 3B1C     		mov	r3, r7	@ tmp135,
 245 000c 0F33     		add	r3, r3, #15	@ tmp135,
 246 000e 1B78     		ldrb	r3, [r3]	@ D.4172, ch
 247 0010 181C     		mov	r0, r3	@, D.4172
 248 0012 FFF7FEFF 		bl	serial_send	@
  50:nonstdio.c    ****       str++;
 249              		.loc 1 50 0
 250 0016 7B68     		ldr	r3, [r7, #4]	@ tmp137, str
 251 0018 0133     		add	r3, r3, #1	@ tmp136,
 252 001a 7B60     		str	r3, [r7, #4]	@ tmp136, str
 253              	.L9:
 254              	.LBE2:
  47:nonstdio.c    ****    while ((ch=*str) != 0)
 255              		.loc 1 47 0 discriminator 1
 256 001c 3B1C     		mov	r3, r7	@ tmp138,
 257 001e 0F33     		add	r3, r3, #15	@ tmp138,
 258 0020 7A68     		ldr	r2, [r7, #4]	@ tmp139, str
 259 0022 1278     		ldrb	r2, [r2]	@ tmp140, *str_1
 260 0024 1A70     		strb	r2, [r3]	@ tmp140, ch
 261 0026 3B1C     		mov	r3, r7	@ tmp141,
 262 0028 0F33     		add	r3, r3, #15	@ tmp141,
 263 002a 1B78     		ldrb	r3, [r3]	@ tmp142, ch
 264 002c 002B     		cmp	r3, #0	@ tmp142,
 265 002e ECD1     		bne	.L10	@,
  51:nonstdio.c    ****    }
  52:nonstdio.c    **** }
 266              		.loc 1 52 0
 267 0030 BD46     		mov	sp, r7	@,
 268 0032 04B0     		add	sp, sp, #16	@,,
 269              		@ sp needed for prologue	@
 270 0034 80BD     		pop	{r7, pc}
 271              		.cfi_endproc
 272              	.LFE3:
 273              		.size	print_string, .-print_string
 274 0036 C046     		.section	.text.print_hex,"ax",%progbits
 275              		.align	2
 276              		.global	print_hex
 277              		.code	16
 278              		.thumb_func
 279              		.type	print_hex, %function
 280              	print_hex:
 281              	.LFB4:
ARM GAS  /tmp/ccZ1pKfK.s 			page 7


  53:nonstdio.c    **** 
  54:nonstdio.c    **** void print_hex(uint32_t num)
  55:nonstdio.c    **** {
 282              		.loc 1 55 0
 283              		.cfi_startproc
 284 0000 80B5     		push	{r7, lr}	@
 285              	.LCFI12:
 286              		.cfi_def_cfa_offset 8
 287              		.cfi_offset 7, -8
 288              		.cfi_offset 14, -4
 289 0002 84B0     		sub	sp, sp, #16	@,,
 290              	.LCFI13:
 291              		.cfi_def_cfa_offset 24
 292 0004 00AF     		add	r7, sp, #0	@,,
 293              	.LCFI14:
 294              		.cfi_def_cfa_register 7
 295 0006 7860     		str	r0, [r7, #4]	@ num, num
  56:nonstdio.c    ****    uint32_t cnt;
  57:nonstdio.c    ****    for (cnt = 0; cnt < 8; ++cnt)
 296              		.loc 1 57 0
 297 0008 0023     		mov	r3, #0	@ tmp137,
 298 000a FB60     		str	r3, [r7, #12]	@ tmp137, cnt
 299 000c 0FE0     		b	.L12	@
 300              	.L13:
  58:nonstdio.c    ****    {
  59:nonstdio.c    ****       buff[buff_size - 2 - cnt] = hex_chars[num & 0xf];
 301              		.loc 1 59 0 discriminator 2
 302 000e FB68     		ldr	r3, [r7, #12]	@ tmp138, cnt
 303 0010 1E22     		mov	r2, #30	@ tmp139,
 304 0012 D31A     		sub	r3, r2, r3	@ D.4169, tmp139, tmp138
 305 0014 7968     		ldr	r1, [r7, #4]	@ tmp140, num
 306 0016 0F22     		mov	r2, #15	@ tmp141,
 307 0018 0A40     		and	r2, r1	@ D.4170, tmp140
 308 001a 0B49     		ldr	r1, .L14	@ tmp142,
 309 001c 895C     		ldrb	r1, [r1, r2]	@ D.4171,* D.4170
 310 001e 0B4A     		ldr	r2, .L14+4	@ tmp143,
 311 0020 D154     		strb	r1, [r2, r3]	@ tmp144, buff
  60:nonstdio.c    ****       num >>= 4;
 312              		.loc 1 60 0 discriminator 2
 313 0022 7B68     		ldr	r3, [r7, #4]	@ tmp146, num
 314 0024 1B09     		lsr	r3, r3, #4	@ tmp145, tmp146,
 315 0026 7B60     		str	r3, [r7, #4]	@ tmp145, num
  57:nonstdio.c    ****    for (cnt = 0; cnt < 8; ++cnt)
 316              		.loc 1 57 0 discriminator 2
 317 0028 FB68     		ldr	r3, [r7, #12]	@ tmp148, cnt
 318 002a 0133     		add	r3, r3, #1	@ tmp147,
 319 002c FB60     		str	r3, [r7, #12]	@ tmp147, cnt
 320              	.L12:
  57:nonstdio.c    ****    for (cnt = 0; cnt < 8; ++cnt)
 321              		.loc 1 57 0 is_stmt 0 discriminator 1
 322 002e FB68     		ldr	r3, [r7, #12]	@ tmp149, cnt
 323 0030 072B     		cmp	r3, #7	@ tmp149,
 324 0032 ECD9     		bls	.L13	@,
  61:nonstdio.c    ****    }
  62:nonstdio.c    ****    buff[buff_size - 1] = 0;
 325              		.loc 1 62 0 is_stmt 1
 326 0034 054B     		ldr	r3, .L14+4	@ tmp150,
ARM GAS  /tmp/ccZ1pKfK.s 			page 8


 327 0036 0022     		mov	r2, #0	@ tmp151,
 328 0038 DA77     		strb	r2, [r3, #31]	@ tmp152, buff
  63:nonstdio.c    ****    print_string (&(buff[buff_size - 2 - 7]));
 329              		.loc 1 63 0
 330 003a 054B     		ldr	r3, .L14+8	@ tmp153,
 331 003c 181C     		mov	r0, r3	@, tmp153
 332 003e FFF7FEFF 		bl	print_string	@
  64:nonstdio.c    **** }
 333              		.loc 1 64 0
 334 0042 BD46     		mov	sp, r7	@,
 335 0044 04B0     		add	sp, sp, #16	@,,
 336              		@ sp needed for prologue	@
 337 0046 80BD     		pop	{r7, pc}
 338              	.L15:
 339              		.align	2
 340              	.L14:
 341 0048 00000000 		.word	hex_chars
 342 004c 00000000 		.word	buff
 343 0050 17000000 		.word	buff+23
 344              		.cfi_endproc
 345              	.LFE4:
 346              		.size	print_hex, .-print_hex
 347              		.section	.text.print_newline,"ax",%progbits
 348              		.align	2
 349              		.global	print_newline
 350              		.code	16
 351              		.thumb_func
 352              		.type	print_newline, %function
 353              	print_newline:
 354              	.LFB5:
  65:nonstdio.c    **** 
  66:nonstdio.c    **** void print_newline(void)
  67:nonstdio.c    **** {
 355              		.loc 1 67 0
 356              		.cfi_startproc
 357 0000 80B5     		push	{r7, lr}	@
 358              	.LCFI15:
 359              		.cfi_def_cfa_offset 8
 360              		.cfi_offset 7, -8
 361              		.cfi_offset 14, -4
 362 0002 00AF     		add	r7, sp, #0	@,,
 363              	.LCFI16:
 364              		.cfi_def_cfa_register 7
  68:nonstdio.c    ****    serial_send(13);
 365              		.loc 1 68 0
 366 0004 0D20     		mov	r0, #13	@,
 367 0006 FFF7FEFF 		bl	serial_send	@
  69:nonstdio.c    ****    serial_send(10);
 368              		.loc 1 69 0
 369 000a 0A20     		mov	r0, #10	@,
 370 000c FFF7FEFF 		bl	serial_send	@
  70:nonstdio.c    **** }
 371              		.loc 1 70 0
 372 0010 BD46     		mov	sp, r7	@,
 373              		@ sp needed for prologue	@
 374 0012 80BD     		pop	{r7, pc}
 375              		.cfi_endproc
ARM GAS  /tmp/ccZ1pKfK.s 			page 9


 376              	.LFE5:
 377              		.size	print_newline, .-print_newline
 378              		.section	.text.read_char,"ax",%progbits
 379              		.align	2
 380              		.global	read_char
 381              		.code	16
 382              		.thumb_func
 383              		.type	read_char, %function
 384              	read_char:
 385              	.LFB6:
  71:nonstdio.c    **** 
  72:nonstdio.c    **** uint8_t read_char()
  73:nonstdio.c    **** {
 386              		.loc 1 73 0
 387              		.cfi_startproc
 388 0000 80B5     		push	{r7, lr}	@
 389              	.LCFI17:
 390              		.cfi_def_cfa_offset 8
 391              		.cfi_offset 7, -8
 392              		.cfi_offset 14, -4
 393 0002 00AF     		add	r7, sp, #0	@,,
 394              	.LCFI18:
 395              		.cfi_def_cfa_register 7
  74:nonstdio.c    ****    return serial_receive();
 396              		.loc 1 74 0
 397 0004 FFF7FEFF 		bl	serial_receive	@
 398 0008 031C     		mov	r3, r0	@ D.4167,
 399 000a DBB2     		uxtb	r3, r3	@ D.4166, D.4167
  75:nonstdio.c    **** }
 400              		.loc 1 75 0
 401 000c 181C     		mov	r0, r3	@, <retval>
 402 000e BD46     		mov	sp, r7	@,
 403              		@ sp needed for prologue	@
 404 0010 80BD     		pop	{r7, pc}
 405              		.cfi_endproc
 406              	.LFE6:
 407              		.size	read_char, .-read_char
 408 0012 C046     		.section	.text.read_line,"ax",%progbits
 409              		.align	2
 410              		.global	read_line
 411              		.code	16
 412              		.thumb_func
 413              		.type	read_line, %function
 414              	read_line:
 415              	.LFB7:
  76:nonstdio.c    **** 
  77:nonstdio.c    **** int32_t read_line(uint8_t *str, uint32_t len)
  78:nonstdio.c    **** {
 416              		.loc 1 78 0
 417              		.cfi_startproc
 418 0000 80B5     		push	{r7, lr}	@
 419              	.LCFI19:
 420              		.cfi_def_cfa_offset 8
 421              		.cfi_offset 7, -8
 422              		.cfi_offset 14, -4
 423 0002 82B0     		sub	sp, sp, #8	@,,
 424              	.LCFI20:
ARM GAS  /tmp/ccZ1pKfK.s 			page 10


 425              		.cfi_def_cfa_offset 16
 426 0004 00AF     		add	r7, sp, #0	@,,
 427              	.LCFI21:
 428              		.cfi_def_cfa_register 7
 429 0006 7860     		str	r0, [r7, #4]	@ str, str
 430 0008 3960     		str	r1, [r7]	@ len, len
  79:nonstdio.c    ****    return 0;
 431              		.loc 1 79 0
 432 000a 0023     		mov	r3, #0	@ D.4164,
  80:nonstdio.c    **** }
 433              		.loc 1 80 0
 434 000c 181C     		mov	r0, r3	@, <retval>
 435 000e BD46     		mov	sp, r7	@,
 436 0010 02B0     		add	sp, sp, #8	@,,
 437              		@ sp needed for prologue	@
 438 0012 80BD     		pop	{r7, pc}
 439              		.cfi_endproc
 440              	.LFE7:
 441              		.size	read_line, .-read_line
 442              		.section	.text.read_string,"ax",%progbits
 443              		.align	2
 444              		.global	read_string
 445              		.code	16
 446              		.thumb_func
 447              		.type	read_string, %function
 448              	read_string:
 449              	.LFB8:
  81:nonstdio.c    **** 
  82:nonstdio.c    **** int32_t read_string(uint8_t *str, uint32_t len)
  83:nonstdio.c    **** {
 450              		.loc 1 83 0
 451              		.cfi_startproc
 452 0000 80B5     		push	{r7, lr}	@
 453              	.LCFI22:
 454              		.cfi_def_cfa_offset 8
 455              		.cfi_offset 7, -8
 456              		.cfi_offset 14, -4
 457 0002 82B0     		sub	sp, sp, #8	@,,
 458              	.LCFI23:
 459              		.cfi_def_cfa_offset 16
 460 0004 00AF     		add	r7, sp, #0	@,,
 461              	.LCFI24:
 462              		.cfi_def_cfa_register 7
 463 0006 7860     		str	r0, [r7, #4]	@ str, str
 464 0008 3960     		str	r1, [r7]	@ len, len
  84:nonstdio.c    ****    return 0;
 465              		.loc 1 84 0
 466 000a 0023     		mov	r3, #0	@ D.4162,
  85:nonstdio.c    **** }
 467              		.loc 1 85 0
 468 000c 181C     		mov	r0, r3	@, <retval>
 469 000e BD46     		mov	sp, r7	@,
 470 0010 02B0     		add	sp, sp, #8	@,,
 471              		@ sp needed for prologue	@
 472 0012 80BD     		pop	{r7, pc}
 473              		.cfi_endproc
 474              	.LFE8:
ARM GAS  /tmp/ccZ1pKfK.s 			page 11


 475              		.size	read_string, .-read_string
 476              		.section	.text.unread_char,"ax",%progbits
 477              		.align	2
 478              		.global	unread_char
 479              		.code	16
 480              		.thumb_func
 481              		.type	unread_char, %function
 482              	unread_char:
 483              	.LFB9:
  86:nonstdio.c    **** 
  87:nonstdio.c    **** void unread_char(uint8_t ch)
  88:nonstdio.c    **** {
 484              		.loc 1 88 0
 485              		.cfi_startproc
 486 0000 80B5     		push	{r7, lr}	@
 487              	.LCFI25:
 488              		.cfi_def_cfa_offset 8
 489              		.cfi_offset 7, -8
 490              		.cfi_offset 14, -4
 491 0002 82B0     		sub	sp, sp, #8	@,,
 492              	.LCFI26:
 493              		.cfi_def_cfa_offset 16
 494 0004 00AF     		add	r7, sp, #0	@,,
 495              	.LCFI27:
 496              		.cfi_def_cfa_register 7
 497 0006 021C     		mov	r2, r0	@ tmp134, ch
 498 0008 FB1D     		add	r3, r7, #7	@ tmp135,,
 499 000a 1A70     		strb	r2, [r3]	@ tmp136, ch
  89:nonstdio.c    **** }
 500              		.loc 1 89 0
 501 000c BD46     		mov	sp, r7	@,
 502 000e 02B0     		add	sp, sp, #8	@,,
 503              		@ sp needed for prologue	@
 504 0010 80BD     		pop	{r7, pc}
 505              		.cfi_endproc
 506              	.LFE9:
 507              		.size	unread_char, .-unread_char
 508 0012 C046     		.section	.text.set_io_functions,"ax",%progbits
 509              		.align	2
 510              		.global	set_io_functions
 511              		.code	16
 512              		.thumb_func
 513              		.type	set_io_functions, %function
 514              	set_io_functions:
 515              	.LFB10:
  90:nonstdio.c    **** 
  91:nonstdio.c    **** void set_io_functions(void)
  92:nonstdio.c    **** {
 516              		.loc 1 92 0
 517              		.cfi_startproc
 518 0000 80B5     		push	{r7, lr}	@
 519              	.LCFI28:
 520              		.cfi_def_cfa_offset 8
 521              		.cfi_offset 7, -8
 522              		.cfi_offset 14, -4
 523 0002 00AF     		add	r7, sp, #0	@,,
 524              	.LCFI29:
ARM GAS  /tmp/ccZ1pKfK.s 			page 12


 525              		.cfi_def_cfa_register 7
  93:nonstdio.c    **** }
 526              		.loc 1 93 0
 527 0004 BD46     		mov	sp, r7	@,
 528              		@ sp needed for prologue	@
 529 0006 80BD     		pop	{r7, pc}
 530              		.cfi_endproc
 531              	.LFE10:
 532              		.size	set_io_functions, .-set_io_functions
 533              		.text
 534              	.Letext0:
 535              		.file 2 "/opt/gcc-arm-none-eabi-4_7-2013q2/bin/../lib/gcc/arm-none-eabi/4.7.4/../../../../arm-none
 536              		.section	.debug_info,"",%progbits
 537              	.Ldebug_info0:
 538 0000 0E030000 		.4byte	0x30e
 539 0004 0200     		.2byte	0x2
 540 0006 00000000 		.4byte	.Ldebug_abbrev0
 541 000a 04       		.byte	0x4
 542 000b 01       		.uleb128 0x1
 543 000c 16120000 		.4byte	.LASF28
 544 0010 01       		.byte	0x1
 545 0011 22110000 		.4byte	.LASF29
 546 0015 4A2D0000 		.4byte	.LASF30
 547 0019 00000000 		.4byte	.Ldebug_ranges0+0
 548 001d 00000000 		.4byte	0
 549 0021 00000000 		.4byte	0
 550 0025 00000000 		.4byte	.Ldebug_line0
 551 0029 00000000 		.4byte	.Ldebug_macro0
 552 002d 02       		.uleb128 0x2
 553 002e 01       		.byte	0x1
 554 002f 06       		.byte	0x6
 555 0030 2E090000 		.4byte	.LASF0
 556 0034 03       		.uleb128 0x3
 557 0035 71140000 		.4byte	.LASF4
 558 0039 02       		.byte	0x2
 559 003a 2A       		.byte	0x2a
 560 003b 3F000000 		.4byte	0x3f
 561 003f 02       		.uleb128 0x2
 562 0040 01       		.byte	0x1
 563 0041 08       		.byte	0x8
 564 0042 00280000 		.4byte	.LASF1
 565 0046 02       		.uleb128 0x2
 566 0047 02       		.byte	0x2
 567 0048 05       		.byte	0x5
 568 0049 F21F0000 		.4byte	.LASF2
 569 004d 02       		.uleb128 0x2
 570 004e 02       		.byte	0x2
 571 004f 07       		.byte	0x7
 572 0050 872B0000 		.4byte	.LASF3
 573 0054 03       		.uleb128 0x3
 574 0055 80260000 		.4byte	.LASF5
 575 0059 02       		.byte	0x2
 576 005a 4F       		.byte	0x4f
 577 005b 5F000000 		.4byte	0x5f
 578 005f 02       		.uleb128 0x2
 579 0060 04       		.byte	0x4
 580 0061 05       		.byte	0x5
ARM GAS  /tmp/ccZ1pKfK.s 			page 13


 581 0062 7F200000 		.4byte	.LASF6
 582 0066 03       		.uleb128 0x3
 583 0067 6C090000 		.4byte	.LASF7
 584 006b 02       		.byte	0x2
 585 006c 50       		.byte	0x50
 586 006d 71000000 		.4byte	0x71
 587 0071 02       		.uleb128 0x2
 588 0072 04       		.byte	0x4
 589 0073 07       		.byte	0x7
 590 0074 9E250000 		.4byte	.LASF8
 591 0078 02       		.uleb128 0x2
 592 0079 08       		.byte	0x8
 593 007a 05       		.byte	0x5
 594 007b 4D160000 		.4byte	.LASF9
 595 007f 02       		.uleb128 0x2
 596 0080 08       		.byte	0x8
 597 0081 07       		.byte	0x7
 598 0082 290B0000 		.4byte	.LASF10
 599 0086 04       		.uleb128 0x4
 600 0087 04       		.byte	0x4
 601 0088 05       		.byte	0x5
 602 0089 696E7400 		.ascii	"int\000"
 603 008d 02       		.uleb128 0x2
 604 008e 04       		.byte	0x4
 605 008f 07       		.byte	0x7
 606 0090 D9030000 		.4byte	.LASF11
 607 0094 05       		.uleb128 0x5
 608 0095 01       		.byte	0x1
 609 0096 241C0000 		.4byte	.LASF12
 610 009a 01       		.byte	0x1
 611 009b 10       		.byte	0x10
 612 009c 01       		.byte	0x1
 613 009d 00000000 		.4byte	.LFB0
 614 00a1 58000000 		.4byte	.LFE0
 615 00a5 00000000 		.4byte	.LLST0
 616 00a9 01       		.byte	0x1
 617 00aa CB000000 		.4byte	0xcb
 618 00ae 06       		.uleb128 0x6
 619 00af 6E756D00 		.ascii	"num\000"
 620 00b3 01       		.byte	0x1
 621 00b4 10       		.byte	0x10
 622 00b5 66000000 		.4byte	0x66
 623 00b9 02       		.byte	0x2
 624 00ba 91       		.byte	0x91
 625 00bb 6C       		.sleb128 -20
 626 00bc 07       		.uleb128 0x7
 627 00bd E6030000 		.4byte	.LASF16
 628 00c1 01       		.byte	0x1
 629 00c2 12       		.byte	0x12
 630 00c3 CB000000 		.4byte	0xcb
 631 00c7 02       		.byte	0x2
 632 00c8 91       		.byte	0x91
 633 00c9 74       		.sleb128 -12
 634 00ca 00       		.byte	0
 635 00cb 08       		.uleb128 0x8
 636 00cc 04       		.byte	0x4
 637 00cd 34000000 		.4byte	0x34
ARM GAS  /tmp/ccZ1pKfK.s 			page 14


 638 00d1 05       		.uleb128 0x5
 639 00d2 01       		.byte	0x1
 640 00d3 D0190000 		.4byte	.LASF13
 641 00d7 01       		.byte	0x1
 642 00d8 1D       		.byte	0x1d
 643 00d9 01       		.byte	0x1
 644 00da 00000000 		.4byte	.LFB1
 645 00de 28000000 		.4byte	.LFE1
 646 00e2 38000000 		.4byte	.LLST1
 647 00e6 01       		.byte	0x1
 648 00e7 FA000000 		.4byte	0xfa
 649 00eb 06       		.uleb128 0x6
 650 00ec 6E756D00 		.ascii	"num\000"
 651 00f0 01       		.byte	0x1
 652 00f1 1D       		.byte	0x1d
 653 00f2 54000000 		.4byte	0x54
 654 00f6 02       		.byte	0x2
 655 00f7 91       		.byte	0x91
 656 00f8 74       		.sleb128 -12
 657 00f9 00       		.byte	0
 658 00fa 05       		.uleb128 0x5
 659 00fb 01       		.byte	0x1
 660 00fc A62D0000 		.4byte	.LASF14
 661 0100 01       		.byte	0x1
 662 0101 27       		.byte	0x27
 663 0102 01       		.byte	0x1
 664 0103 00000000 		.4byte	.LFB2
 665 0107 1C000000 		.4byte	.LFE2
 666 010b 70000000 		.4byte	.LLST2
 667 010f 01       		.byte	0x1
 668 0110 31010000 		.4byte	0x131
 669 0114 06       		.uleb128 0x6
 670 0115 636800   		.ascii	"ch\000"
 671 0118 01       		.byte	0x1
 672 0119 27       		.byte	0x27
 673 011a 34000000 		.4byte	0x34
 674 011e 02       		.byte	0x2
 675 011f 91       		.byte	0x91
 676 0120 77       		.sleb128 -9
 677 0121 09       		.uleb128 0x9
 678 0122 01       		.byte	0x1
 679 0123 D6000000 		.4byte	.LASF17
 680 0127 01       		.byte	0x1
 681 0128 29       		.byte	0x29
 682 0129 86000000 		.4byte	0x86
 683 012d 01       		.byte	0x1
 684 012e 0A       		.uleb128 0xa
 685 012f 00       		.byte	0
 686 0130 00       		.byte	0
 687 0131 05       		.uleb128 0x5
 688 0132 01       		.byte	0x1
 689 0133 33070000 		.4byte	.LASF15
 690 0137 01       		.byte	0x1
 691 0138 2C       		.byte	0x2c
 692 0139 01       		.byte	0x1
 693 013a 00000000 		.4byte	.LFB3
 694 013e 36000000 		.4byte	.LFE3
ARM GAS  /tmp/ccZ1pKfK.s 			page 15


 695 0142 A8000000 		.4byte	.LLST3
 696 0146 01       		.byte	0x1
 697 0147 80010000 		.4byte	0x180
 698 014b 06       		.uleb128 0x6
 699 014c 73747200 		.ascii	"str\000"
 700 0150 01       		.byte	0x1
 701 0151 2C       		.byte	0x2c
 702 0152 CB000000 		.4byte	0xcb
 703 0156 02       		.byte	0x2
 704 0157 91       		.byte	0x91
 705 0158 6C       		.sleb128 -20
 706 0159 0B       		.uleb128 0xb
 707 015a 636800   		.ascii	"ch\000"
 708 015d 01       		.byte	0x1
 709 015e 2E       		.byte	0x2e
 710 015f 34000000 		.4byte	0x34
 711 0163 02       		.byte	0x2
 712 0164 91       		.byte	0x91
 713 0165 77       		.sleb128 -9
 714 0166 0C       		.uleb128 0xc
 715 0167 0A000000 		.4byte	.LBB2
 716 016b 1C000000 		.4byte	.LBE2
 717 016f 09       		.uleb128 0x9
 718 0170 01       		.byte	0x1
 719 0171 D6000000 		.4byte	.LASF17
 720 0175 01       		.byte	0x1
 721 0176 29       		.byte	0x29
 722 0177 86000000 		.4byte	0x86
 723 017b 01       		.byte	0x1
 724 017c 0A       		.uleb128 0xa
 725 017d 00       		.byte	0
 726 017e 00       		.byte	0
 727 017f 00       		.byte	0
 728 0180 05       		.uleb128 0x5
 729 0181 01       		.byte	0x1
 730 0182 EE1A0000 		.4byte	.LASF18
 731 0186 01       		.byte	0x1
 732 0187 36       		.byte	0x36
 733 0188 01       		.byte	0x1
 734 0189 00000000 		.4byte	.LFB4
 735 018d 54000000 		.4byte	.LFE4
 736 0191 E0000000 		.4byte	.LLST4
 737 0195 01       		.byte	0x1
 738 0196 B7010000 		.4byte	0x1b7
 739 019a 06       		.uleb128 0x6
 740 019b 6E756D00 		.ascii	"num\000"
 741 019f 01       		.byte	0x1
 742 01a0 36       		.byte	0x36
 743 01a1 66000000 		.4byte	0x66
 744 01a5 02       		.byte	0x2
 745 01a6 91       		.byte	0x91
 746 01a7 6C       		.sleb128 -20
 747 01a8 0B       		.uleb128 0xb
 748 01a9 636E7400 		.ascii	"cnt\000"
 749 01ad 01       		.byte	0x1
 750 01ae 38       		.byte	0x38
 751 01af 66000000 		.4byte	0x66
ARM GAS  /tmp/ccZ1pKfK.s 			page 16


 752 01b3 02       		.byte	0x2
 753 01b4 91       		.byte	0x91
 754 01b5 74       		.sleb128 -12
 755 01b6 00       		.byte	0
 756 01b7 05       		.uleb128 0x5
 757 01b8 01       		.byte	0x1
 758 01b9 821B0000 		.4byte	.LASF19
 759 01bd 01       		.byte	0x1
 760 01be 42       		.byte	0x42
 761 01bf 01       		.byte	0x1
 762 01c0 00000000 		.4byte	.LFB5
 763 01c4 14000000 		.4byte	.LFE5
 764 01c8 18010000 		.4byte	.LLST5
 765 01cc 01       		.byte	0x1
 766 01cd E1010000 		.4byte	0x1e1
 767 01d1 09       		.uleb128 0x9
 768 01d2 01       		.byte	0x1
 769 01d3 D6000000 		.4byte	.LASF17
 770 01d7 01       		.byte	0x1
 771 01d8 29       		.byte	0x29
 772 01d9 86000000 		.4byte	0x86
 773 01dd 01       		.byte	0x1
 774 01de 0A       		.uleb128 0xa
 775 01df 00       		.byte	0
 776 01e0 00       		.byte	0
 777 01e1 0D       		.uleb128 0xd
 778 01e2 01       		.byte	0x1
 779 01e3 DB2A0000 		.4byte	.LASF21
 780 01e7 01       		.byte	0x1
 781 01e8 48       		.byte	0x48
 782 01e9 01       		.byte	0x1
 783 01ea 34000000 		.4byte	0x34
 784 01ee 00000000 		.4byte	.LFB6
 785 01f2 12000000 		.4byte	.LFE6
 786 01f6 44010000 		.4byte	.LLST6
 787 01fa 01       		.byte	0x1
 788 01fb 0F020000 		.4byte	0x20f
 789 01ff 09       		.uleb128 0x9
 790 0200 01       		.byte	0x1
 791 0201 75150000 		.4byte	.LASF20
 792 0205 01       		.byte	0x1
 793 0206 4A       		.byte	0x4a
 794 0207 86000000 		.4byte	0x86
 795 020b 01       		.byte	0x1
 796 020c 0A       		.uleb128 0xa
 797 020d 00       		.byte	0
 798 020e 00       		.byte	0
 799 020f 0E       		.uleb128 0xe
 800 0210 01       		.byte	0x1
 801 0211 A7090000 		.4byte	.LASF22
 802 0215 01       		.byte	0x1
 803 0216 4D       		.byte	0x4d
 804 0217 01       		.byte	0x1
 805 0218 54000000 		.4byte	0x54
 806 021c 00000000 		.4byte	.LFB7
 807 0220 14000000 		.4byte	.LFE7
 808 0224 70010000 		.4byte	.LLST7
ARM GAS  /tmp/ccZ1pKfK.s 			page 17


 809 0228 01       		.byte	0x1
 810 0229 4A020000 		.4byte	0x24a
 811 022d 06       		.uleb128 0x6
 812 022e 73747200 		.ascii	"str\000"
 813 0232 01       		.byte	0x1
 814 0233 4D       		.byte	0x4d
 815 0234 CB000000 		.4byte	0xcb
 816 0238 02       		.byte	0x2
 817 0239 91       		.byte	0x91
 818 023a 74       		.sleb128 -12
 819 023b 06       		.uleb128 0x6
 820 023c 6C656E00 		.ascii	"len\000"
 821 0240 01       		.byte	0x1
 822 0241 4D       		.byte	0x4d
 823 0242 66000000 		.4byte	0x66
 824 0246 02       		.byte	0x2
 825 0247 91       		.byte	0x91
 826 0248 70       		.sleb128 -16
 827 0249 00       		.byte	0
 828 024a 0E       		.uleb128 0xe
 829 024b 01       		.byte	0x1
 830 024c EF010000 		.4byte	.LASF23
 831 0250 01       		.byte	0x1
 832 0251 52       		.byte	0x52
 833 0252 01       		.byte	0x1
 834 0253 54000000 		.4byte	0x54
 835 0257 00000000 		.4byte	.LFB8
 836 025b 14000000 		.4byte	.LFE8
 837 025f A8010000 		.4byte	.LLST8
 838 0263 01       		.byte	0x1
 839 0264 85020000 		.4byte	0x285
 840 0268 06       		.uleb128 0x6
 841 0269 73747200 		.ascii	"str\000"
 842 026d 01       		.byte	0x1
 843 026e 52       		.byte	0x52
 844 026f CB000000 		.4byte	0xcb
 845 0273 02       		.byte	0x2
 846 0274 91       		.byte	0x91
 847 0275 74       		.sleb128 -12
 848 0276 06       		.uleb128 0x6
 849 0277 6C656E00 		.ascii	"len\000"
 850 027b 01       		.byte	0x1
 851 027c 52       		.byte	0x52
 852 027d 66000000 		.4byte	0x66
 853 0281 02       		.byte	0x2
 854 0282 91       		.byte	0x91
 855 0283 70       		.sleb128 -16
 856 0284 00       		.byte	0
 857 0285 0F       		.uleb128 0xf
 858 0286 01       		.byte	0x1
 859 0287 44130000 		.4byte	.LASF24
 860 028b 01       		.byte	0x1
 861 028c 57       		.byte	0x57
 862 028d 01       		.byte	0x1
 863 028e 00000000 		.4byte	.LFB9
 864 0292 12000000 		.4byte	.LFE9
 865 0296 E0010000 		.4byte	.LLST9
ARM GAS  /tmp/ccZ1pKfK.s 			page 18


 866 029a 01       		.byte	0x1
 867 029b AD020000 		.4byte	0x2ad
 868 029f 06       		.uleb128 0x6
 869 02a0 636800   		.ascii	"ch\000"
 870 02a3 01       		.byte	0x1
 871 02a4 57       		.byte	0x57
 872 02a5 34000000 		.4byte	0x34
 873 02a9 02       		.byte	0x2
 874 02aa 91       		.byte	0x91
 875 02ab 77       		.sleb128 -9
 876 02ac 00       		.byte	0
 877 02ad 10       		.uleb128 0x10
 878 02ae 01       		.byte	0x1
 879 02af 88120000 		.4byte	.LASF31
 880 02b3 01       		.byte	0x1
 881 02b4 5B       		.byte	0x5b
 882 02b5 01       		.byte	0x1
 883 02b6 00000000 		.4byte	.LFB10
 884 02ba 08000000 		.4byte	.LFE10
 885 02be 18020000 		.4byte	.LLST10
 886 02c2 01       		.byte	0x1
 887 02c3 11       		.uleb128 0x11
 888 02c4 34000000 		.4byte	0x34
 889 02c8 D3020000 		.4byte	0x2d3
 890 02cc 12       		.uleb128 0x12
 891 02cd D3020000 		.4byte	0x2d3
 892 02d1 1F       		.byte	0x1f
 893 02d2 00       		.byte	0
 894 02d3 02       		.uleb128 0x2
 895 02d4 04       		.byte	0x4
 896 02d5 07       		.byte	0x7
 897 02d6 77250000 		.4byte	.LASF25
 898 02da 07       		.uleb128 0x7
 899 02db 550E0000 		.4byte	.LASF26
 900 02df 01       		.byte	0x1
 901 02e0 0D       		.byte	0xd
 902 02e1 C3020000 		.4byte	0x2c3
 903 02e5 05       		.byte	0x5
 904 02e6 03       		.byte	0x3
 905 02e7 00000000 		.4byte	buff
 906 02eb 11       		.uleb128 0x11
 907 02ec 34000000 		.4byte	0x34
 908 02f0 FB020000 		.4byte	0x2fb
 909 02f4 12       		.uleb128 0x12
 910 02f5 D3020000 		.4byte	0x2d3
 911 02f9 10       		.byte	0x10
 912 02fa 00       		.byte	0
 913 02fb 07       		.uleb128 0x7
 914 02fc FF0E0000 		.4byte	.LASF27
 915 0300 01       		.byte	0x1
 916 0301 0E       		.byte	0xe
 917 0302 0C030000 		.4byte	0x30c
 918 0306 05       		.byte	0x5
 919 0307 03       		.byte	0x3
 920 0308 00000000 		.4byte	hex_chars
 921 030c 13       		.uleb128 0x13
 922 030d EB020000 		.4byte	0x2eb
ARM GAS  /tmp/ccZ1pKfK.s 			page 19


 923 0311 00       		.byte	0
 924              		.section	.debug_abbrev,"",%progbits
 925              	.Ldebug_abbrev0:
 926 0000 01       		.uleb128 0x1
 927 0001 11       		.uleb128 0x11
 928 0002 01       		.byte	0x1
 929 0003 25       		.uleb128 0x25
 930 0004 0E       		.uleb128 0xe
 931 0005 13       		.uleb128 0x13
 932 0006 0B       		.uleb128 0xb
 933 0007 03       		.uleb128 0x3
 934 0008 0E       		.uleb128 0xe
 935 0009 1B       		.uleb128 0x1b
 936 000a 0E       		.uleb128 0xe
 937 000b 55       		.uleb128 0x55
 938 000c 06       		.uleb128 0x6
 939 000d 11       		.uleb128 0x11
 940 000e 01       		.uleb128 0x1
 941 000f 52       		.uleb128 0x52
 942 0010 01       		.uleb128 0x1
 943 0011 10       		.uleb128 0x10
 944 0012 06       		.uleb128 0x6
 945 0013 9942     		.uleb128 0x2119
 946 0015 06       		.uleb128 0x6
 947 0016 00       		.byte	0
 948 0017 00       		.byte	0
 949 0018 02       		.uleb128 0x2
 950 0019 24       		.uleb128 0x24
 951 001a 00       		.byte	0
 952 001b 0B       		.uleb128 0xb
 953 001c 0B       		.uleb128 0xb
 954 001d 3E       		.uleb128 0x3e
 955 001e 0B       		.uleb128 0xb
 956 001f 03       		.uleb128 0x3
 957 0020 0E       		.uleb128 0xe
 958 0021 00       		.byte	0
 959 0022 00       		.byte	0
 960 0023 03       		.uleb128 0x3
 961 0024 16       		.uleb128 0x16
 962 0025 00       		.byte	0
 963 0026 03       		.uleb128 0x3
 964 0027 0E       		.uleb128 0xe
 965 0028 3A       		.uleb128 0x3a
 966 0029 0B       		.uleb128 0xb
 967 002a 3B       		.uleb128 0x3b
 968 002b 0B       		.uleb128 0xb
 969 002c 49       		.uleb128 0x49
 970 002d 13       		.uleb128 0x13
 971 002e 00       		.byte	0
 972 002f 00       		.byte	0
 973 0030 04       		.uleb128 0x4
 974 0031 24       		.uleb128 0x24
 975 0032 00       		.byte	0
 976 0033 0B       		.uleb128 0xb
 977 0034 0B       		.uleb128 0xb
 978 0035 3E       		.uleb128 0x3e
 979 0036 0B       		.uleb128 0xb
ARM GAS  /tmp/ccZ1pKfK.s 			page 20


 980 0037 03       		.uleb128 0x3
 981 0038 08       		.uleb128 0x8
 982 0039 00       		.byte	0
 983 003a 00       		.byte	0
 984 003b 05       		.uleb128 0x5
 985 003c 2E       		.uleb128 0x2e
 986 003d 01       		.byte	0x1
 987 003e 3F       		.uleb128 0x3f
 988 003f 0C       		.uleb128 0xc
 989 0040 03       		.uleb128 0x3
 990 0041 0E       		.uleb128 0xe
 991 0042 3A       		.uleb128 0x3a
 992 0043 0B       		.uleb128 0xb
 993 0044 3B       		.uleb128 0x3b
 994 0045 0B       		.uleb128 0xb
 995 0046 27       		.uleb128 0x27
 996 0047 0C       		.uleb128 0xc
 997 0048 11       		.uleb128 0x11
 998 0049 01       		.uleb128 0x1
 999 004a 12       		.uleb128 0x12
 1000 004b 01       		.uleb128 0x1
 1001 004c 40       		.uleb128 0x40
 1002 004d 06       		.uleb128 0x6
 1003 004e 9642     		.uleb128 0x2116
 1004 0050 0C       		.uleb128 0xc
 1005 0051 01       		.uleb128 0x1
 1006 0052 13       		.uleb128 0x13
 1007 0053 00       		.byte	0
 1008 0054 00       		.byte	0
 1009 0055 06       		.uleb128 0x6
 1010 0056 05       		.uleb128 0x5
 1011 0057 00       		.byte	0
 1012 0058 03       		.uleb128 0x3
 1013 0059 08       		.uleb128 0x8
 1014 005a 3A       		.uleb128 0x3a
 1015 005b 0B       		.uleb128 0xb
 1016 005c 3B       		.uleb128 0x3b
 1017 005d 0B       		.uleb128 0xb
 1018 005e 49       		.uleb128 0x49
 1019 005f 13       		.uleb128 0x13
 1020 0060 02       		.uleb128 0x2
 1021 0061 0A       		.uleb128 0xa
 1022 0062 00       		.byte	0
 1023 0063 00       		.byte	0
 1024 0064 07       		.uleb128 0x7
 1025 0065 34       		.uleb128 0x34
 1026 0066 00       		.byte	0
 1027 0067 03       		.uleb128 0x3
 1028 0068 0E       		.uleb128 0xe
 1029 0069 3A       		.uleb128 0x3a
 1030 006a 0B       		.uleb128 0xb
 1031 006b 3B       		.uleb128 0x3b
 1032 006c 0B       		.uleb128 0xb
 1033 006d 49       		.uleb128 0x49
 1034 006e 13       		.uleb128 0x13
 1035 006f 02       		.uleb128 0x2
 1036 0070 0A       		.uleb128 0xa
ARM GAS  /tmp/ccZ1pKfK.s 			page 21


 1037 0071 00       		.byte	0
 1038 0072 00       		.byte	0
 1039 0073 08       		.uleb128 0x8
 1040 0074 0F       		.uleb128 0xf
 1041 0075 00       		.byte	0
 1042 0076 0B       		.uleb128 0xb
 1043 0077 0B       		.uleb128 0xb
 1044 0078 49       		.uleb128 0x49
 1045 0079 13       		.uleb128 0x13
 1046 007a 00       		.byte	0
 1047 007b 00       		.byte	0
 1048 007c 09       		.uleb128 0x9
 1049 007d 2E       		.uleb128 0x2e
 1050 007e 01       		.byte	0x1
 1051 007f 3F       		.uleb128 0x3f
 1052 0080 0C       		.uleb128 0xc
 1053 0081 03       		.uleb128 0x3
 1054 0082 0E       		.uleb128 0xe
 1055 0083 3A       		.uleb128 0x3a
 1056 0084 0B       		.uleb128 0xb
 1057 0085 3B       		.uleb128 0x3b
 1058 0086 0B       		.uleb128 0xb
 1059 0087 49       		.uleb128 0x49
 1060 0088 13       		.uleb128 0x13
 1061 0089 3C       		.uleb128 0x3c
 1062 008a 0C       		.uleb128 0xc
 1063 008b 00       		.byte	0
 1064 008c 00       		.byte	0
 1065 008d 0A       		.uleb128 0xa
 1066 008e 18       		.uleb128 0x18
 1067 008f 00       		.byte	0
 1068 0090 00       		.byte	0
 1069 0091 00       		.byte	0
 1070 0092 0B       		.uleb128 0xb
 1071 0093 34       		.uleb128 0x34
 1072 0094 00       		.byte	0
 1073 0095 03       		.uleb128 0x3
 1074 0096 08       		.uleb128 0x8
 1075 0097 3A       		.uleb128 0x3a
 1076 0098 0B       		.uleb128 0xb
 1077 0099 3B       		.uleb128 0x3b
 1078 009a 0B       		.uleb128 0xb
 1079 009b 49       		.uleb128 0x49
 1080 009c 13       		.uleb128 0x13
 1081 009d 02       		.uleb128 0x2
 1082 009e 0A       		.uleb128 0xa
 1083 009f 00       		.byte	0
 1084 00a0 00       		.byte	0
 1085 00a1 0C       		.uleb128 0xc
 1086 00a2 0B       		.uleb128 0xb
 1087 00a3 01       		.byte	0x1
 1088 00a4 11       		.uleb128 0x11
 1089 00a5 01       		.uleb128 0x1
 1090 00a6 12       		.uleb128 0x12
 1091 00a7 01       		.uleb128 0x1
 1092 00a8 00       		.byte	0
 1093 00a9 00       		.byte	0
ARM GAS  /tmp/ccZ1pKfK.s 			page 22


 1094 00aa 0D       		.uleb128 0xd
 1095 00ab 2E       		.uleb128 0x2e
 1096 00ac 01       		.byte	0x1
 1097 00ad 3F       		.uleb128 0x3f
 1098 00ae 0C       		.uleb128 0xc
 1099 00af 03       		.uleb128 0x3
 1100 00b0 0E       		.uleb128 0xe
 1101 00b1 3A       		.uleb128 0x3a
 1102 00b2 0B       		.uleb128 0xb
 1103 00b3 3B       		.uleb128 0x3b
 1104 00b4 0B       		.uleb128 0xb
 1105 00b5 27       		.uleb128 0x27
 1106 00b6 0C       		.uleb128 0xc
 1107 00b7 49       		.uleb128 0x49
 1108 00b8 13       		.uleb128 0x13
 1109 00b9 11       		.uleb128 0x11
 1110 00ba 01       		.uleb128 0x1
 1111 00bb 12       		.uleb128 0x12
 1112 00bc 01       		.uleb128 0x1
 1113 00bd 40       		.uleb128 0x40
 1114 00be 06       		.uleb128 0x6
 1115 00bf 9642     		.uleb128 0x2116
 1116 00c1 0C       		.uleb128 0xc
 1117 00c2 01       		.uleb128 0x1
 1118 00c3 13       		.uleb128 0x13
 1119 00c4 00       		.byte	0
 1120 00c5 00       		.byte	0
 1121 00c6 0E       		.uleb128 0xe
 1122 00c7 2E       		.uleb128 0x2e
 1123 00c8 01       		.byte	0x1
 1124 00c9 3F       		.uleb128 0x3f
 1125 00ca 0C       		.uleb128 0xc
 1126 00cb 03       		.uleb128 0x3
 1127 00cc 0E       		.uleb128 0xe
 1128 00cd 3A       		.uleb128 0x3a
 1129 00ce 0B       		.uleb128 0xb
 1130 00cf 3B       		.uleb128 0x3b
 1131 00d0 0B       		.uleb128 0xb
 1132 00d1 27       		.uleb128 0x27
 1133 00d2 0C       		.uleb128 0xc
 1134 00d3 49       		.uleb128 0x49
 1135 00d4 13       		.uleb128 0x13
 1136 00d5 11       		.uleb128 0x11
 1137 00d6 01       		.uleb128 0x1
 1138 00d7 12       		.uleb128 0x12
 1139 00d8 01       		.uleb128 0x1
 1140 00d9 40       		.uleb128 0x40
 1141 00da 06       		.uleb128 0x6
 1142 00db 9742     		.uleb128 0x2117
 1143 00dd 0C       		.uleb128 0xc
 1144 00de 01       		.uleb128 0x1
 1145 00df 13       		.uleb128 0x13
 1146 00e0 00       		.byte	0
 1147 00e1 00       		.byte	0
 1148 00e2 0F       		.uleb128 0xf
 1149 00e3 2E       		.uleb128 0x2e
 1150 00e4 01       		.byte	0x1
ARM GAS  /tmp/ccZ1pKfK.s 			page 23


 1151 00e5 3F       		.uleb128 0x3f
 1152 00e6 0C       		.uleb128 0xc
 1153 00e7 03       		.uleb128 0x3
 1154 00e8 0E       		.uleb128 0xe
 1155 00e9 3A       		.uleb128 0x3a
 1156 00ea 0B       		.uleb128 0xb
 1157 00eb 3B       		.uleb128 0x3b
 1158 00ec 0B       		.uleb128 0xb
 1159 00ed 27       		.uleb128 0x27
 1160 00ee 0C       		.uleb128 0xc
 1161 00ef 11       		.uleb128 0x11
 1162 00f0 01       		.uleb128 0x1
 1163 00f1 12       		.uleb128 0x12
 1164 00f2 01       		.uleb128 0x1
 1165 00f3 40       		.uleb128 0x40
 1166 00f4 06       		.uleb128 0x6
 1167 00f5 9742     		.uleb128 0x2117
 1168 00f7 0C       		.uleb128 0xc
 1169 00f8 01       		.uleb128 0x1
 1170 00f9 13       		.uleb128 0x13
 1171 00fa 00       		.byte	0
 1172 00fb 00       		.byte	0
 1173 00fc 10       		.uleb128 0x10
 1174 00fd 2E       		.uleb128 0x2e
 1175 00fe 00       		.byte	0
 1176 00ff 3F       		.uleb128 0x3f
 1177 0100 0C       		.uleb128 0xc
 1178 0101 03       		.uleb128 0x3
 1179 0102 0E       		.uleb128 0xe
 1180 0103 3A       		.uleb128 0x3a
 1181 0104 0B       		.uleb128 0xb
 1182 0105 3B       		.uleb128 0x3b
 1183 0106 0B       		.uleb128 0xb
 1184 0107 27       		.uleb128 0x27
 1185 0108 0C       		.uleb128 0xc
 1186 0109 11       		.uleb128 0x11
 1187 010a 01       		.uleb128 0x1
 1188 010b 12       		.uleb128 0x12
 1189 010c 01       		.uleb128 0x1
 1190 010d 40       		.uleb128 0x40
 1191 010e 06       		.uleb128 0x6
 1192 010f 9742     		.uleb128 0x2117
 1193 0111 0C       		.uleb128 0xc
 1194 0112 00       		.byte	0
 1195 0113 00       		.byte	0
 1196 0114 11       		.uleb128 0x11
 1197 0115 01       		.uleb128 0x1
 1198 0116 01       		.byte	0x1
 1199 0117 49       		.uleb128 0x49
 1200 0118 13       		.uleb128 0x13
 1201 0119 01       		.uleb128 0x1
 1202 011a 13       		.uleb128 0x13
 1203 011b 00       		.byte	0
 1204 011c 00       		.byte	0
 1205 011d 12       		.uleb128 0x12
 1206 011e 21       		.uleb128 0x21
 1207 011f 00       		.byte	0
ARM GAS  /tmp/ccZ1pKfK.s 			page 24


 1208 0120 49       		.uleb128 0x49
 1209 0121 13       		.uleb128 0x13
 1210 0122 2F       		.uleb128 0x2f
 1211 0123 0B       		.uleb128 0xb
 1212 0124 00       		.byte	0
 1213 0125 00       		.byte	0
 1214 0126 13       		.uleb128 0x13
 1215 0127 26       		.uleb128 0x26
 1216 0128 00       		.byte	0
 1217 0129 49       		.uleb128 0x49
 1218 012a 13       		.uleb128 0x13
 1219 012b 00       		.byte	0
 1220 012c 00       		.byte	0
 1221 012d 00       		.byte	0
 1222              		.section	.debug_loc,"",%progbits
 1223              	.Ldebug_loc0:
 1224              	.LLST0:
 1225 0000 00000000 		.4byte	.LFB0
 1226 0004 02000000 		.4byte	.LCFI0
 1227 0008 0200     		.2byte	0x2
 1228 000a 7D       		.byte	0x7d
 1229 000b 00       		.sleb128 0
 1230 000c 02000000 		.4byte	.LCFI0
 1231 0010 04000000 		.4byte	.LCFI1
 1232 0014 0200     		.2byte	0x2
 1233 0016 7D       		.byte	0x7d
 1234 0017 08       		.sleb128 8
 1235 0018 04000000 		.4byte	.LCFI1
 1236 001c 06000000 		.4byte	.LCFI2
 1237 0020 0200     		.2byte	0x2
 1238 0022 7D       		.byte	0x7d
 1239 0023 18       		.sleb128 24
 1240 0024 06000000 		.4byte	.LCFI2
 1241 0028 58000000 		.4byte	.LFE0
 1242 002c 0200     		.2byte	0x2
 1243 002e 77       		.byte	0x77
 1244 002f 18       		.sleb128 24
 1245 0030 00000000 		.4byte	0
 1246 0034 00000000 		.4byte	0
 1247              	.LLST1:
 1248 0038 00000000 		.4byte	.LFB1
 1249 003c 02000000 		.4byte	.LCFI3
 1250 0040 0200     		.2byte	0x2
 1251 0042 7D       		.byte	0x7d
 1252 0043 00       		.sleb128 0
 1253 0044 02000000 		.4byte	.LCFI3
 1254 0048 04000000 		.4byte	.LCFI4
 1255 004c 0200     		.2byte	0x2
 1256 004e 7D       		.byte	0x7d
 1257 004f 08       		.sleb128 8
 1258 0050 04000000 		.4byte	.LCFI4
 1259 0054 06000000 		.4byte	.LCFI5
 1260 0058 0200     		.2byte	0x2
 1261 005a 7D       		.byte	0x7d
 1262 005b 10       		.sleb128 16
 1263 005c 06000000 		.4byte	.LCFI5
 1264 0060 28000000 		.4byte	.LFE1
ARM GAS  /tmp/ccZ1pKfK.s 			page 25


 1265 0064 0200     		.2byte	0x2
 1266 0066 77       		.byte	0x77
 1267 0067 10       		.sleb128 16
 1268 0068 00000000 		.4byte	0
 1269 006c 00000000 		.4byte	0
 1270              	.LLST2:
 1271 0070 00000000 		.4byte	.LFB2
 1272 0074 02000000 		.4byte	.LCFI6
 1273 0078 0200     		.2byte	0x2
 1274 007a 7D       		.byte	0x7d
 1275 007b 00       		.sleb128 0
 1276 007c 02000000 		.4byte	.LCFI6
 1277 0080 04000000 		.4byte	.LCFI7
 1278 0084 0200     		.2byte	0x2
 1279 0086 7D       		.byte	0x7d
 1280 0087 08       		.sleb128 8
 1281 0088 04000000 		.4byte	.LCFI7
 1282 008c 06000000 		.4byte	.LCFI8
 1283 0090 0200     		.2byte	0x2
 1284 0092 7D       		.byte	0x7d
 1285 0093 10       		.sleb128 16
 1286 0094 06000000 		.4byte	.LCFI8
 1287 0098 1C000000 		.4byte	.LFE2
 1288 009c 0200     		.2byte	0x2
 1289 009e 77       		.byte	0x77
 1290 009f 10       		.sleb128 16
 1291 00a0 00000000 		.4byte	0
 1292 00a4 00000000 		.4byte	0
 1293              	.LLST3:
 1294 00a8 00000000 		.4byte	.LFB3
 1295 00ac 02000000 		.4byte	.LCFI9
 1296 00b0 0200     		.2byte	0x2
 1297 00b2 7D       		.byte	0x7d
 1298 00b3 00       		.sleb128 0
 1299 00b4 02000000 		.4byte	.LCFI9
 1300 00b8 04000000 		.4byte	.LCFI10
 1301 00bc 0200     		.2byte	0x2
 1302 00be 7D       		.byte	0x7d
 1303 00bf 08       		.sleb128 8
 1304 00c0 04000000 		.4byte	.LCFI10
 1305 00c4 06000000 		.4byte	.LCFI11
 1306 00c8 0200     		.2byte	0x2
 1307 00ca 7D       		.byte	0x7d
 1308 00cb 18       		.sleb128 24
 1309 00cc 06000000 		.4byte	.LCFI11
 1310 00d0 36000000 		.4byte	.LFE3
 1311 00d4 0200     		.2byte	0x2
 1312 00d6 77       		.byte	0x77
 1313 00d7 18       		.sleb128 24
 1314 00d8 00000000 		.4byte	0
 1315 00dc 00000000 		.4byte	0
 1316              	.LLST4:
 1317 00e0 00000000 		.4byte	.LFB4
 1318 00e4 02000000 		.4byte	.LCFI12
 1319 00e8 0200     		.2byte	0x2
 1320 00ea 7D       		.byte	0x7d
 1321 00eb 00       		.sleb128 0
ARM GAS  /tmp/ccZ1pKfK.s 			page 26


 1322 00ec 02000000 		.4byte	.LCFI12
 1323 00f0 04000000 		.4byte	.LCFI13
 1324 00f4 0200     		.2byte	0x2
 1325 00f6 7D       		.byte	0x7d
 1326 00f7 08       		.sleb128 8
 1327 00f8 04000000 		.4byte	.LCFI13
 1328 00fc 06000000 		.4byte	.LCFI14
 1329 0100 0200     		.2byte	0x2
 1330 0102 7D       		.byte	0x7d
 1331 0103 18       		.sleb128 24
 1332 0104 06000000 		.4byte	.LCFI14
 1333 0108 54000000 		.4byte	.LFE4
 1334 010c 0200     		.2byte	0x2
 1335 010e 77       		.byte	0x77
 1336 010f 18       		.sleb128 24
 1337 0110 00000000 		.4byte	0
 1338 0114 00000000 		.4byte	0
 1339              	.LLST5:
 1340 0118 00000000 		.4byte	.LFB5
 1341 011c 02000000 		.4byte	.LCFI15
 1342 0120 0200     		.2byte	0x2
 1343 0122 7D       		.byte	0x7d
 1344 0123 00       		.sleb128 0
 1345 0124 02000000 		.4byte	.LCFI15
 1346 0128 04000000 		.4byte	.LCFI16
 1347 012c 0200     		.2byte	0x2
 1348 012e 7D       		.byte	0x7d
 1349 012f 08       		.sleb128 8
 1350 0130 04000000 		.4byte	.LCFI16
 1351 0134 14000000 		.4byte	.LFE5
 1352 0138 0200     		.2byte	0x2
 1353 013a 77       		.byte	0x77
 1354 013b 08       		.sleb128 8
 1355 013c 00000000 		.4byte	0
 1356 0140 00000000 		.4byte	0
 1357              	.LLST6:
 1358 0144 00000000 		.4byte	.LFB6
 1359 0148 02000000 		.4byte	.LCFI17
 1360 014c 0200     		.2byte	0x2
 1361 014e 7D       		.byte	0x7d
 1362 014f 00       		.sleb128 0
 1363 0150 02000000 		.4byte	.LCFI17
 1364 0154 04000000 		.4byte	.LCFI18
 1365 0158 0200     		.2byte	0x2
 1366 015a 7D       		.byte	0x7d
 1367 015b 08       		.sleb128 8
 1368 015c 04000000 		.4byte	.LCFI18
 1369 0160 12000000 		.4byte	.LFE6
 1370 0164 0200     		.2byte	0x2
 1371 0166 77       		.byte	0x77
 1372 0167 08       		.sleb128 8
 1373 0168 00000000 		.4byte	0
 1374 016c 00000000 		.4byte	0
 1375              	.LLST7:
 1376 0170 00000000 		.4byte	.LFB7
 1377 0174 02000000 		.4byte	.LCFI19
 1378 0178 0200     		.2byte	0x2
ARM GAS  /tmp/ccZ1pKfK.s 			page 27


 1379 017a 7D       		.byte	0x7d
 1380 017b 00       		.sleb128 0
 1381 017c 02000000 		.4byte	.LCFI19
 1382 0180 04000000 		.4byte	.LCFI20
 1383 0184 0200     		.2byte	0x2
 1384 0186 7D       		.byte	0x7d
 1385 0187 08       		.sleb128 8
 1386 0188 04000000 		.4byte	.LCFI20
 1387 018c 06000000 		.4byte	.LCFI21
 1388 0190 0200     		.2byte	0x2
 1389 0192 7D       		.byte	0x7d
 1390 0193 10       		.sleb128 16
 1391 0194 06000000 		.4byte	.LCFI21
 1392 0198 14000000 		.4byte	.LFE7
 1393 019c 0200     		.2byte	0x2
 1394 019e 77       		.byte	0x77
 1395 019f 10       		.sleb128 16
 1396 01a0 00000000 		.4byte	0
 1397 01a4 00000000 		.4byte	0
 1398              	.LLST8:
 1399 01a8 00000000 		.4byte	.LFB8
 1400 01ac 02000000 		.4byte	.LCFI22
 1401 01b0 0200     		.2byte	0x2
 1402 01b2 7D       		.byte	0x7d
 1403 01b3 00       		.sleb128 0
 1404 01b4 02000000 		.4byte	.LCFI22
 1405 01b8 04000000 		.4byte	.LCFI23
 1406 01bc 0200     		.2byte	0x2
 1407 01be 7D       		.byte	0x7d
 1408 01bf 08       		.sleb128 8
 1409 01c0 04000000 		.4byte	.LCFI23
 1410 01c4 06000000 		.4byte	.LCFI24
 1411 01c8 0200     		.2byte	0x2
 1412 01ca 7D       		.byte	0x7d
 1413 01cb 10       		.sleb128 16
 1414 01cc 06000000 		.4byte	.LCFI24
 1415 01d0 14000000 		.4byte	.LFE8
 1416 01d4 0200     		.2byte	0x2
 1417 01d6 77       		.byte	0x77
 1418 01d7 10       		.sleb128 16
 1419 01d8 00000000 		.4byte	0
 1420 01dc 00000000 		.4byte	0
 1421              	.LLST9:
 1422 01e0 00000000 		.4byte	.LFB9
 1423 01e4 02000000 		.4byte	.LCFI25
 1424 01e8 0200     		.2byte	0x2
 1425 01ea 7D       		.byte	0x7d
 1426 01eb 00       		.sleb128 0
 1427 01ec 02000000 		.4byte	.LCFI25
 1428 01f0 04000000 		.4byte	.LCFI26
 1429 01f4 0200     		.2byte	0x2
 1430 01f6 7D       		.byte	0x7d
 1431 01f7 08       		.sleb128 8
 1432 01f8 04000000 		.4byte	.LCFI26
 1433 01fc 06000000 		.4byte	.LCFI27
 1434 0200 0200     		.2byte	0x2
 1435 0202 7D       		.byte	0x7d
ARM GAS  /tmp/ccZ1pKfK.s 			page 28


 1436 0203 10       		.sleb128 16
 1437 0204 06000000 		.4byte	.LCFI27
 1438 0208 12000000 		.4byte	.LFE9
 1439 020c 0200     		.2byte	0x2
 1440 020e 77       		.byte	0x77
 1441 020f 10       		.sleb128 16
 1442 0210 00000000 		.4byte	0
 1443 0214 00000000 		.4byte	0
 1444              	.LLST10:
 1445 0218 00000000 		.4byte	.LFB10
 1446 021c 02000000 		.4byte	.LCFI28
 1447 0220 0200     		.2byte	0x2
 1448 0222 7D       		.byte	0x7d
 1449 0223 00       		.sleb128 0
 1450 0224 02000000 		.4byte	.LCFI28
 1451 0228 04000000 		.4byte	.LCFI29
 1452 022c 0200     		.2byte	0x2
 1453 022e 7D       		.byte	0x7d
 1454 022f 08       		.sleb128 8
 1455 0230 04000000 		.4byte	.LCFI29
 1456 0234 08000000 		.4byte	.LFE10
 1457 0238 0200     		.2byte	0x2
 1458 023a 77       		.byte	0x77
 1459 023b 08       		.sleb128 8
 1460 023c 00000000 		.4byte	0
 1461 0240 00000000 		.4byte	0
 1462              		.section	.debug_aranges,"",%progbits
 1463 0000 6C000000 		.4byte	0x6c
 1464 0004 0200     		.2byte	0x2
 1465 0006 00000000 		.4byte	.Ldebug_info0
 1466 000a 04       		.byte	0x4
 1467 000b 00       		.byte	0
 1468 000c 0000     		.2byte	0
 1469 000e 0000     		.2byte	0
 1470 0010 00000000 		.4byte	.LFB0
 1471 0014 58000000 		.4byte	.LFE0-.LFB0
 1472 0018 00000000 		.4byte	.LFB1
 1473 001c 28000000 		.4byte	.LFE1-.LFB1
 1474 0020 00000000 		.4byte	.LFB2
 1475 0024 1C000000 		.4byte	.LFE2-.LFB2
 1476 0028 00000000 		.4byte	.LFB3
 1477 002c 36000000 		.4byte	.LFE3-.LFB3
 1478 0030 00000000 		.4byte	.LFB4
 1479 0034 54000000 		.4byte	.LFE4-.LFB4
 1480 0038 00000000 		.4byte	.LFB5
 1481 003c 14000000 		.4byte	.LFE5-.LFB5
 1482 0040 00000000 		.4byte	.LFB6
 1483 0044 12000000 		.4byte	.LFE6-.LFB6
 1484 0048 00000000 		.4byte	.LFB7
 1485 004c 14000000 		.4byte	.LFE7-.LFB7
 1486 0050 00000000 		.4byte	.LFB8
 1487 0054 14000000 		.4byte	.LFE8-.LFB8
 1488 0058 00000000 		.4byte	.LFB9
 1489 005c 12000000 		.4byte	.LFE9-.LFB9
 1490 0060 00000000 		.4byte	.LFB10
 1491 0064 08000000 		.4byte	.LFE10-.LFB10
 1492 0068 00000000 		.4byte	0
ARM GAS  /tmp/ccZ1pKfK.s 			page 29


 1493 006c 00000000 		.4byte	0
 1494              		.section	.debug_ranges,"",%progbits
 1495              	.Ldebug_ranges0:
 1496 0000 00000000 		.4byte	.LFB0
 1497 0004 58000000 		.4byte	.LFE0
 1498 0008 00000000 		.4byte	.LFB1
 1499 000c 28000000 		.4byte	.LFE1
 1500 0010 00000000 		.4byte	.LFB2
 1501 0014 1C000000 		.4byte	.LFE2
 1502 0018 00000000 		.4byte	.LFB3
 1503 001c 36000000 		.4byte	.LFE3
 1504 0020 00000000 		.4byte	.LFB4
 1505 0024 54000000 		.4byte	.LFE4
 1506 0028 00000000 		.4byte	.LFB5
 1507 002c 14000000 		.4byte	.LFE5
 1508 0030 00000000 		.4byte	.LFB6
 1509 0034 12000000 		.4byte	.LFE6
 1510 0038 00000000 		.4byte	.LFB7
 1511 003c 14000000 		.4byte	.LFE7
 1512 0040 00000000 		.4byte	.LFB8
 1513 0044 14000000 		.4byte	.LFE8
 1514 0048 00000000 		.4byte	.LFB9
 1515 004c 12000000 		.4byte	.LFE9
 1516 0050 00000000 		.4byte	.LFB10
 1517 0054 08000000 		.4byte	.LFE10
 1518 0058 00000000 		.4byte	0
 1519 005c 00000000 		.4byte	0
 1520              		.section	.debug_macro,"",%progbits
 1521              	.Ldebug_macro0:
 1522 0000 0400     		.2byte	0x4
 1523 0002 02       		.byte	0x2
 1524 0003 00000000 		.4byte	.Ldebug_line0
 1525 0007 07       		.byte	0x7
 1526 0008 00000000 		.4byte	.Ldebug_macro1
 1527 000c 03       		.byte	0x3
 1528 000d 00       		.uleb128 0
 1529 000e 01       		.uleb128 0x1
 1530              		.file 3 "/opt/gcc-arm-none-eabi-4_7-2013q2/bin/../lib/gcc/arm-none-eabi/4.7.4/include/stdint.h"
 1531 000f 03       		.byte	0x3
 1532 0010 08       		.uleb128 0x8
 1533 0011 03       		.uleb128 0x3
 1534 0012 03       		.byte	0x3
 1535 0013 03       		.uleb128 0x3
 1536 0014 02       		.uleb128 0x2
 1537 0015 05       		.byte	0x5
 1538 0016 0A       		.uleb128 0xa
 1539 0017 8C0E0000 		.4byte	.LASF32
 1540              		.file 4 "/opt/gcc-arm-none-eabi-4_7-2013q2/bin/../lib/gcc/arm-none-eabi/4.7.4/../../../../arm-none
 1541 001b 03       		.byte	0x3
 1542 001c 0C       		.uleb128 0xc
 1543 001d 04       		.uleb128 0x4
 1544 001e 05       		.byte	0x5
 1545 001f 0D       		.uleb128 0xd
 1546 0020 582E0000 		.4byte	.LASF33
 1547              		.file 5 "/opt/gcc-arm-none-eabi-4_7-2013q2/bin/../lib/gcc/arm-none-eabi/4.7.4/../../../../arm-none
 1548 0024 03       		.byte	0x3
 1549 0025 0F       		.uleb128 0xf
ARM GAS  /tmp/ccZ1pKfK.s 			page 30


 1550 0026 05       		.uleb128 0x5
 1551 0027 07       		.byte	0x7
 1552 0028 00000000 		.4byte	.Ldebug_macro2
 1553 002c 04       		.byte	0x4
 1554              		.file 6 "/opt/gcc-arm-none-eabi-4_7-2013q2/bin/../lib/gcc/arm-none-eabi/4.7.4/../../../../arm-none
 1555 002d 03       		.byte	0x3
 1556 002e 10       		.uleb128 0x10
 1557 002f 06       		.uleb128 0x6
 1558 0030 05       		.byte	0x5
 1559 0031 02       		.uleb128 0x2
 1560 0032 A4010000 		.4byte	.LASF34
 1561              		.file 7 "/opt/gcc-arm-none-eabi-4_7-2013q2/bin/../lib/gcc/arm-none-eabi/4.7.4/../../../../arm-none
 1562 0036 03       		.byte	0x3
 1563 0037 04       		.uleb128 0x4
 1564 0038 07       		.uleb128 0x7
 1565 0039 05       		.byte	0x5
 1566 003a 3C       		.uleb128 0x3c
 1567 003b ED150000 		.4byte	.LASF35
 1568 003f 04       		.byte	0x4
 1569              		.file 8 "/opt/gcc-arm-none-eabi-4_7-2013q2/bin/../lib/gcc/arm-none-eabi/4.7.4/../../../../arm-none
 1570 0040 03       		.byte	0x3
 1571 0041 05       		.uleb128 0x5
 1572 0042 08       		.uleb128 0x8
 1573 0043 07       		.byte	0x7
 1574 0044 00000000 		.4byte	.Ldebug_macro3
 1575 0048 04       		.byte	0x4
 1576 0049 07       		.byte	0x7
 1577 004a 00000000 		.4byte	.Ldebug_macro4
 1578 004e 04       		.byte	0x4
 1579 004f 07       		.byte	0x7
 1580 0050 00000000 		.4byte	.Ldebug_macro5
 1581 0054 04       		.byte	0x4
 1582 0055 07       		.byte	0x7
 1583 0056 00000000 		.4byte	.Ldebug_macro6
 1584 005a 04       		.byte	0x4
 1585 005b 05       		.byte	0x5
 1586 005c 07       		.uleb128 0x7
 1587 005d 75090000 		.4byte	.LASF36
 1588 0061 04       		.byte	0x4
 1589              		.file 9 "nonstdio.h"
 1590 0062 03       		.byte	0x3
 1591 0063 09       		.uleb128 0x9
 1592 0064 09       		.uleb128 0x9
 1593 0065 04       		.byte	0x4
 1594 0066 05       		.byte	0x5
 1595 0067 0B       		.uleb128 0xb
 1596 0068 6A160000 		.4byte	.LASF37
 1597 006c 04       		.byte	0x4
 1598 006d 00       		.byte	0
 1599              		.section	.debug_macro,"G",%progbits,wm4.1.f1278402288c5169f387e8af663aceac,comdat
 1600              	.Ldebug_macro1:
 1601 0000 0400     		.2byte	0x4
 1602 0002 00       		.byte	0
 1603 0003 05       		.byte	0x5
 1604 0004 01       		.uleb128 0x1
 1605 0005 B4180000 		.4byte	.LASF38
 1606 0009 05       		.byte	0x5
ARM GAS  /tmp/ccZ1pKfK.s 			page 31


 1607 000a 01       		.uleb128 0x1
 1608 000b F0250000 		.4byte	.LASF39
 1609 000f 05       		.byte	0x5
 1610 0010 01       		.uleb128 0x1
 1611 0011 DC1A0000 		.4byte	.LASF40
 1612 0015 05       		.byte	0x5
 1613 0016 01       		.uleb128 0x1
 1614 0017 40070000 		.4byte	.LASF41
 1615 001b 05       		.byte	0x5
 1616 001c 01       		.uleb128 0x1
 1617 001d 88260000 		.4byte	.LASF42
 1618 0021 05       		.byte	0x5
 1619 0022 01       		.uleb128 0x1
 1620 0023 91040000 		.4byte	.LASF43
 1621 0027 05       		.byte	0x5
 1622 0028 01       		.uleb128 0x1
 1623 0029 B7030000 		.4byte	.LASF44
 1624 002d 05       		.byte	0x5
 1625 002e 01       		.uleb128 0x1
 1626 002f 491A0000 		.4byte	.LASF45
 1627 0033 05       		.byte	0x5
 1628 0034 01       		.uleb128 0x1
 1629 0035 D42E0000 		.4byte	.LASF46
 1630 0039 05       		.byte	0x5
 1631 003a 01       		.uleb128 0x1
 1632 003b CD070000 		.4byte	.LASF47
 1633 003f 05       		.byte	0x5
 1634 0040 01       		.uleb128 0x1
 1635 0041 02060000 		.4byte	.LASF48
 1636 0045 05       		.byte	0x5
 1637 0046 01       		.uleb128 0x1
 1638 0047 2C180000 		.4byte	.LASF49
 1639 004b 05       		.byte	0x5
 1640 004c 01       		.uleb128 0x1
 1641 004d 59050000 		.4byte	.LASF50
 1642 0051 05       		.byte	0x5
 1643 0052 01       		.uleb128 0x1
 1644 0053 ED270000 		.4byte	.LASF51
 1645 0057 05       		.byte	0x5
 1646 0058 01       		.uleb128 0x1
 1647 0059 12190000 		.4byte	.LASF52
 1648 005d 05       		.byte	0x5
 1649 005e 01       		.uleb128 0x1
 1650 005f D5160000 		.4byte	.LASF53
 1651 0063 05       		.byte	0x5
 1652 0064 01       		.uleb128 0x1
 1653 0065 2A2A0000 		.4byte	.LASF54
 1654 0069 05       		.byte	0x5
 1655 006a 01       		.uleb128 0x1
 1656 006b BF180000 		.4byte	.LASF55
 1657 006f 05       		.byte	0x5
 1658 0070 01       		.uleb128 0x1
 1659 0071 27230000 		.4byte	.LASF56
 1660 0075 05       		.byte	0x5
 1661 0076 01       		.uleb128 0x1
 1662 0077 47060000 		.4byte	.LASF57
 1663 007b 05       		.byte	0x5
ARM GAS  /tmp/ccZ1pKfK.s 			page 32


 1664 007c 01       		.uleb128 0x1
 1665 007d 970E0000 		.4byte	.LASF58
 1666 0081 05       		.byte	0x5
 1667 0082 01       		.uleb128 0x1
 1668 0083 291A0000 		.4byte	.LASF59
 1669 0087 05       		.byte	0x5
 1670 0088 01       		.uleb128 0x1
 1671 0089 78040000 		.4byte	.LASF60
 1672 008d 05       		.byte	0x5
 1673 008e 01       		.uleb128 0x1
 1674 008f 41040000 		.4byte	.LASF61
 1675 0093 05       		.byte	0x5
 1676 0094 01       		.uleb128 0x1
 1677 0095 5B160000 		.4byte	.LASF62
 1678 0099 05       		.byte	0x5
 1679 009a 01       		.uleb128 0x1
 1680 009b 710F0000 		.4byte	.LASF63
 1681 009f 05       		.byte	0x5
 1682 00a0 01       		.uleb128 0x1
 1683 00a1 FE0D0000 		.4byte	.LASF64
 1684 00a5 05       		.byte	0x5
 1685 00a6 01       		.uleb128 0x1
 1686 00a7 9C040000 		.4byte	.LASF65
 1687 00ab 05       		.byte	0x5
 1688 00ac 01       		.uleb128 0x1
 1689 00ad A1280000 		.4byte	.LASF66
 1690 00b1 05       		.byte	0x5
 1691 00b2 01       		.uleb128 0x1
 1692 00b3 E2060000 		.4byte	.LASF67
 1693 00b7 05       		.byte	0x5
 1694 00b8 01       		.uleb128 0x1
 1695 00b9 F71B0000 		.4byte	.LASF68
 1696 00bd 05       		.byte	0x5
 1697 00be 01       		.uleb128 0x1
 1698 00bf 2B240000 		.4byte	.LASF69
 1699 00c3 05       		.byte	0x5
 1700 00c4 01       		.uleb128 0x1
 1701 00c5 42290000 		.4byte	.LASF70
 1702 00c9 05       		.byte	0x5
 1703 00ca 01       		.uleb128 0x1
 1704 00cb 6C050000 		.4byte	.LASF71
 1705 00cf 05       		.byte	0x5
 1706 00d0 01       		.uleb128 0x1
 1707 00d1 B4190000 		.4byte	.LASF72
 1708 00d5 05       		.byte	0x5
 1709 00d6 01       		.uleb128 0x1
 1710 00d7 6F190000 		.4byte	.LASF73
 1711 00db 05       		.byte	0x5
 1712 00dc 01       		.uleb128 0x1
 1713 00dd 3B2A0000 		.4byte	.LASF74
 1714 00e1 05       		.byte	0x5
 1715 00e2 01       		.uleb128 0x1
 1716 00e3 26280000 		.4byte	.LASF75
 1717 00e7 05       		.byte	0x5
 1718 00e8 01       		.uleb128 0x1
 1719 00e9 55040000 		.4byte	.LASF76
 1720 00ed 05       		.byte	0x5
ARM GAS  /tmp/ccZ1pKfK.s 			page 33


 1721 00ee 01       		.uleb128 0x1
 1722 00ef E21C0000 		.4byte	.LASF77
 1723 00f3 05       		.byte	0x5
 1724 00f4 01       		.uleb128 0x1
 1725 00f5 1F2E0000 		.4byte	.LASF78
 1726 00f9 05       		.byte	0x5
 1727 00fa 01       		.uleb128 0x1
 1728 00fb 69210000 		.4byte	.LASF79
 1729 00ff 05       		.byte	0x5
 1730 0100 01       		.uleb128 0x1
 1731 0101 95050000 		.4byte	.LASF80
 1732 0105 05       		.byte	0x5
 1733 0106 01       		.uleb128 0x1
 1734 0107 4D200000 		.4byte	.LASF81
 1735 010b 05       		.byte	0x5
 1736 010c 01       		.uleb128 0x1
 1737 010d 05110000 		.4byte	.LASF82
 1738 0111 05       		.byte	0x5
 1739 0112 01       		.uleb128 0x1
 1740 0113 4D230000 		.4byte	.LASF83
 1741 0117 05       		.byte	0x5
 1742 0118 01       		.uleb128 0x1
 1743 0119 7F100000 		.4byte	.LASF84
 1744 011d 05       		.byte	0x5
 1745 011e 01       		.uleb128 0x1
 1746 011f EE230000 		.4byte	.LASF85
 1747 0123 05       		.byte	0x5
 1748 0124 01       		.uleb128 0x1
 1749 0125 492B0000 		.4byte	.LASF86
 1750 0129 05       		.byte	0x5
 1751 012a 01       		.uleb128 0x1
 1752 012b 76060000 		.4byte	.LASF87
 1753 012f 05       		.byte	0x5
 1754 0130 01       		.uleb128 0x1
 1755 0131 F1140000 		.4byte	.LASF88
 1756 0135 05       		.byte	0x5
 1757 0136 01       		.uleb128 0x1
 1758 0137 E0070000 		.4byte	.LASF89
 1759 013b 05       		.byte	0x5
 1760 013c 01       		.uleb128 0x1
 1761 013d 541D0000 		.4byte	.LASF90
 1762 0141 05       		.byte	0x5
 1763 0142 01       		.uleb128 0x1
 1764 0143 52070000 		.4byte	.LASF91
 1765 0147 05       		.byte	0x5
 1766 0148 01       		.uleb128 0x1
 1767 0149 E32B0000 		.4byte	.LASF92
 1768 014d 05       		.byte	0x5
 1769 014e 01       		.uleb128 0x1
 1770 014f C81D0000 		.4byte	.LASF93
 1771 0153 05       		.byte	0x5
 1772 0154 01       		.uleb128 0x1
 1773 0155 1F050000 		.4byte	.LASF94
 1774 0159 05       		.byte	0x5
 1775 015a 01       		.uleb128 0x1
 1776 015b 730C0000 		.4byte	.LASF95
 1777 015f 05       		.byte	0x5
ARM GAS  /tmp/ccZ1pKfK.s 			page 34


 1778 0160 01       		.uleb128 0x1
 1779 0161 67100000 		.4byte	.LASF96
 1780 0165 05       		.byte	0x5
 1781 0166 01       		.uleb128 0x1
 1782 0167 F1290000 		.4byte	.LASF97
 1783 016b 05       		.byte	0x5
 1784 016c 01       		.uleb128 0x1
 1785 016d F2080000 		.4byte	.LASF98
 1786 0171 05       		.byte	0x5
 1787 0172 01       		.uleb128 0x1
 1788 0173 50130000 		.4byte	.LASF99
 1789 0177 05       		.byte	0x5
 1790 0178 01       		.uleb128 0x1
 1791 0179 8A0C0000 		.4byte	.LASF100
 1792 017d 05       		.byte	0x5
 1793 017e 01       		.uleb128 0x1
 1794 017f CE280000 		.4byte	.LASF101
 1795 0183 05       		.byte	0x5
 1796 0184 01       		.uleb128 0x1
 1797 0185 561B0000 		.4byte	.LASF102
 1798 0189 05       		.byte	0x5
 1799 018a 01       		.uleb128 0x1
 1800 018b 81280000 		.4byte	.LASF103
 1801 018f 05       		.byte	0x5
 1802 0190 01       		.uleb128 0x1
 1803 0191 89090000 		.4byte	.LASF104
 1804 0195 05       		.byte	0x5
 1805 0196 01       		.uleb128 0x1
 1806 0197 13100000 		.4byte	.LASF105
 1807 019b 05       		.byte	0x5
 1808 019c 01       		.uleb128 0x1
 1809 019d AC1F0000 		.4byte	.LASF106
 1810 01a1 05       		.byte	0x5
 1811 01a2 01       		.uleb128 0x1
 1812 01a3 55170000 		.4byte	.LASF107
 1813 01a7 05       		.byte	0x5
 1814 01a8 01       		.uleb128 0x1
 1815 01a9 D7050000 		.4byte	.LASF108
 1816 01ad 05       		.byte	0x5
 1817 01ae 01       		.uleb128 0x1
 1818 01af B6010000 		.4byte	.LASF109
 1819 01b3 05       		.byte	0x5
 1820 01b4 01       		.uleb128 0x1
 1821 01b5 34000000 		.4byte	.LASF110
 1822 01b9 05       		.byte	0x5
 1823 01ba 01       		.uleb128 0x1
 1824 01bb 8D000000 		.4byte	.LASF111
 1825 01bf 05       		.byte	0x5
 1826 01c0 01       		.uleb128 0x1
 1827 01c1 C9290000 		.4byte	.LASF112
 1828 01c5 05       		.byte	0x5
 1829 01c6 01       		.uleb128 0x1
 1830 01c7 841F0000 		.4byte	.LASF113
 1831 01cb 05       		.byte	0x5
 1832 01cc 01       		.uleb128 0x1
 1833 01cd 791A0000 		.4byte	.LASF114
 1834 01d1 05       		.byte	0x5
ARM GAS  /tmp/ccZ1pKfK.s 			page 35


 1835 01d2 01       		.uleb128 0x1
 1836 01d3 00000000 		.4byte	.LASF115
 1837 01d7 05       		.byte	0x5
 1838 01d8 01       		.uleb128 0x1
 1839 01d9 3A090000 		.4byte	.LASF116
 1840 01dd 05       		.byte	0x5
 1841 01de 01       		.uleb128 0x1
 1842 01df 9A260000 		.4byte	.LASF117
 1843 01e3 05       		.byte	0x5
 1844 01e4 01       		.uleb128 0x1
 1845 01e5 1E260000 		.4byte	.LASF118
 1846 01e9 05       		.byte	0x5
 1847 01ea 01       		.uleb128 0x1
 1848 01eb 58260000 		.4byte	.LASF119
 1849 01ef 05       		.byte	0x5
 1850 01f0 01       		.uleb128 0x1
 1851 01f1 96060000 		.4byte	.LASF120
 1852 01f5 05       		.byte	0x5
 1853 01f6 01       		.uleb128 0x1
 1854 01f7 C2240000 		.4byte	.LASF121
 1855 01fb 05       		.byte	0x5
 1856 01fc 01       		.uleb128 0x1
 1857 01fd 6C1C0000 		.4byte	.LASF122
 1858 0201 05       		.byte	0x5
 1859 0202 01       		.uleb128 0x1
 1860 0203 6A010000 		.4byte	.LASF123
 1861 0207 05       		.byte	0x5
 1862 0208 01       		.uleb128 0x1
 1863 0209 39160000 		.4byte	.LASF124
 1864 020d 05       		.byte	0x5
 1865 020e 01       		.uleb128 0x1
 1866 020f 8A010000 		.4byte	.LASF125
 1867 0213 05       		.byte	0x5
 1868 0214 01       		.uleb128 0x1
 1869 0215 90220000 		.4byte	.LASF126
 1870 0219 05       		.byte	0x5
 1871 021a 01       		.uleb128 0x1
 1872 021b 701E0000 		.4byte	.LASF127
 1873 021f 05       		.byte	0x5
 1874 0220 01       		.uleb128 0x1
 1875 0221 09260000 		.4byte	.LASF128
 1876 0225 05       		.byte	0x5
 1877 0226 01       		.uleb128 0x1
 1878 0227 C6120000 		.4byte	.LASF129
 1879 022b 05       		.byte	0x5
 1880 022c 01       		.uleb128 0x1
 1881 022d B7080000 		.4byte	.LASF130
 1882 0231 05       		.byte	0x5
 1883 0232 01       		.uleb128 0x1
 1884 0233 3D010000 		.4byte	.LASF131
 1885 0237 05       		.byte	0x5
 1886 0238 01       		.uleb128 0x1
 1887 0239 14090000 		.4byte	.LASF132
 1888 023d 05       		.byte	0x5
 1889 023e 01       		.uleb128 0x1
 1890 023f 9C0F0000 		.4byte	.LASF133
 1891 0243 05       		.byte	0x5
ARM GAS  /tmp/ccZ1pKfK.s 			page 36


 1892 0244 01       		.uleb128 0x1
 1893 0245 2C060000 		.4byte	.LASF134
 1894 0249 05       		.byte	0x5
 1895 024a 01       		.uleb128 0x1
 1896 024b 79140000 		.4byte	.LASF135
 1897 024f 05       		.byte	0x5
 1898 0250 01       		.uleb128 0x1
 1899 0251 D42C0000 		.4byte	.LASF136
 1900 0255 05       		.byte	0x5
 1901 0256 01       		.uleb128 0x1
 1902 0257 59020000 		.4byte	.LASF137
 1903 025b 05       		.byte	0x5
 1904 025c 01       		.uleb128 0x1
 1905 025d 6A230000 		.4byte	.LASF138
 1906 0261 05       		.byte	0x5
 1907 0262 01       		.uleb128 0x1
 1908 0263 09070000 		.4byte	.LASF139
 1909 0267 05       		.byte	0x5
 1910 0268 01       		.uleb128 0x1
 1911 0269 7B010000 		.4byte	.LASF140
 1912 026d 05       		.byte	0x5
 1913 026e 01       		.uleb128 0x1
 1914 026f A6230000 		.4byte	.LASF141
 1915 0273 05       		.byte	0x5
 1916 0274 01       		.uleb128 0x1
 1917 0275 31040000 		.4byte	.LASF142
 1918 0279 05       		.byte	0x5
 1919 027a 01       		.uleb128 0x1
 1920 027b 68170000 		.4byte	.LASF143
 1921 027f 05       		.byte	0x5
 1922 0280 01       		.uleb128 0x1
 1923 0281 D40E0000 		.4byte	.LASF144
 1924 0285 05       		.byte	0x5
 1925 0286 01       		.uleb128 0x1
 1926 0287 10150000 		.4byte	.LASF145
 1927 028b 05       		.byte	0x5
 1928 028c 01       		.uleb128 0x1
 1929 028d 27250000 		.4byte	.LASF146
 1930 0291 05       		.byte	0x5
 1931 0292 01       		.uleb128 0x1
 1932 0293 25290000 		.4byte	.LASF147
 1933 0297 05       		.byte	0x5
 1934 0298 01       		.uleb128 0x1
 1935 0299 C4060000 		.4byte	.LASF148
 1936 029d 05       		.byte	0x5
 1937 029e 01       		.uleb128 0x1
 1938 029f A50B0000 		.4byte	.LASF149
 1939 02a3 05       		.byte	0x5
 1940 02a4 01       		.uleb128 0x1
 1941 02a5 3B270000 		.4byte	.LASF150
 1942 02a9 05       		.byte	0x5
 1943 02aa 01       		.uleb128 0x1
 1944 02ab 88080000 		.4byte	.LASF151
 1945 02af 05       		.byte	0x5
 1946 02b0 01       		.uleb128 0x1
 1947 02b1 E6220000 		.4byte	.LASF152
 1948 02b5 05       		.byte	0x5
ARM GAS  /tmp/ccZ1pKfK.s 			page 37


 1949 02b6 01       		.uleb128 0x1
 1950 02b7 D21F0000 		.4byte	.LASF153
 1951 02bb 05       		.byte	0x5
 1952 02bc 01       		.uleb128 0x1
 1953 02bd 25220000 		.4byte	.LASF154
 1954 02c1 05       		.byte	0x5
 1955 02c2 01       		.uleb128 0x1
 1956 02c3 71130000 		.4byte	.LASF155
 1957 02c7 05       		.byte	0x5
 1958 02c8 01       		.uleb128 0x1
 1959 02c9 75070000 		.4byte	.LASF156
 1960 02cd 05       		.byte	0x5
 1961 02ce 01       		.uleb128 0x1
 1962 02cf 1F130000 		.4byte	.LASF157
 1963 02d3 05       		.byte	0x5
 1964 02d4 01       		.uleb128 0x1
 1965 02d5 72120000 		.4byte	.LASF158
 1966 02d9 05       		.byte	0x5
 1967 02da 01       		.uleb128 0x1
 1968 02db 15290000 		.4byte	.LASF159
 1969 02df 05       		.byte	0x5
 1970 02e0 01       		.uleb128 0x1
 1971 02e1 CB110000 		.4byte	.LASF160
 1972 02e5 05       		.byte	0x5
 1973 02e6 01       		.uleb128 0x1
 1974 02e7 000A0000 		.4byte	.LASF161
 1975 02eb 05       		.byte	0x5
 1976 02ec 01       		.uleb128 0x1
 1977 02ed 2B2C0000 		.4byte	.LASF162
 1978 02f1 05       		.byte	0x5
 1979 02f2 01       		.uleb128 0x1
 1980 02f3 E2000000 		.4byte	.LASF163
 1981 02f7 05       		.byte	0x5
 1982 02f8 01       		.uleb128 0x1
 1983 02f9 D9270000 		.4byte	.LASF164
 1984 02fd 05       		.byte	0x5
 1985 02fe 01       		.uleb128 0x1
 1986 02ff 8A190000 		.4byte	.LASF165
 1987 0303 05       		.byte	0x5
 1988 0304 01       		.uleb128 0x1
 1989 0305 C61E0000 		.4byte	.LASF166
 1990 0309 05       		.byte	0x5
 1991 030a 01       		.uleb128 0x1
 1992 030b FB010000 		.4byte	.LASF167
 1993 030f 05       		.byte	0x5
 1994 0310 01       		.uleb128 0x1
 1995 0311 D31B0000 		.4byte	.LASF168
 1996 0315 05       		.byte	0x5
 1997 0316 01       		.uleb128 0x1
 1998 0317 7F230000 		.4byte	.LASF169
 1999 031b 05       		.byte	0x5
 2000 031c 01       		.uleb128 0x1
 2001 031d E50B0000 		.4byte	.LASF170
 2002 0321 05       		.byte	0x5
 2003 0322 01       		.uleb128 0x1
 2004 0323 E2120000 		.4byte	.LASF171
 2005 0327 05       		.byte	0x5
ARM GAS  /tmp/ccZ1pKfK.s 			page 38


 2006 0328 01       		.uleb128 0x1
 2007 0329 65080000 		.4byte	.LASF172
 2008 032d 05       		.byte	0x5
 2009 032e 01       		.uleb128 0x1
 2010 032f 5A0E0000 		.4byte	.LASF173
 2011 0333 05       		.byte	0x5
 2012 0334 01       		.uleb128 0x1
 2013 0335 0B050000 		.4byte	.LASF174
 2014 0339 05       		.byte	0x5
 2015 033a 01       		.uleb128 0x1
 2016 033b 4B150000 		.4byte	.LASF175
 2017 033f 05       		.byte	0x5
 2018 0340 01       		.uleb128 0x1
 2019 0341 1F020000 		.4byte	.LASF176
 2020 0345 05       		.byte	0x5
 2021 0346 01       		.uleb128 0x1
 2022 0347 99120000 		.4byte	.LASF177
 2023 034b 05       		.byte	0x5
 2024 034c 01       		.uleb128 0x1
 2025 034d D1180000 		.4byte	.LASF178
 2026 0351 05       		.byte	0x5
 2027 0352 01       		.uleb128 0x1
 2028 0353 702B0000 		.4byte	.LASF179
 2029 0357 05       		.byte	0x5
 2030 0358 01       		.uleb128 0x1
 2031 0359 A7000000 		.4byte	.LASF180
 2032 035d 05       		.byte	0x5
 2033 035e 01       		.uleb128 0x1
 2034 035f EB020000 		.4byte	.LASF181
 2035 0363 05       		.byte	0x5
 2036 0364 01       		.uleb128 0x1
 2037 0365 D40C0000 		.4byte	.LASF182
 2038 0369 05       		.byte	0x5
 2039 036a 01       		.uleb128 0x1
 2040 036b 0E0A0000 		.4byte	.LASF183
 2041 036f 05       		.byte	0x5
 2042 0370 01       		.uleb128 0x1
 2043 0371 132B0000 		.4byte	.LASF184
 2044 0375 05       		.byte	0x5
 2045 0376 01       		.uleb128 0x1
 2046 0377 FD2C0000 		.4byte	.LASF185
 2047 037b 05       		.byte	0x5
 2048 037c 01       		.uleb128 0x1
 2049 037d DA290000 		.4byte	.LASF186
 2050 0381 05       		.byte	0x5
 2051 0382 01       		.uleb128 0x1
 2052 0383 290C0000 		.4byte	.LASF187
 2053 0387 05       		.byte	0x5
 2054 0388 01       		.uleb128 0x1
 2055 0389 11170000 		.4byte	.LASF188
 2056 038d 05       		.byte	0x5
 2057 038e 01       		.uleb128 0x1
 2058 038f C7050000 		.4byte	.LASF189
 2059 0393 05       		.byte	0x5
 2060 0394 01       		.uleb128 0x1
 2061 0395 901B0000 		.4byte	.LASF190
 2062 0399 05       		.byte	0x5
ARM GAS  /tmp/ccZ1pKfK.s 			page 39


 2063 039a 01       		.uleb128 0x1
 2064 039b 10240000 		.4byte	.LASF191
 2065 039f 05       		.byte	0x5
 2066 03a0 01       		.uleb128 0x1
 2067 03a1 9C200000 		.4byte	.LASF192
 2068 03a5 05       		.byte	0x5
 2069 03a6 01       		.uleb128 0x1
 2070 03a7 B81C0000 		.4byte	.LASF193
 2071 03ab 05       		.byte	0x5
 2072 03ac 01       		.uleb128 0x1
 2073 03ad A32C0000 		.4byte	.LASF194
 2074 03b1 05       		.byte	0x5
 2075 03b2 01       		.uleb128 0x1
 2076 03b3 AF160000 		.4byte	.LASF195
 2077 03b7 05       		.byte	0x5
 2078 03b8 01       		.uleb128 0x1
 2079 03b9 091B0000 		.4byte	.LASF196
 2080 03bd 05       		.byte	0x5
 2081 03be 01       		.uleb128 0x1
 2082 03bf 58280000 		.4byte	.LASF197
 2083 03c3 05       		.byte	0x5
 2084 03c4 01       		.uleb128 0x1
 2085 03c5 BE0D0000 		.4byte	.LASF198
 2086 03c9 05       		.byte	0x5
 2087 03ca 01       		.uleb128 0x1
 2088 03cb 872E0000 		.4byte	.LASF199
 2089 03cf 05       		.byte	0x5
 2090 03d0 01       		.uleb128 0x1
 2091 03d1 3E1B0000 		.4byte	.LASF200
 2092 03d5 05       		.byte	0x5
 2093 03d6 01       		.uleb128 0x1
 2094 03d7 50210000 		.4byte	.LASF201
 2095 03db 05       		.byte	0x5
 2096 03dc 01       		.uleb128 0x1
 2097 03dd 411C0000 		.4byte	.LASF202
 2098 03e1 05       		.byte	0x5
 2099 03e2 01       		.uleb128 0x1
 2100 03e3 0E280000 		.4byte	.LASF203
 2101 03e7 05       		.byte	0x5
 2102 03e8 01       		.uleb128 0x1
 2103 03e9 EA0E0000 		.4byte	.LASF204
 2104 03ed 05       		.byte	0x5
 2105 03ee 01       		.uleb128 0x1
 2106 03ef 770A0000 		.4byte	.LASF205
 2107 03f3 05       		.byte	0x5
 2108 03f4 01       		.uleb128 0x1
 2109 03f5 C2140000 		.4byte	.LASF206
 2110 03f9 05       		.byte	0x5
 2111 03fa 01       		.uleb128 0x1
 2112 03fb AE050000 		.4byte	.LASF207
 2113 03ff 05       		.byte	0x5
 2114 0400 01       		.uleb128 0x1
 2115 0401 05180000 		.4byte	.LASF208
 2116 0405 05       		.byte	0x5
 2117 0406 01       		.uleb128 0x1
 2118 0407 BE2E0000 		.4byte	.LASF209
 2119 040b 05       		.byte	0x5
ARM GAS  /tmp/ccZ1pKfK.s 			page 40


 2120 040c 01       		.uleb128 0x1
 2121 040d BE130000 		.4byte	.LASF210
 2122 0411 05       		.byte	0x5
 2123 0412 01       		.uleb128 0x1
 2124 0413 27200000 		.4byte	.LASF211
 2125 0417 05       		.byte	0x5
 2126 0418 01       		.uleb128 0x1
 2127 0419 C52D0000 		.4byte	.LASF212
 2128 041d 05       		.byte	0x5
 2129 041e 01       		.uleb128 0x1
 2130 041f 030D0000 		.4byte	.LASF213
 2131 0423 05       		.byte	0x5
 2132 0424 01       		.uleb128 0x1
 2133 0425 23010000 		.4byte	.LASF214
 2134 0429 05       		.byte	0x5
 2135 042a 01       		.uleb128 0x1
 2136 042b 5C000000 		.4byte	.LASF215
 2137 042f 05       		.byte	0x5
 2138 0430 01       		.uleb128 0x1
 2139 0431 F0280000 		.4byte	.LASF216
 2140 0435 05       		.byte	0x5
 2141 0436 01       		.uleb128 0x1
 2142 0437 400B0000 		.4byte	.LASF217
 2143 043b 05       		.byte	0x5
 2144 043c 01       		.uleb128 0x1
 2145 043d EE200000 		.4byte	.LASF218
 2146 0441 05       		.byte	0x5
 2147 0442 01       		.uleb128 0x1
 2148 0443 E2040000 		.4byte	.LASF219
 2149 0447 05       		.byte	0x5
 2150 0448 01       		.uleb128 0x1
 2151 0449 422C0000 		.4byte	.LASF220
 2152 044d 05       		.byte	0x5
 2153 044e 01       		.uleb128 0x1
 2154 044f 8A0B0000 		.4byte	.LASF221
 2155 0453 05       		.byte	0x5
 2156 0454 01       		.uleb128 0x1
 2157 0455 592A0000 		.4byte	.LASF222
 2158 0459 05       		.byte	0x5
 2159 045a 01       		.uleb128 0x1
 2160 045b D01C0000 		.4byte	.LASF223
 2161 045f 05       		.byte	0x5
 2162 0460 01       		.uleb128 0x1
 2163 0461 15230000 		.4byte	.LASF224
 2164 0465 05       		.byte	0x5
 2165 0466 01       		.uleb128 0x1
 2166 0467 FF1D0000 		.4byte	.LASF225
 2167 046b 05       		.byte	0x5
 2168 046c 01       		.uleb128 0x1
 2169 046d F10A0000 		.4byte	.LASF226
 2170 0471 05       		.byte	0x5
 2171 0472 01       		.uleb128 0x1
 2172 0473 5B250000 		.4byte	.LASF227
 2173 0477 05       		.byte	0x5
 2174 0478 01       		.uleb128 0x1
 2175 0479 B4220000 		.4byte	.LASF228
 2176 047d 05       		.byte	0x5
ARM GAS  /tmp/ccZ1pKfK.s 			page 41


 2177 047e 01       		.uleb128 0x1
 2178 047f BB280000 		.4byte	.LASF229
 2179 0483 05       		.byte	0x5
 2180 0484 01       		.uleb128 0x1
 2181 0485 36030000 		.4byte	.LASF230
 2182 0489 05       		.byte	0x5
 2183 048a 01       		.uleb128 0x1
 2184 048b B60F0000 		.4byte	.LASF231
 2185 048f 05       		.byte	0x5
 2186 0490 01       		.uleb128 0x1
 2187 0491 07220000 		.4byte	.LASF232
 2188 0495 05       		.byte	0x5
 2189 0496 01       		.uleb128 0x1
 2190 0497 0D130000 		.4byte	.LASF233
 2191 049b 05       		.byte	0x5
 2192 049c 01       		.uleb128 0x1
 2193 049d F81A0000 		.4byte	.LASF234
 2194 04a1 05       		.byte	0x5
 2195 04a2 01       		.uleb128 0x1
 2196 04a3 290D0000 		.4byte	.LASF235
 2197 04a7 05       		.byte	0x5
 2198 04a8 01       		.uleb128 0x1
 2199 04a9 5F1A0000 		.4byte	.LASF236
 2200 04ad 05       		.byte	0x5
 2201 04ae 01       		.uleb128 0x1
 2202 04af D10F0000 		.4byte	.LASF237
 2203 04b3 05       		.byte	0x5
 2204 04b4 01       		.uleb128 0x1
 2205 04b5 F2170000 		.4byte	.LASF238
 2206 04b9 05       		.byte	0x5
 2207 04ba 01       		.uleb128 0x1
 2208 04bb 2F1C0000 		.4byte	.LASF239
 2209 04bf 05       		.byte	0x5
 2210 04c0 01       		.uleb128 0x1
 2211 04c1 C71A0000 		.4byte	.LASF240
 2212 04c5 05       		.byte	0x5
 2213 04c6 01       		.uleb128 0x1
 2214 04c7 D50A0000 		.4byte	.LASF241
 2215 04cb 05       		.byte	0x5
 2216 04cc 01       		.uleb128 0x1
 2217 04cd 97150000 		.4byte	.LASF242
 2218 04d1 05       		.byte	0x5
 2219 04d2 01       		.uleb128 0x1
 2220 04d3 DE140000 		.4byte	.LASF243
 2221 04d7 05       		.byte	0x5
 2222 04d8 01       		.uleb128 0x1
 2223 04d9 21070000 		.4byte	.LASF244
 2224 04dd 05       		.byte	0x5
 2225 04de 01       		.uleb128 0x1
 2226 04df C1200000 		.4byte	.LASF245
 2227 04e3 05       		.byte	0x5
 2228 04e4 01       		.uleb128 0x1
 2229 04e5 762D0000 		.4byte	.LASF246
 2230 04e9 05       		.byte	0x5
 2231 04ea 01       		.uleb128 0x1
 2232 04eb 560C0000 		.4byte	.LASF247
 2233 04ef 05       		.byte	0x5
ARM GAS  /tmp/ccZ1pKfK.s 			page 42


 2234 04f0 01       		.uleb128 0x1
 2235 04f1 A0190000 		.4byte	.LASF248
 2236 04f5 05       		.byte	0x5
 2237 04f6 01       		.uleb128 0x1
 2238 04f7 C30B0000 		.4byte	.LASF249
 2239 04fb 05       		.byte	0x5
 2240 04fc 01       		.uleb128 0x1
 2241 04fd B4110000 		.4byte	.LASF250
 2242 0501 05       		.byte	0x5
 2243 0502 01       		.uleb128 0x1
 2244 0503 70240000 		.4byte	.LASF251
 2245 0507 05       		.byte	0x5
 2246 0508 01       		.uleb128 0x1
 2247 0509 6B0B0000 		.4byte	.LASF252
 2248 050d 05       		.byte	0x5
 2249 050e 01       		.uleb128 0x1
 2250 050f EB130000 		.4byte	.LASF253
 2251 0513 05       		.byte	0x5
 2252 0514 01       		.uleb128 0x1
 2253 0515 420E0000 		.4byte	.LASF254
 2254 0519 05       		.byte	0x5
 2255 051a 01       		.uleb128 0x1
 2256 051b 372E0000 		.4byte	.LASF255
 2257 051f 05       		.byte	0x5
 2258 0520 01       		.uleb128 0x1
 2259 0521 C0090000 		.4byte	.LASF256
 2260 0525 05       		.byte	0x5
 2261 0526 01       		.uleb128 0x1
 2262 0527 991C0000 		.4byte	.LASF257
 2263 052b 05       		.byte	0x5
 2264 052c 01       		.uleb128 0x1
 2265 052d A91B0000 		.4byte	.LASF258
 2266 0531 05       		.byte	0x5
 2267 0532 01       		.uleb128 0x1
 2268 0533 A3070000 		.4byte	.LASF259
 2269 0537 05       		.byte	0x5
 2270 0538 01       		.uleb128 0x1
 2271 0539 100C0000 		.4byte	.LASF260
 2272 053d 05       		.byte	0x5
 2273 053e 01       		.uleb128 0x1
 2274 053f B6040000 		.4byte	.LASF261
 2275 0543 05       		.byte	0x5
 2276 0544 01       		.uleb128 0x1
 2277 0545 662E0000 		.4byte	.LASF262
 2278 0549 05       		.byte	0x5
 2279 054a 01       		.uleb128 0x1
 2280 054b C20C0000 		.4byte	.LASF263
 2281 054f 05       		.byte	0x5
 2282 0550 01       		.uleb128 0x1
 2283 0551 092A0000 		.4byte	.LASF264
 2284 0555 05       		.byte	0x5
 2285 0556 01       		.uleb128 0x1
 2286 0557 A0240000 		.4byte	.LASF265
 2287 055b 05       		.byte	0x5
 2288 055c 01       		.uleb128 0x1
 2289 055d EC160000 		.4byte	.LASF266
 2290 0561 05       		.byte	0x5
ARM GAS  /tmp/ccZ1pKfK.s 			page 43


 2291 0562 01       		.uleb128 0x1
 2292 0563 4B100000 		.4byte	.LASF267
 2293 0567 05       		.byte	0x5
 2294 0568 01       		.uleb128 0x1
 2295 0569 EB0D0000 		.4byte	.LASF268
 2296 056d 05       		.byte	0x5
 2297 056e 01       		.uleb128 0x1
 2298 056f B3120000 		.4byte	.LASF269
 2299 0573 05       		.byte	0x5
 2300 0574 01       		.uleb128 0x1
 2301 0575 8D110000 		.4byte	.LASF270
 2302 0579 05       		.byte	0x5
 2303 057a 01       		.uleb128 0x1
 2304 057b B70E0000 		.4byte	.LASF271
 2305 057f 05       		.byte	0x5
 2306 0580 01       		.uleb128 0x1
 2307 0581 8D0A0000 		.4byte	.LASF272
 2308 0585 05       		.byte	0x5
 2309 0586 01       		.uleb128 0x1
 2310 0587 8B130000 		.4byte	.LASF273
 2311 058b 05       		.byte	0x5
 2312 058c 01       		.uleb128 0x1
 2313 058d AC0D0000 		.4byte	.LASF274
 2314 0591 05       		.byte	0x5
 2315 0592 01       		.uleb128 0x1
 2316 0593 081A0000 		.4byte	.LASF275
 2317 0597 05       		.byte	0x5
 2318 0598 01       		.uleb128 0x1
 2319 0599 B0250000 		.4byte	.LASF276
 2320 059d 05       		.byte	0x5
 2321 059e 01       		.uleb128 0x1
 2322 059f D2150000 		.4byte	.LASF277
 2323 05a3 05       		.byte	0x5
 2324 05a4 01       		.uleb128 0x1
 2325 05a5 252F0000 		.4byte	.LASF278
 2326 05a9 05       		.byte	0x5
 2327 05aa 01       		.uleb128 0x1
 2328 05ab 5F120000 		.4byte	.LASF279
 2329 05af 05       		.byte	0x5
 2330 05b0 01       		.uleb128 0x1
 2331 05b1 410C0000 		.4byte	.LASF280
 2332 05b5 05       		.byte	0x5
 2333 05b6 01       		.uleb128 0x1
 2334 05b7 FC1F0000 		.4byte	.LASF281
 2335 05bb 05       		.byte	0x5
 2336 05bc 01       		.uleb128 0x1
 2337 05bd 790D0000 		.4byte	.LASF282
 2338 05c1 05       		.byte	0x5
 2339 05c2 01       		.uleb128 0x1
 2340 05c3 84150000 		.4byte	.LASF283
 2341 05c7 05       		.byte	0x5
 2342 05c8 01       		.uleb128 0x1
 2343 05c9 890F0000 		.4byte	.LASF284
 2344 05cd 05       		.byte	0x5
 2345 05ce 01       		.uleb128 0x1
 2346 05cf FE070000 		.4byte	.LASF285
 2347 05d3 05       		.byte	0x5
ARM GAS  /tmp/ccZ1pKfK.s 			page 44


 2348 05d4 01       		.uleb128 0x1
 2349 05d5 821E0000 		.4byte	.LASF286
 2350 05d9 05       		.byte	0x5
 2351 05da 01       		.uleb128 0x1
 2352 05db 3E250000 		.4byte	.LASF287
 2353 05df 05       		.byte	0x5
 2354 05e0 01       		.uleb128 0x1
 2355 05e1 891A0000 		.4byte	.LASF288
 2356 05e5 05       		.byte	0x5
 2357 05e6 01       		.uleb128 0x1
 2358 05e7 D7130000 		.4byte	.LASF289
 2359 05eb 05       		.byte	0x5
 2360 05ec 01       		.uleb128 0x1
 2361 05ed 4E080000 		.4byte	.LASF290
 2362 05f1 05       		.byte	0x5
 2363 05f2 01       		.uleb128 0x1
 2364 05f3 AB0A0000 		.4byte	.LASF291
 2365 05f7 05       		.byte	0x5
 2366 05f8 01       		.uleb128 0x1
 2367 05f9 2A1E0000 		.4byte	.LASF292
 2368 05fd 05       		.byte	0x5
 2369 05fe 01       		.uleb128 0x1
 2370 05ff B12D0000 		.4byte	.LASF293
 2371 0603 05       		.byte	0x5
 2372 0604 01       		.uleb128 0x1
 2373 0605 EE050000 		.4byte	.LASF294
 2374 0609 05       		.byte	0x5
 2375 060a 01       		.uleb128 0x1
 2376 060b EC0F0000 		.4byte	.LASF295
 2377 060f 05       		.byte	0x5
 2378 0610 01       		.uleb128 0x1
 2379 0611 2D110000 		.4byte	.LASF296
 2380 0615 05       		.byte	0x5
 2381 0616 01       		.uleb128 0x1
 2382 0617 6E110000 		.4byte	.LASF297
 2383 061b 05       		.byte	0x5
 2384 061c 01       		.uleb128 0x1
 2385 061d 86290000 		.4byte	.LASF298
 2386 0621 05       		.byte	0x5
 2387 0622 01       		.uleb128 0x1
 2388 0623 7B220000 		.4byte	.LASF299
 2389 0627 05       		.byte	0x5
 2390 0628 01       		.uleb128 0x1
 2391 0629 53090000 		.4byte	.LASF300
 2392 062d 05       		.byte	0x5
 2393 062e 01       		.uleb128 0x1
 2394 062f 22080000 		.4byte	.LASF301
 2395 0633 05       		.byte	0x5
 2396 0634 01       		.uleb128 0x1
 2397 0635 9D2E0000 		.4byte	.LASF302
 2398 0639 05       		.byte	0x5
 2399 063a 01       		.uleb128 0x1
 2400 063b BC2B0000 		.4byte	.LASF303
 2401 063f 05       		.byte	0x5
 2402 0640 01       		.uleb128 0x1
 2403 0641 0A0B0000 		.4byte	.LASF304
 2404 0645 05       		.byte	0x5
ARM GAS  /tmp/ccZ1pKfK.s 			page 45


 2405 0646 01       		.uleb128 0x1
 2406 0647 D7220000 		.4byte	.LASF305
 2407 064b 05       		.byte	0x5
 2408 064c 01       		.uleb128 0x1
 2409 064d 40140000 		.4byte	.LASF306
 2410 0651 05       		.byte	0x5
 2411 0652 01       		.uleb128 0x1
 2412 0653 B2200000 		.4byte	.LASF307
 2413 0657 05       		.byte	0x5
 2414 0658 01       		.uleb128 0x1
 2415 0659 B81E0000 		.4byte	.LASF308
 2416 065d 05       		.byte	0x5
 2417 065e 01       		.uleb128 0x1
 2418 065f F01D0000 		.4byte	.LASF309
 2419 0663 05       		.byte	0x5
 2420 0664 01       		.uleb128 0x1
 2421 0665 07290000 		.4byte	.LASF310
 2422 0669 05       		.byte	0x5
 2423 066a 01       		.uleb128 0x1
 2424 066b F7210000 		.4byte	.LASF311
 2425 066f 05       		.byte	0x5
 2426 0670 01       		.uleb128 0x1
 2427 0671 38170000 		.4byte	.LASF312
 2428 0675 05       		.byte	0x5
 2429 0676 01       		.uleb128 0x1
 2430 0677 9D1F0000 		.4byte	.LASF313
 2431 067b 05       		.byte	0x5
 2432 067c 01       		.uleb128 0x1
 2433 067d 3E230000 		.4byte	.LASF314
 2434 0681 05       		.byte	0x5
 2435 0682 01       		.uleb128 0x1
 2436 0683 3D200000 		.4byte	.LASF315
 2437 0687 05       		.byte	0x5
 2438 0688 01       		.uleb128 0x1
 2439 0689 D7100000 		.4byte	.LASF316
 2440 068d 05       		.byte	0x5
 2441 068e 01       		.uleb128 0x1
 2442 068f 80250000 		.4byte	.LASF317
 2443 0693 05       		.byte	0x5
 2444 0694 01       		.uleb128 0x1
 2445 0695 DF110000 		.4byte	.LASF318
 2446 0699 05       		.byte	0x5
 2447 069a 01       		.uleb128 0x1
 2448 069b C7220000 		.4byte	.LASF319
 2449 069f 05       		.byte	0x5
 2450 06a0 01       		.uleb128 0x1
 2451 06a1 CF010000 		.4byte	.LASF320
 2452 06a5 05       		.byte	0x5
 2453 06a6 01       		.uleb128 0x1
 2454 06a7 28160000 		.4byte	.LASF321
 2455 06ab 05       		.byte	0x5
 2456 06ac 01       		.uleb128 0x1
 2457 06ad D60B0000 		.4byte	.LASF322
 2458 06b1 05       		.byte	0x5
 2459 06b2 01       		.uleb128 0x1
 2460 06b3 92240000 		.4byte	.LASF323
 2461 06b7 05       		.byte	0x5
ARM GAS  /tmp/ccZ1pKfK.s 			page 46


 2462 06b8 01       		.uleb128 0x1
 2463 06b9 90250000 		.4byte	.LASF324
 2464 06bd 05       		.byte	0x5
 2465 06be 01       		.uleb128 0x1
 2466 06bf 2A100000 		.4byte	.LASF325
 2467 06c3 05       		.byte	0x5
 2468 06c4 01       		.uleb128 0x1
 2469 06c5 B1090000 		.4byte	.LASF326
 2470 06c9 05       		.byte	0x5
 2471 06ca 01       		.uleb128 0x1
 2472 06cb 540A0000 		.4byte	.LASF327
 2473 06cf 05       		.byte	0x5
 2474 06d0 01       		.uleb128 0x1
 2475 06d1 620F0000 		.4byte	.LASF328
 2476 06d5 05       		.byte	0x5
 2477 06d6 01       		.uleb128 0x1
 2478 06d7 2F1B0000 		.4byte	.LASF329
 2479 06db 05       		.byte	0x5
 2480 06dc 01       		.uleb128 0x1
 2481 06dd AD2B0000 		.4byte	.LASF330
 2482 06e1 05       		.byte	0x5
 2483 06e2 01       		.uleb128 0x1
 2484 06e3 46170000 		.4byte	.LASF331
 2485 06e7 05       		.byte	0x5
 2486 06e8 01       		.uleb128 0x1
 2487 06e9 06230000 		.4byte	.LASF332
 2488 06ed 05       		.byte	0x5
 2489 06ee 01       		.uleb128 0x1
 2490 06ef FF130000 		.4byte	.LASF333
 2491 06f3 05       		.byte	0x5
 2492 06f4 01       		.uleb128 0x1
 2493 06f5 320E0000 		.4byte	.LASF334
 2494 06f9 05       		.byte	0x5
 2495 06fa 01       		.uleb128 0x1
 2496 06fb 962D0000 		.4byte	.LASF335
 2497 06ff 05       		.byte	0x5
 2498 0700 01       		.uleb128 0x1
 2499 0701 A7080000 		.4byte	.LASF336
 2500 0705 05       		.byte	0x5
 2501 0706 01       		.uleb128 0x1
 2502 0707 FB040000 		.4byte	.LASF337
 2503 070b 05       		.byte	0x5
 2504 070c 01       		.uleb128 0x1
 2505 070d 3A2D0000 		.4byte	.LASF338
 2506 0711 05       		.byte	0x5
 2507 0712 01       		.uleb128 0x1
 2508 0713 EE110000 		.4byte	.LASF339
 2509 0717 05       		.byte	0x5
 2510 0718 01       		.uleb128 0x1
 2511 0719 83210000 		.4byte	.LASF340
 2512 071d 05       		.byte	0x5
 2513 071e 01       		.uleb128 0x1
 2514 071f C0100000 		.4byte	.LASF341
 2515 0723 05       		.byte	0x5
 2516 0724 01       		.uleb128 0x1
 2517 0725 A4110000 		.4byte	.LASF342
 2518 0729 05       		.byte	0x5
ARM GAS  /tmp/ccZ1pKfK.s 			page 47


 2519 072a 01       		.uleb128 0x1
 2520 072b 81050000 		.4byte	.LASF343
 2521 072f 05       		.byte	0x5
 2522 0730 01       		.uleb128 0x1
 2523 0731 91160000 		.4byte	.LASF344
 2524 0735 05       		.byte	0x5
 2525 0736 01       		.uleb128 0x1
 2526 0737 A2100000 		.4byte	.LASF345
 2527 073b 05       		.byte	0x5
 2528 073c 01       		.uleb128 0x1
 2529 073d 37020000 		.4byte	.LASF346
 2530 0741 05       		.byte	0x5
 2531 0742 01       		.uleb128 0x1
 2532 0743 CE250000 		.4byte	.LASF347
 2533 0747 05       		.byte	0x5
 2534 0748 01       		.uleb128 0x1
 2535 0749 9D130000 		.4byte	.LASF348
 2536 074d 05       		.byte	0x5
 2537 074e 01       		.uleb128 0x1
 2538 074f 9B290000 		.4byte	.LASF349
 2539 0753 05       		.byte	0x5
 2540 0754 01       		.uleb128 0x1
 2541 0755 440D0000 		.4byte	.LASF350
 2542 0759 05       		.byte	0x5
 2543 075a 01       		.uleb128 0x1
 2544 075b B4150000 		.4byte	.LASF351
 2545 075f 05       		.byte	0x5
 2546 0760 01       		.uleb128 0x1
 2547 0761 BA270000 		.4byte	.LASF352
 2548 0765 05       		.byte	0x5
 2549 0766 01       		.uleb128 0x1
 2550 0767 B2170000 		.4byte	.LASF353
 2551 076b 05       		.byte	0x5
 2552 076c 01       		.uleb128 0x1
 2553 076d E0240000 		.4byte	.LASF354
 2554 0771 05       		.byte	0x5
 2555 0772 01       		.uleb128 0x1
 2556 0773 D6170000 		.4byte	.LASF355
 2557 0777 05       		.byte	0x5
 2558 0778 01       		.uleb128 0x1
 2559 0779 032E0000 		.4byte	.LASF356
 2560 077d 05       		.byte	0x5
 2561 077e 01       		.uleb128 0x1
 2562 077f BE1B0000 		.4byte	.LASF357
 2563 0783 05       		.byte	0x5
 2564 0784 01       		.uleb128 0x1
 2565 0785 83020000 		.4byte	.LASF358
 2566 0789 05       		.byte	0x5
 2567 078a 01       		.uleb128 0x1
 2568 078b 1B0E0000 		.4byte	.LASF359
 2569 078f 05       		.byte	0x5
 2570 0790 01       		.uleb128 0x1
 2571 0791 07170000 		.4byte	.LASF360
 2572 0795 05       		.byte	0x5
 2573 0796 01       		.uleb128 0x1
 2574 0797 9E2A0000 		.4byte	.LASF361
 2575 079b 05       		.byte	0x5
ARM GAS  /tmp/ccZ1pKfK.s 			page 48


 2576 079c 01       		.uleb128 0x1
 2577 079d 44210000 		.4byte	.LASF362
 2578 07a1 05       		.byte	0x5
 2579 07a2 01       		.uleb128 0x1
 2580 07a3 7C080000 		.4byte	.LASF363
 2581 07a7 05       		.byte	0x5
 2582 07a8 01       		.uleb128 0x1
 2583 07a9 AA1E0000 		.4byte	.LASF364
 2584 07ad 05       		.byte	0x5
 2585 07ae 01       		.uleb128 0x1
 2586 07af 2E270000 		.4byte	.LASF365
 2587 07b3 05       		.byte	0x5
 2588 07b4 01       		.uleb128 0x1
 2589 07b5 40240000 		.4byte	.LASF366
 2590 07b9 05       		.byte	0x5
 2591 07ba 01       		.uleb128 0x1
 2592 07bb F7120000 		.4byte	.LASF367
 2593 07bf 05       		.byte	0x5
 2594 07c0 01       		.uleb128 0x1
 2595 07c1 91070000 		.4byte	.LASF368
 2596 07c5 05       		.byte	0x5
 2597 07c6 01       		.uleb128 0x1
 2598 07c7 481D0000 		.4byte	.LASF369
 2599 07cb 05       		.byte	0x5
 2600 07cc 01       		.uleb128 0x1
 2601 07cd BA290000 		.4byte	.LASF370
 2602 07d1 05       		.byte	0x5
 2603 07d2 01       		.uleb128 0x1
 2604 07d3 090F0000 		.4byte	.LASF371
 2605 07d7 05       		.byte	0x5
 2606 07d8 01       		.uleb128 0x1
 2607 07d9 8A170000 		.4byte	.LASF372
 2608 07dd 05       		.byte	0x5
 2609 07de 00       		.uleb128 0
 2610 07df 630A0000 		.4byte	.LASF373
 2611 07e3 00       		.byte	0
 2612              		.section	.debug_macro,"G",%progbits,wm4.newlib.h.8.a9901dc52d1357e3e94003403d43f8b5,comdat
 2613              	.Ldebug_macro2:
 2614 0000 0400     		.2byte	0x4
 2615 0002 00       		.byte	0
 2616 0003 05       		.byte	0x5
 2617 0004 08       		.uleb128 0x8
 2618 0005 1B2A0000 		.4byte	.LASF374
 2619 0009 05       		.byte	0x5
 2620 000a 0E       		.uleb128 0xe
 2621 000b 1B000000 		.4byte	.LASF375
 2622 000f 05       		.byte	0x5
 2623 0010 15       		.uleb128 0x15
 2624 0011 9A210000 		.4byte	.LASF376
 2625 0015 05       		.byte	0x5
 2626 0016 18       		.uleb128 0x18
 2627 0017 54010000 		.4byte	.LASF377
 2628 001b 05       		.byte	0x5
 2629 001c 28       		.uleb128 0x28
 2630 001d 3D150000 		.4byte	.LASF378
 2631 0021 05       		.byte	0x5
 2632 0022 32       		.uleb128 0x32
ARM GAS  /tmp/ccZ1pKfK.s 			page 49


 2633 0023 B7070000 		.4byte	.LASF379
 2634 0027 05       		.byte	0x5
 2635 0028 36       		.uleb128 0x36
 2636 0029 03160000 		.4byte	.LASF380
 2637 002d 05       		.byte	0x5
 2638 002e 39       		.uleb128 0x39
 2639 002f DE080000 		.4byte	.LASF381
 2640 0033 05       		.byte	0x5
 2641 0034 3C       		.uleb128 0x3c
 2642 0035 35130000 		.4byte	.LASF382
 2643 0039 00       		.byte	0
 2644              		.section	.debug_macro,"G",%progbits,wm4.features.h.22.b72b3baab2bb2eab3661375590100b6b,comdat
 2645              	.Ldebug_macro3:
 2646 0000 0400     		.2byte	0x4
 2647 0002 00       		.byte	0
 2648 0003 05       		.byte	0x5
 2649 0004 16       		.uleb128 0x16
 2650 0005 180B0000 		.4byte	.LASF383
 2651 0009 05       		.byte	0x5
 2652 000a 1F       		.uleb128 0x1f
 2653 000b 97020000 		.4byte	.LASF384
 2654 000f 00       		.byte	0
 2655              		.section	.debug_macro,"G",%progbits,wm4.config.h.193.5fb8ef056cdff92dec3dee9552839d8c,comdat
 2656              	.Ldebug_macro4:
 2657 0000 0400     		.2byte	0x4
 2658 0002 00       		.byte	0
 2659 0003 05       		.byte	0x5
 2660 0004 C101     		.uleb128 0xc1
 2661 0006 D8210000 		.4byte	.LASF385
 2662 000a 06       		.byte	0x6
 2663 000b C701     		.uleb128 0xc7
 2664 000d 1C200000 		.4byte	.LASF386
 2665 0011 05       		.byte	0x5
 2666 0012 CB01     		.uleb128 0xcb
 2667 0014 C1230000 		.4byte	.LASF387
 2668 0018 05       		.byte	0x5
 2669 0019 DB01     		.uleb128 0xdb
 2670 001b 51220000 		.4byte	.LASF388
 2671 001f 05       		.byte	0x5
 2672 0020 DF01     		.uleb128 0xdf
 2673 0022 992C0000 		.4byte	.LASF389
 2674 0026 05       		.byte	0x5
 2675 0027 E601     		.uleb128 0xe6
 2676 0029 5A060000 		.4byte	.LASF390
 2677 002d 00       		.byte	0
 2678              		.section	.debug_macro,"G",%progbits,wm4._ansi.h.23.7aefdac4826acebbfc9f3822a0aeb14c,comdat
 2679              	.Ldebug_macro5:
 2680 0000 0400     		.2byte	0x4
 2681 0002 00       		.byte	0
 2682 0003 05       		.byte	0x5
 2683 0004 17       		.uleb128 0x17
 2684 0005 95280000 		.4byte	.LASF391
 2685 0009 05       		.byte	0x5
 2686 000a 2C       		.uleb128 0x2c
 2687 000b F52D0000 		.4byte	.LASF392
 2688 000f 05       		.byte	0x5
 2689 0010 2D       		.uleb128 0x2d
ARM GAS  /tmp/ccZ1pKfK.s 			page 50


 2690 0011 3B060000 		.4byte	.LASF393
 2691 0015 05       		.byte	0x5
 2692 0016 2E       		.uleb128 0x2e
 2693 0017 4E280000 		.4byte	.LASF394
 2694 001b 05       		.byte	0x5
 2695 001c 32       		.uleb128 0x32
 2696 001d 22090000 		.4byte	.LASF395
 2697 0021 05       		.byte	0x5
 2698 0022 33       		.uleb128 0x33
 2699 0023 6A140000 		.4byte	.LASF396
 2700 0027 05       		.byte	0x5
 2701 0028 34       		.uleb128 0x34
 2702 0029 4C050000 		.4byte	.LASF397
 2703 002d 05       		.byte	0x5
 2704 002e 35       		.uleb128 0x35
 2705 002f AA0E0000 		.4byte	.LASF398
 2706 0033 05       		.byte	0x5
 2707 0034 36       		.uleb128 0x36
 2708 0035 03120000 		.4byte	.LASF399
 2709 0039 05       		.byte	0x5
 2710 003a 37       		.uleb128 0x37
 2711 003b DF200000 		.4byte	.LASF400
 2712 003f 05       		.byte	0x5
 2713 0040 38       		.uleb128 0x38
 2714 0041 22270000 		.4byte	.LASF401
 2715 0045 05       		.byte	0x5
 2716 0046 39       		.uleb128 0x39
 2717 0047 FB000000 		.4byte	.LASF402
 2718 004b 05       		.byte	0x5
 2719 004c 40       		.uleb128 0x40
 2720 004d AC2A0000 		.4byte	.LASF403
 2721 0051 05       		.byte	0x5
 2722 0052 41       		.uleb128 0x41
 2723 0053 B62C0000 		.4byte	.LASF404
 2724 0057 05       		.byte	0x5
 2725 0058 42       		.uleb128 0x42
 2726 0059 4D240000 		.4byte	.LASF405
 2727 005d 05       		.byte	0x5
 2728 005e 43       		.uleb128 0x43
 2729 005f 34260000 		.4byte	.LASF406
 2730 0063 05       		.byte	0x5
 2731 0064 45       		.uleb128 0x45
 2732 0065 771D0000 		.4byte	.LASF407
 2733 0069 05       		.byte	0x5
 2734 006a 46       		.uleb128 0x46
 2735 006b 4D030000 		.4byte	.LASF408
 2736 006f 05       		.byte	0x5
 2737 0070 47       		.uleb128 0x47
 2738 0071 26170000 		.4byte	.LASF409
 2739 0075 05       		.byte	0x5
 2740 0076 49       		.uleb128 0x49
 2741 0077 27140000 		.4byte	.LASF410
 2742 007b 05       		.byte	0x5
 2743 007c 4C       		.uleb128 0x4c
 2744 007d 720E0000 		.4byte	.LASF411
 2745 0081 05       		.byte	0x5
 2746 0082 4F       		.uleb128 0x4f
ARM GAS  /tmp/ccZ1pKfK.s 			page 51


 2747 0083 7C2C0000 		.4byte	.LASF412
 2748 0087 05       		.byte	0x5
 2749 0088 69       		.uleb128 0x69
 2750 0089 FA260000 		.4byte	.LASF413
 2751 008d 05       		.byte	0x5
 2752 008e 8001     		.uleb128 0x80
 2753 0090 1A030000 		.4byte	.LASF414
 2754 0094 05       		.byte	0x5
 2755 0095 8401     		.uleb128 0x84
 2756 0097 99140000 		.4byte	.LASF415
 2757 009b 05       		.byte	0x5
 2758 009c 8501     		.uleb128 0x85
 2759 009e 22210000 		.4byte	.LASF416
 2760 00a2 00       		.byte	0
 2761              		.section	.debug_macro,"G",%progbits,wm4.stdint.h.20.54ad762faa59e3c05491630641c8d8bf,comdat
 2762              	.Ldebug_macro6:
 2763 0000 0400     		.2byte	0x4
 2764 0002 00       		.byte	0
 2765 0003 05       		.byte	0x5
 2766 0004 14       		.uleb128 0x14
 2767 0005 74270000 		.4byte	.LASF417
 2768 0009 05       		.byte	0x5
 2769 000a 1E       		.uleb128 0x1e
 2770 000b 122D0000 		.4byte	.LASF418
 2771 000f 05       		.byte	0x5
 2772 0010 25       		.uleb128 0x25
 2773 0011 5B0B0000 		.4byte	.LASF419
 2774 0015 05       		.byte	0x5
 2775 0016 2B       		.uleb128 0x2b
 2776 0017 B51D0000 		.4byte	.LASF420
 2777 001b 05       		.byte	0x5
 2778 001c 31       		.uleb128 0x31
 2779 001d DC2D0000 		.4byte	.LASF421
 2780 0021 05       		.byte	0x5
 2781 0022 37       		.uleb128 0x37
 2782 0023 BE1F0000 		.4byte	.LASF422
 2783 0027 05       		.byte	0x5
 2784 0028 45       		.uleb128 0x45
 2785 0029 3F180000 		.4byte	.LASF423
 2786 002d 05       		.byte	0x5
 2787 002e 51       		.uleb128 0x51
 2788 002f 88200000 		.4byte	.LASF424
 2789 0033 05       		.byte	0x5
 2790 0034 63       		.uleb128 0x63
 2791 0035 39190000 		.4byte	.LASF425
 2792 0039 05       		.byte	0x5
 2793 003a 79       		.uleb128 0x79
 2794 003b 4E0F0000 		.4byte	.LASF426
 2795 003f 05       		.byte	0x5
 2796 0040 8301     		.uleb128 0x83
 2797 0042 77160000 		.4byte	.LASF427
 2798 0046 05       		.byte	0x5
 2799 0047 A101     		.uleb128 0xa1
 2800 0049 BE000000 		.4byte	.LASF428
 2801 004d 05       		.byte	0x5
 2802 004e A701     		.uleb128 0xa7
 2803 0050 9C1D0000 		.4byte	.LASF429
ARM GAS  /tmp/ccZ1pKfK.s 			page 52


 2804 0054 05       		.byte	0x5
 2805 0055 AD01     		.uleb128 0xad
 2806 0057 9B180000 		.4byte	.LASF430
 2807 005b 05       		.byte	0x5
 2808 005c D701     		.uleb128 0xd7
 2809 005e CA2B0000 		.4byte	.LASF431
 2810 0062 05       		.byte	0x5
 2811 0063 F501     		.uleb128 0xf5
 2812 0065 D7230000 		.4byte	.LASF432
 2813 0069 05       		.byte	0x5
 2814 006a F601     		.uleb128 0xf6
 2815 006c 90270000 		.4byte	.LASF433
 2816 0070 05       		.byte	0x5
 2817 0071 F801     		.uleb128 0xf8
 2818 0073 53190000 		.4byte	.LASF434
 2819 0077 05       		.byte	0x5
 2820 0078 8B02     		.uleb128 0x10b
 2821 007a 4E140000 		.4byte	.LASF435
 2822 007e 05       		.byte	0x5
 2823 007f 8C02     		.uleb128 0x10c
 2824 0081 1D1E0000 		.4byte	.LASF436
 2825 0085 05       		.byte	0x5
 2826 0086 8D02     		.uleb128 0x10d
 2827 0088 5C140000 		.4byte	.LASF437
 2828 008c 05       		.byte	0x5
 2829 008d 9102     		.uleb128 0x111
 2830 008f 262D0000 		.4byte	.LASF438
 2831 0093 05       		.byte	0x5
 2832 0094 9202     		.uleb128 0x112
 2833 0096 9A2B0000 		.4byte	.LASF439
 2834 009a 05       		.byte	0x5
 2835 009b 9302     		.uleb128 0x113
 2836 009d 25190000 		.4byte	.LASF440
 2837 00a1 05       		.byte	0x5
 2838 00a2 9902     		.uleb128 0x119
 2839 00a4 DE010000 		.4byte	.LASF441
 2840 00a8 05       		.byte	0x5
 2841 00a9 9A02     		.uleb128 0x11a
 2842 00ab 64270000 		.4byte	.LASF442
 2843 00af 05       		.byte	0x5
 2844 00b0 9B02     		.uleb128 0x11b
 2845 00b2 C8030000 		.4byte	.LASF443
 2846 00b6 05       		.byte	0x5
 2847 00b7 9F02     		.uleb128 0x11f
 2848 00b9 15060000 		.4byte	.LASF444
 2849 00bd 05       		.byte	0x5
 2850 00be A002     		.uleb128 0x120
 2851 00c0 EA090000 		.4byte	.LASF445
 2852 00c4 05       		.byte	0x5
 2853 00c5 A102     		.uleb128 0x121
 2854 00c7 57110000 		.4byte	.LASF446
 2855 00cb 05       		.byte	0x5
 2856 00cc A802     		.uleb128 0x128
 2857 00ce 5A150000 		.4byte	.LASF447
 2858 00d2 05       		.byte	0x5
 2859 00d3 A902     		.uleb128 0x129
 2860 00d5 960D0000 		.4byte	.LASF448
ARM GAS  /tmp/ccZ1pKfK.s 			page 53


 2861 00d9 05       		.byte	0x5
 2862 00da AA02     		.uleb128 0x12a
 2863 00dc 0F140000 		.4byte	.LASF449
 2864 00e0 05       		.byte	0x5
 2865 00e1 B402     		.uleb128 0x134
 2866 00e3 6C180000 		.4byte	.LASF450
 2867 00e7 05       		.byte	0x5
 2868 00e8 B502     		.uleb128 0x135
 2869 00ea BF260000 		.4byte	.LASF451
 2870 00ee 05       		.byte	0x5
 2871 00ef B602     		.uleb128 0x136
 2872 00f1 94170000 		.4byte	.LASF452
 2873 00f5 05       		.byte	0x5
 2874 00f6 C602     		.uleb128 0x146
 2875 00f8 491E0000 		.4byte	.LASF453
 2876 00fc 05       		.byte	0x5
 2877 00fd C702     		.uleb128 0x147
 2878 00ff 5B220000 		.4byte	.LASF454
 2879 0103 05       		.byte	0x5
 2880 0104 C802     		.uleb128 0x148
 2881 0106 251D0000 		.4byte	.LASF455
 2882 010a 05       		.byte	0x5
 2883 010b D202     		.uleb128 0x152
 2884 010d 321F0000 		.4byte	.LASF456
 2885 0111 05       		.byte	0x5
 2886 0112 D302     		.uleb128 0x153
 2887 0114 01250000 		.4byte	.LASF457
 2888 0118 05       		.byte	0x5
 2889 0119 D402     		.uleb128 0x154
 2890 011b AF210000 		.4byte	.LASF458
 2891 011f 05       		.byte	0x5
 2892 0120 DA02     		.uleb128 0x15a
 2893 0122 091F0000 		.4byte	.LASF459
 2894 0126 05       		.byte	0x5
 2895 0127 DB02     		.uleb128 0x15b
 2896 0129 2A0F0000 		.4byte	.LASF460
 2897 012d 05       		.byte	0x5
 2898 012e DC02     		.uleb128 0x15c
 2899 0130 DC1E0000 		.4byte	.LASF461
 2900 0134 05       		.byte	0x5
 2901 0135 E602     		.uleb128 0x166
 2902 0137 9D1A0000 		.4byte	.LASF462
 2903 013b 05       		.byte	0x5
 2904 013c E702     		.uleb128 0x167
 2905 013e 5F1F0000 		.4byte	.LASF463
 2906 0142 05       		.byte	0x5
 2907 0143 E802     		.uleb128 0x168
 2908 0145 DA190000 		.4byte	.LASF464
 2909 0149 05       		.byte	0x5
 2910 014a F202     		.uleb128 0x172
 2911 014c 07040000 		.4byte	.LASF465
 2912 0150 05       		.byte	0x5
 2913 0151 F302     		.uleb128 0x173
 2914 0153 92030000 		.4byte	.LASF466
 2915 0157 05       		.byte	0x5
 2916 0158 F402     		.uleb128 0x174
 2917 015a E52A0000 		.4byte	.LASF467
ARM GAS  /tmp/ccZ1pKfK.s 			page 54


 2918 015e 05       		.byte	0x5
 2919 015f 8203     		.uleb128 0x182
 2920 0161 DB260000 		.4byte	.LASF468
 2921 0165 05       		.byte	0x5
 2922 0166 8303     		.uleb128 0x183
 2923 0168 E6100000 		.4byte	.LASF469
 2924 016c 05       		.byte	0x5
 2925 016d 8403     		.uleb128 0x184
 2926 016f 041D0000 		.4byte	.LASF470
 2927 0173 05       		.byte	0x5
 2928 0174 8903     		.uleb128 0x189
 2929 0176 65200000 		.4byte	.LASF471
 2930 017a 05       		.byte	0x5
 2931 017b 8A03     		.uleb128 0x18a
 2932 017d 06010000 		.4byte	.LASF472
 2933 0181 05       		.byte	0x5
 2934 0182 9203     		.uleb128 0x192
 2935 0184 EB030000 		.4byte	.LASF473
 2936 0188 05       		.byte	0x5
 2937 0189 9A03     		.uleb128 0x19a
 2938 018b AE060000 		.4byte	.LASF474
 2939 018f 05       		.byte	0x5
 2940 0190 A003     		.uleb128 0x1a0
 2941 0192 E6180000 		.4byte	.LASF475
 2942 0196 05       		.byte	0x5
 2943 0197 A103     		.uleb128 0x1a1
 2944 0199 6D030000 		.4byte	.LASF476
 2945 019d 05       		.byte	0x5
 2946 019e A503     		.uleb128 0x1a5
 2947 01a0 06210000 		.4byte	.LASF477
 2948 01a4 05       		.byte	0x5
 2949 01a5 A903     		.uleb128 0x1a9
 2950 01a7 0C2C0000 		.4byte	.LASF478
 2951 01ab 05       		.byte	0x5
 2952 01ac AC03     		.uleb128 0x1ac
 2953 01ae 610D0000 		.4byte	.LASF479
 2954 01b2 05       		.byte	0x5
 2955 01b3 AF03     		.uleb128 0x1af
 2956 01b5 5D290000 		.4byte	.LASF480
 2957 01b9 05       		.byte	0x5
 2958 01ba B403     		.uleb128 0x1b4
 2959 01bc 561C0000 		.4byte	.LASF481
 2960 01c0 05       		.byte	0x5
 2961 01c1 B903     		.uleb128 0x1b9
 2962 01c3 AC0C0000 		.4byte	.LASF482
 2963 01c7 05       		.byte	0x5
 2964 01c8 BF03     		.uleb128 0x1bf
 2965 01ca 3D1A0000 		.4byte	.LASF483
 2966 01ce 05       		.byte	0x5
 2967 01cf C103     		.uleb128 0x1c1
 2968 01d1 EA210000 		.4byte	.LASF484
 2969 01d5 05       		.byte	0x5
 2970 01d6 C603     		.uleb128 0x1c6
 2971 01d8 1B160000 		.4byte	.LASF485
 2972 01dc 05       		.byte	0x5
 2973 01dd C803     		.uleb128 0x1c8
 2974 01df 8D180000 		.4byte	.LASF486
ARM GAS  /tmp/ccZ1pKfK.s 			page 55


 2975 01e3 05       		.byte	0x5
 2976 01e4 CE03     		.uleb128 0x1ce
 2977 01e6 75290000 		.4byte	.LASF487
 2978 01ea 05       		.byte	0x5
 2979 01eb CF03     		.uleb128 0x1cf
 2980 01ed 59180000 		.4byte	.LASF488
 2981 01f1 05       		.byte	0x5
 2982 01f2 DA03     		.uleb128 0x1da
 2983 01f4 39100000 		.4byte	.LASF489
 2984 01f8 05       		.byte	0x5
 2985 01f9 DB03     		.uleb128 0x1db
 2986 01fb 400A0000 		.4byte	.LASF490
 2987 01ff 05       		.byte	0x5
 2988 0200 E403     		.uleb128 0x1e4
 2989 0202 A7270000 		.4byte	.LASF491
 2990 0206 05       		.byte	0x5
 2991 0207 E503     		.uleb128 0x1e5
 2992 0209 E82C0000 		.4byte	.LASF492
 2993 020d 00       		.byte	0
 2994              		.section	.debug_line,"",%progbits
 2995              	.Ldebug_line0:
 2996 0000 10030000 		.section	.debug_str,"MS",%progbits,1
 2996      02001202 
 2996      00000201 
 2996      FB0E0D00 
 2996      01010101 
 2997              	.LASF115:
 2998 0000 5F5F5054 		.ascii	"__PTRDIFF_MAX__ 2147483647\000"
 2998      52444946 
 2998      465F4D41 
 2998      585F5F20 
 2998      32313437 
 2999              	.LASF375:
 3000 001b 5F4E4557 		.ascii	"_NEWLIB_VERSION \"1.19.0\"\000"
 3000      4C49425F 
 3000      56455253 
 3000      494F4E20 
 3000      22312E31 
 3001              	.LASF110:
 3002 0034 5F5F4C4F 		.ascii	"__LONG_LONG_MAX__ 9223372036854775807LL\000"
 3002      4E475F4C 
 3002      4F4E475F 
 3002      4D41585F 
 3002      5F203932 
 3003              	.LASF215:
 3004 005c 5F5F4445 		.ascii	"__DEC64_SUBNORMAL_MIN__ 0.000000000000001E-383DD\000"
 3004      4336345F 
 3004      5355424E 
 3004      4F524D41 
 3004      4C5F4D49 
 3005              	.LASF111:
 3006 008d 5F5F5743 		.ascii	"__WCHAR_MAX__ 4294967295U\000"
 3006      4841525F 
 3006      4D41585F 
 3006      5F203432 
 3006      39343936 
 3007              	.LASF180:
ARM GAS  /tmp/ccZ1pKfK.s 			page 56


 3008 00a7 5F5F4442 		.ascii	"__DBL_DECIMAL_DIG__ 17\000"
 3008      4C5F4445 
 3008      43494D41 
 3008      4C5F4449 
 3008      475F5F20 
 3009              	.LASF428:
 3010 00be 5F5F696E 		.ascii	"__int_fast8_t_defined 1\000"
 3010      745F6661 
 3010      7374385F 
 3010      745F6465 
 3010      66696E65 
 3011              	.LASF17:
 3012 00d6 73657269 		.ascii	"serial_send\000"
 3012      616C5F73 
 3012      656E6400 
 3013              	.LASF163:
 3014 00e2 5F5F464C 		.ascii	"__FLT_MIN_10_EXP__ (-37)\000"
 3014      545F4D49 
 3014      4E5F3130 
 3014      5F455850 
 3014      5F5F2028 
 3015              	.LASF402:
 3016 00fb 5F564F49 		.ascii	"_VOID void\000"
 3016      4420766F 
 3016      696400
 3017              	.LASF472:
 3018 0106 494E544D 		.ascii	"INTMAX_MIN (-INTMAX_MAX - 1)\000"
 3018      41585F4D 
 3018      494E2028 
 3018      2D494E54 
 3018      4D41585F 
 3019              	.LASF214:
 3020 0123 5F5F4445 		.ascii	"__DEC64_EPSILON__ 1E-15DD\000"
 3020      4336345F 
 3020      45505349 
 3020      4C4F4E5F 
 3020      5F203145 
 3021              	.LASF131:
 3022 013d 5F5F494E 		.ascii	"__INT_LEAST8_MAX__ 127\000"
 3022      545F4C45 
 3022      41535438 
 3022      5F4D4158 
 3022      5F5F2031 
 3023              	.LASF377:
 3024 0154 5F57414E 		.ascii	"_WANT_REGISTER_FINI 1\000"
 3024      545F5245 
 3024      47495354 
 3024      45525F46 
 3024      494E4920 
 3025              	.LASF123:
 3026 016a 5F5F494E 		.ascii	"__INT8_MAX__ 127\000"
 3026      54385F4D 
 3026      41585F5F 
 3026      20313237 
 3026      00
 3027              	.LASF140:
 3028 017b 5F5F5549 		.ascii	"__UINT8_C(c) c\000"
ARM GAS  /tmp/ccZ1pKfK.s 			page 57


 3028      4E54385F 
 3028      43286329 
 3028      206300
 3029              	.LASF125:
 3030 018a 5F5F494E 		.ascii	"__INT32_MAX__ 2147483647L\000"
 3030      5433325F 
 3030      4D41585F 
 3030      5F203231 
 3030      34373438 
 3031              	.LASF34:
 3032 01a4 5F5F5359 		.ascii	"__SYS_CONFIG_H__ \000"
 3032      535F434F 
 3032      4E464947 
 3032      5F485F5F 
 3032      2000
 3033              	.LASF109:
 3034 01b6 5F5F4C4F 		.ascii	"__LONG_MAX__ 2147483647L\000"
 3034      4E475F4D 
 3034      41585F5F 
 3034      20323134 
 3034      37343833 
 3035              	.LASF320:
 3036 01cf 5F5F5544 		.ascii	"__UDQ_IBIT__ 0\000"
 3036      515F4942 
 3036      49545F5F 
 3036      203000
 3037              	.LASF441:
 3038 01de 494E5431 		.ascii	"INT16_MIN -32768\000"
 3038      365F4D49 
 3038      4E202D33 
 3038      32373638 
 3038      00
 3039              	.LASF23:
 3040 01ef 72656164 		.ascii	"read_string\000"
 3040      5F737472 
 3040      696E6700 
 3041              	.LASF167:
 3042 01fb 5F5F464C 		.ascii	"__FLT_MAX__ 3.4028234663852886e+38F\000"
 3042      545F4D41 
 3042      585F5F20 
 3042      332E3430 
 3042      32383233 
 3043              	.LASF176:
 3044 021f 5F5F4442 		.ascii	"__DBL_MIN_EXP__ (-1021)\000"
 3044      4C5F4D49 
 3044      4E5F4558 
 3044      505F5F20 
 3044      282D3130 
 3045              	.LASF346:
 3046 0237 5F5F4743 		.ascii	"__GCC_ATOMIC_CHAR16_T_LOCK_FREE 1\000"
 3046      435F4154 
 3046      4F4D4943 
 3046      5F434841 
 3046      5231365F 
 3047              	.LASF137:
 3048 0259 5F5F494E 		.ascii	"__INT_LEAST64_MAX__ 9223372036854775807LL\000"
 3048      545F4C45 
ARM GAS  /tmp/ccZ1pKfK.s 			page 58


 3048      41535436 
 3048      345F4D41 
 3048      585F5F20 
 3049              	.LASF358:
 3050 0283 5F5F5349 		.ascii	"__SIZEOF_WINT_T__ 4\000"
 3050      5A454F46 
 3050      5F57494E 
 3050      545F545F 
 3050      5F203400 
 3051              	.LASF384:
 3052 0297 5F5F474E 		.ascii	"__GNUC_PREREQ(maj,min) ((__GNUC__ << 16) + __GNUC_M"
 3052      55435F50 
 3052      52455245 
 3052      51286D61 
 3052      6A2C6D69 
 3053 02ca 494E4F52 		.ascii	"INOR__ >= ((maj) << 16) + (min))\000"
 3053      5F5F203E 
 3053      3D202828 
 3053      6D616A29 
 3053      203C3C20 
 3054              	.LASF181:
 3055 02eb 5F5F4442 		.ascii	"__DBL_MAX__ ((double)1.7976931348623157e+308L)\000"
 3055      4C5F4D41 
 3055      585F5F20 
 3055      2828646F 
 3055      75626C65 
 3056              	.LASF414:
 3057 031a 5F454C49 		.ascii	"_ELIDABLE_INLINE __inline__\000"
 3057      4441424C 
 3057      455F494E 
 3057      4C494E45 
 3057      205F5F69 
 3058              	.LASF230:
 3059 0336 5F5F5553 		.ascii	"__USFRACT_MIN__ 0.0UHR\000"
 3059      46524143 
 3059      545F4D49 
 3059      4E5F5F20 
 3059      302E3055 
 3060              	.LASF408:
 3061 034d 5F444546 		.ascii	"_DEFUN_VOID(name) name(_NOARGS)\000"
 3061      554E5F56 
 3061      4F494428 
 3061      6E616D65 
 3061      29206E61 
 3062              	.LASF476:
 3063 036d 5349475F 		.ascii	"SIG_ATOMIC_MAX __STDINT_EXP(INT_MAX)\000"
 3063      41544F4D 
 3063      49435F4D 
 3063      4158205F 
 3063      5F535444 
 3064              	.LASF466:
 3065 0392 494E545F 		.ascii	"INT_FAST32_MAX __STDINT_EXP(INT_MAX)\000"
 3065      46415354 
 3065      33325F4D 
 3065      4158205F 
 3065      5F535444 
 3066              	.LASF44:
ARM GAS  /tmp/ccZ1pKfK.s 			page 59


 3067 03b7 5F5F474E 		.ascii	"__GNUC_MINOR__ 7\000"
 3067      55435F4D 
 3067      494E4F52 
 3067      5F5F2037 
 3067      00
 3068              	.LASF443:
 3069 03c8 55494E54 		.ascii	"UINT16_MAX 65535\000"
 3069      31365F4D 
 3069      41582036 
 3069      35353335 
 3069      00
 3070              	.LASF11:
 3071 03d9 756E7369 		.ascii	"unsigned int\000"
 3071      676E6564 
 3071      20696E74 
 3071      00
 3072              	.LASF16:
 3073 03e6 6E657874 		.ascii	"next\000"
 3073      00
 3074              	.LASF473:
 3075 03eb 55494E54 		.ascii	"UINTMAX_MAX __UINTMAX_MAX__\000"
 3075      4D41585F 
 3075      4D415820 
 3075      5F5F5549 
 3075      4E544D41 
 3076              	.LASF465:
 3077 0407 494E545F 		.ascii	"INT_FAST32_MIN (-__STDINT_EXP(INT_MAX)-1)\000"
 3077      46415354 
 3077      33325F4D 
 3077      494E2028 
 3077      2D5F5F53 
 3078              	.LASF142:
 3079 0431 5F5F5549 		.ascii	"__UINT16_C(c) c\000"
 3079      4E543136 
 3079      5F432863 
 3079      29206300 
 3080              	.LASF61:
 3081 0441 5F5F5349 		.ascii	"__SIZEOF_SIZE_T__ 4\000"
 3081      5A454F46 
 3081      5F53495A 
 3081      455F545F 
 3081      5F203400 
 3082              	.LASF76:
 3083 0455 5F5F4348 		.ascii	"__CHAR16_TYPE__ short unsigned int\000"
 3083      41523136 
 3083      5F545950 
 3083      455F5F20 
 3083      73686F72 
 3084              	.LASF60:
 3085 0478 5F5F5349 		.ascii	"__SIZEOF_LONG_DOUBLE__ 8\000"
 3085      5A454F46 
 3085      5F4C4F4E 
 3085      475F444F 
 3085      55424C45 
 3086              	.LASF43:
 3087 0491 5F5F474E 		.ascii	"__GNUC__ 4\000"
 3087      55435F5F 
ARM GAS  /tmp/ccZ1pKfK.s 			page 60


 3087      203400
 3088              	.LASF65:
 3089 049c 5F5F4F52 		.ascii	"__ORDER_BIG_ENDIAN__ 4321\000"
 3089      4445525F 
 3089      4249475F 
 3089      454E4449 
 3089      414E5F5F 
 3090              	.LASF261:
 3091 04b6 5F5F554C 		.ascii	"__ULLFRACT_MAX__ 0XFFFFFFFFFFFFFFFFP-64ULLR\000"
 3091      4C465241 
 3091      43545F4D 
 3091      41585F5F 
 3091      20305846 
 3092              	.LASF219:
 3093 04e2 5F5F4445 		.ascii	"__DEC128_MIN__ 1E-6143DL\000"
 3093      43313238 
 3093      5F4D494E 
 3093      5F5F2031 
 3093      452D3631 
 3094              	.LASF337:
 3095 04fb 5F5F5554 		.ascii	"__UTA_FBIT__ 64\000"
 3095      415F4642 
 3095      49545F5F 
 3095      20363400 
 3096              	.LASF174:
 3097 050b 5F5F4442 		.ascii	"__DBL_MANT_DIG__ 53\000"
 3097      4C5F4D41 
 3097      4E545F44 
 3097      49475F5F 
 3097      20353300 
 3098              	.LASF94:
 3099 051f 5F5F5549 		.ascii	"__UINT_LEAST64_TYPE__ long long unsigned int\000"
 3099      4E545F4C 
 3099      45415354 
 3099      36345F54 
 3099      5950455F 
 3100              	.LASF397:
 3101 054c 5F4E4F41 		.ascii	"_NOARGS void\000"
 3101      52475320 
 3101      766F6964 
 3101      00
 3102              	.LASF50:
 3103 0559 5F5F4154 		.ascii	"__ATOMIC_RELEASE 3\000"
 3103      4F4D4943 
 3103      5F52454C 
 3103      45415345 
 3103      203300
 3104              	.LASF71:
 3105 056c 5F5F5054 		.ascii	"__PTRDIFF_TYPE__ int\000"
 3105      52444946 
 3105      465F5459 
 3105      50455F5F 
 3105      20696E74 
 3106              	.LASF343:
 3107 0581 5F5F4348 		.ascii	"__CHAR_UNSIGNED__ 1\000"
 3107      41525F55 
 3107      4E534947 
ARM GAS  /tmp/ccZ1pKfK.s 			page 61


 3107      4E45445F 
 3107      5F203100 
 3108              	.LASF80:
 3109 0595 5F5F494E 		.ascii	"__INT16_TYPE__ short int\000"
 3109      5431365F 
 3109      54595045 
 3109      5F5F2073 
 3109      686F7274 
 3110              	.LASF207:
 3111 05ae 5F5F4445 		.ascii	"__DEC32_EPSILON__ 1E-6DF\000"
 3111      4333325F 
 3111      45505349 
 3111      4C4F4E5F 
 3111      5F203145 
 3112              	.LASF189:
 3113 05c7 5F5F4C44 		.ascii	"__LDBL_DIG__ 15\000"
 3113      424C5F44 
 3113      49475F5F 
 3113      20313500 
 3114              	.LASF108:
 3115 05d7 5F5F494E 		.ascii	"__INT_MAX__ 2147483647\000"
 3115      545F4D41 
 3115      585F5F20 
 3115      32313437 
 3115      34383336 
 3116              	.LASF294:
 3117 05ee 5F5F4C4C 		.ascii	"__LLACCUM_IBIT__ 32\000"
 3117      41434355 
 3117      4D5F4942 
 3117      49545F5F 
 3117      20333200 
 3118              	.LASF48:
 3119 0602 5F5F4154 		.ascii	"__ATOMIC_SEQ_CST 5\000"
 3119      4F4D4943 
 3119      5F534551 
 3119      5F435354 
 3119      203500
 3120              	.LASF444:
 3121 0615 494E545F 		.ascii	"INT_LEAST16_MIN -32768\000"
 3121      4C454153 
 3121      5431365F 
 3121      4D494E20 
 3121      2D333237 
 3122              	.LASF134:
 3123 062c 5F5F494E 		.ascii	"__INT16_C(c) c\000"
 3123      5431365F 
 3123      43286329 
 3123      206300
 3124              	.LASF393:
 3125 063b 5F454E44 		.ascii	"_END_STD_C \000"
 3125      5F535444 
 3125      5F432000 
 3126              	.LASF57:
 3127 0647 5F5F5349 		.ascii	"__SIZEOF_SHORT__ 2\000"
 3127      5A454F46 
 3127      5F53484F 
 3127      52545F5F 
ARM GAS  /tmp/ccZ1pKfK.s 			page 62


 3127      203200
 3128              	.LASF390:
 3129 065a 5F524541 		.ascii	"_READ_WRITE_RETURN_TYPE int\000"
 3129      445F5752 
 3129      4954455F 
 3129      52455455 
 3129      524E5F54 
 3130              	.LASF87:
 3131 0676 5F5F494E 		.ascii	"__INT_LEAST8_TYPE__ signed char\000"
 3131      545F4C45 
 3131      41535438 
 3131      5F545950 
 3131      455F5F20 
 3132              	.LASF120:
 3133 0696 5F5F5549 		.ascii	"__UINTMAX_C(c) c ## ULL\000"
 3133      4E544D41 
 3133      585F4328 
 3133      63292063 
 3133      20232320 
 3134              	.LASF474:
 3135 06ae 53495A45 		.ascii	"SIZE_MAX __SIZE_MAX__\000"
 3135      5F4D4158 
 3135      205F5F53 
 3135      495A455F 
 3135      4D41585F 
 3136              	.LASF148:
 3137 06c4 5F5F494E 		.ascii	"__INT_FAST16_MAX__ 2147483647\000"
 3137      545F4641 
 3137      53543136 
 3137      5F4D4158 
 3137      5F5F2032 
 3138              	.LASF67:
 3139 06e2 5F5F4259 		.ascii	"__BYTE_ORDER__ __ORDER_LITTLE_ENDIAN__\000"
 3139      54455F4F 
 3139      52444552 
 3139      5F5F205F 
 3139      5F4F5244 
 3140              	.LASF139:
 3141 0709 5F5F5549 		.ascii	"__UINT_LEAST8_MAX__ 255\000"
 3141      4E545F4C 
 3141      45415354 
 3141      385F4D41 
 3141      585F5F20 
 3142              	.LASF244:
 3143 0721 5F5F4C46 		.ascii	"__LFRACT_IBIT__ 0\000"
 3143      52414354 
 3143      5F494249 
 3143      545F5F20 
 3143      3000
 3144              	.LASF15:
 3145 0733 7072696E 		.ascii	"print_string\000"
 3145      745F7374 
 3145      72696E67 
 3145      00
 3146              	.LASF41:
 3147 0740 5F5F5354 		.ascii	"__STDC_UTF_32__ 1\000"
 3147      44435F55 
ARM GAS  /tmp/ccZ1pKfK.s 			page 63


 3147      54465F33 
 3147      325F5F20 
 3147      3100
 3148              	.LASF91:
 3149 0752 5F5F5549 		.ascii	"__UINT_LEAST8_TYPE__ unsigned char\000"
 3149      4E545F4C 
 3149      45415354 
 3149      385F5459 
 3149      50455F5F 
 3150              	.LASF156:
 3151 0775 5F5F5549 		.ascii	"__UINTPTR_MAX__ 4294967295U\000"
 3151      4E545054 
 3151      525F4D41 
 3151      585F5F20 
 3151      34323934 
 3152              	.LASF368:
 3153 0791 5F5F4152 		.ascii	"__ARM_ARCH_6M__ 1\000"
 3153      4D5F4152 
 3153      43485F36 
 3153      4D5F5F20 
 3153      3100
 3154              	.LASF259:
 3155 07a3 5F5F554C 		.ascii	"__ULLFRACT_IBIT__ 0\000"
 3155      4C465241 
 3155      43545F49 
 3155      4249545F 
 3155      5F203000 
 3156              	.LASF379:
 3157 07b7 48415645 		.ascii	"HAVE_INITFINI_ARRAY 1\000"
 3157      5F494E49 
 3157      5446494E 
 3157      495F4152 
 3157      52415920 
 3158              	.LASF47:
 3159 07cd 5F5F4154 		.ascii	"__ATOMIC_RELAXED 0\000"
 3159      4F4D4943 
 3159      5F52454C 
 3159      41584544 
 3159      203000
 3160              	.LASF89:
 3161 07e0 5F5F494E 		.ascii	"__INT_LEAST32_TYPE__ long int\000"
 3161      545F4C45 
 3161      41535433 
 3161      325F5459 
 3161      50455F5F 
 3162              	.LASF285:
 3163 07fe 5F5F4C41 		.ascii	"__LACCUM_MIN__ (-0X1P31LK-0X1P31LK)\000"
 3163      4343554D 
 3163      5F4D494E 
 3163      5F5F2028 
 3163      2D305831 
 3164              	.LASF301:
 3165 0822 5F5F554C 		.ascii	"__ULLACCUM_MAX__ 0XFFFFFFFFFFFFFFFFP-32ULLK\000"
 3165      4C414343 
 3165      554D5F4D 
 3165      41585F5F 
 3165      20305846 
ARM GAS  /tmp/ccZ1pKfK.s 			page 64


 3166              	.LASF290:
 3167 084e 5F5F554C 		.ascii	"__ULACCUM_MIN__ 0.0ULK\000"
 3167      41434355 
 3167      4D5F4D49 
 3167      4E5F5F20 
 3167      302E3055 
 3168              	.LASF172:
 3169 0865 5F5F464C 		.ascii	"__FLT_HAS_INFINITY__ 1\000"
 3169      545F4841 
 3169      535F494E 
 3169      46494E49 
 3169      54595F5F 
 3170              	.LASF363:
 3171 087c 5F5F4152 		.ascii	"__ARMEL__ 1\000"
 3171      4D454C5F 
 3171      5F203100 
 3172              	.LASF151:
 3173 0888 5F5F5549 		.ascii	"__UINT_FAST8_MAX__ 4294967295U\000"
 3173      4E545F46 
 3173      41535438 
 3173      5F4D4158 
 3173      5F5F2034 
 3174              	.LASF336:
 3175 08a7 5F5F5544 		.ascii	"__UDA_IBIT__ 32\000"
 3175      415F4942 
 3175      49545F5F 
 3175      20333200 
 3176              	.LASF130:
 3177 08b7 5F5F5549 		.ascii	"__UINT64_MAX__ 18446744073709551615ULL\000"
 3177      4E543634 
 3177      5F4D4158 
 3177      5F5F2031 
 3177      38343436 
 3178              	.LASF381:
 3179 08de 5F484156 		.ascii	"_HAVE_LONG_DOUBLE 1\000"
 3179      455F4C4F 
 3179      4E475F44 
 3179      4F55424C 
 3179      45203100 
 3180              	.LASF98:
 3181 08f2 5F5F494E 		.ascii	"__INT_FAST64_TYPE__ long long int\000"
 3181      545F4641 
 3181      53543634 
 3181      5F545950 
 3181      455F5F20 
 3182              	.LASF132:
 3183 0914 5F5F494E 		.ascii	"__INT8_C(c) c\000"
 3183      54385F43 
 3183      28632920 
 3183      6300
 3184              	.LASF395:
 3185 0922 5F505452 		.ascii	"_PTR void *\000"
 3185      20766F69 
 3185      64202A00 
 3186              	.LASF0:
 3187 092e 7369676E 		.ascii	"signed char\000"
 3187      65642063 
ARM GAS  /tmp/ccZ1pKfK.s 			page 65


 3187      68617200 
 3188              	.LASF116:
 3189 093a 5F5F5349 		.ascii	"__SIZE_MAX__ 4294967295U\000"
 3189      5A455F4D 
 3189      41585F5F 
 3189      20343239 
 3189      34393637 
 3190              	.LASF300:
 3191 0953 5F5F554C 		.ascii	"__ULLACCUM_MIN__ 0.0ULLK\000"
 3191      4C414343 
 3191      554D5F4D 
 3191      494E5F5F 
 3191      20302E30 
 3192              	.LASF7:
 3193 096c 75696E74 		.ascii	"uint32_t\000"
 3193      33325F74 
 3193      00
 3194              	.LASF36:
 3195 0975 5F474343 		.ascii	"_GCC_WRAP_STDINT_H \000"
 3195      5F575241 
 3195      505F5354 
 3195      44494E54 
 3195      5F482000 
 3196              	.LASF104:
 3197 0989 5F5F5549 		.ascii	"__UINTPTR_TYPE__ unsigned int\000"
 3197      4E545054 
 3197      525F5459 
 3197      50455F5F 
 3197      20756E73 
 3198              	.LASF22:
 3199 09a7 72656164 		.ascii	"read_line\000"
 3199      5F6C696E 
 3199      6500
 3200              	.LASF326:
 3201 09b1 5F5F5341 		.ascii	"__SA_IBIT__ 16\000"
 3201      5F494249 
 3201      545F5F20 
 3201      313600
 3202              	.LASF256:
 3203 09c0 5F5F4C4C 		.ascii	"__LLFRACT_MAX__ 0X7FFFFFFFFFFFFFFFP-63LLR\000"
 3203      46524143 
 3203      545F4D41 
 3203      585F5F20 
 3203      30583746 
 3204              	.LASF445:
 3205 09ea 494E545F 		.ascii	"INT_LEAST16_MAX 32767\000"
 3205      4C454153 
 3205      5431365F 
 3205      4D415820 
 3205      33323736 
 3206              	.LASF161:
 3207 0a00 5F5F464C 		.ascii	"__FLT_DIG__ 6\000"
 3207      545F4449 
 3207      475F5F20 
 3207      3600
 3208              	.LASF183:
 3209 0a0e 5F5F4442 		.ascii	"__DBL_EPSILON__ ((double)2.2204460492503131e-16L)\000"
ARM GAS  /tmp/ccZ1pKfK.s 			page 66


 3209      4C5F4550 
 3209      53494C4F 
 3209      4E5F5F20 
 3209      2828646F 
 3210              	.LASF490:
 3211 0a40 55494E54 		.ascii	"UINT64_C(x) x ##ULL\000"
 3211      36345F43 
 3211      28782920 
 3211      78202323 
 3211      554C4C00 
 3212              	.LASF327:
 3213 0a54 5F5F4441 		.ascii	"__DA_FBIT__ 31\000"
 3213      5F464249 
 3213      545F5F20 
 3213      333100
 3214              	.LASF373:
 3215 0a63 5F5F5553 		.ascii	"__USES_INITFINI__ 1\000"
 3215      45535F49 
 3215      4E495446 
 3215      494E495F 
 3215      5F203100 
 3216              	.LASF205:
 3217 0a77 5F5F4445 		.ascii	"__DEC32_MIN__ 1E-95DF\000"
 3217      4333325F 
 3217      4D494E5F 
 3217      5F203145 
 3217      2D393544 
 3218              	.LASF272:
 3219 0a8d 5F5F5553 		.ascii	"__USACCUM_EPSILON__ 0x1P-8UHK\000"
 3219      41434355 
 3219      4D5F4550 
 3219      53494C4F 
 3219      4E5F5F20 
 3220              	.LASF291:
 3221 0aab 5F5F554C 		.ascii	"__ULACCUM_MAX__ 0XFFFFFFFFFFFFFFFFP-32ULK\000"
 3221      41434355 
 3221      4D5F4D41 
 3221      585F5F20 
 3221      30584646 
 3222              	.LASF241:
 3223 0ad5 5F5F5546 		.ascii	"__UFRACT_MAX__ 0XFFFFP-16UR\000"
 3223      52414354 
 3223      5F4D4158 
 3223      5F5F2030 
 3223      58464646 
 3224              	.LASF226:
 3225 0af1 5F5F5346 		.ascii	"__SFRACT_MAX__ 0X7FP-7HR\000"
 3225      52414354 
 3225      5F4D4158 
 3225      5F5F2030 
 3225      58374650 
 3226              	.LASF304:
 3227 0b0a 5F5F5151 		.ascii	"__QQ_IBIT__ 0\000"
 3227      5F494249 
 3227      545F5F20 
 3227      3000
 3228              	.LASF383:
ARM GAS  /tmp/ccZ1pKfK.s 			page 67


 3229 0b18 5F535953 		.ascii	"_SYS_FEATURES_H \000"
 3229      5F464541 
 3229      54555245 
 3229      535F4820 
 3229      00
 3230              	.LASF10:
 3231 0b29 6C6F6E67 		.ascii	"long long unsigned int\000"
 3231      206C6F6E 
 3231      6720756E 
 3231      7369676E 
 3231      65642069 
 3232              	.LASF217:
 3233 0b40 5F5F4445 		.ascii	"__DEC128_MIN_EXP__ (-6142)\000"
 3233      43313238 
 3233      5F4D494E 
 3233      5F455850 
 3233      5F5F2028 
 3234              	.LASF419:
 3235 0b5b 5F5F6861 		.ascii	"__have_long32 1\000"
 3235      76655F6C 
 3235      6F6E6733 
 3235      32203100 
 3236              	.LASF252:
 3237 0b6b 5F5F554C 		.ascii	"__ULFRACT_EPSILON__ 0x1P-32ULR\000"
 3237      46524143 
 3237      545F4550 
 3237      53494C4F 
 3237      4E5F5F20 
 3238              	.LASF221:
 3239 0b8a 5F5F4445 		.ascii	"__DEC128_EPSILON__ 1E-33DL\000"
 3239      43313238 
 3239      5F455053 
 3239      494C4F4E 
 3239      5F5F2031 
 3240              	.LASF149:
 3241 0ba5 5F5F494E 		.ascii	"__INT_FAST32_MAX__ 2147483647\000"
 3241      545F4641 
 3241      53543332 
 3241      5F4D4158 
 3241      5F5F2032 
 3242              	.LASF249:
 3243 0bc3 5F5F554C 		.ascii	"__ULFRACT_IBIT__ 0\000"
 3243      46524143 
 3243      545F4942 
 3243      49545F5F 
 3243      203000
 3244              	.LASF322:
 3245 0bd6 5F5F5554 		.ascii	"__UTQ_IBIT__ 0\000"
 3245      515F4942 
 3245      49545F5F 
 3245      203000
 3246              	.LASF170:
 3247 0be5 5F5F464C 		.ascii	"__FLT_DENORM_MIN__ 1.4012984643248171e-45F\000"
 3247      545F4445 
 3247      4E4F524D 
 3247      5F4D494E 
 3247      5F5F2031 
ARM GAS  /tmp/ccZ1pKfK.s 			page 68


 3248              	.LASF260:
 3249 0c10 5F5F554C 		.ascii	"__ULLFRACT_MIN__ 0.0ULLR\000"
 3249      4C465241 
 3249      43545F4D 
 3249      494E5F5F 
 3249      20302E30 
 3250              	.LASF187:
 3251 0c29 5F5F4442 		.ascii	"__DBL_HAS_QUIET_NAN__ 1\000"
 3251      4C5F4841 
 3251      535F5155 
 3251      4945545F 
 3251      4E414E5F 
 3252              	.LASF280:
 3253 0c41 5F5F5541 		.ascii	"__UACCUM_MIN__ 0.0UK\000"
 3253      4343554D 
 3253      5F4D494E 
 3253      5F5F2030 
 3253      2E30554B 
 3254              	.LASF247:
 3255 0c56 5F5F4C46 		.ascii	"__LFRACT_EPSILON__ 0x1P-31LR\000"
 3255      52414354 
 3255      5F455053 
 3255      494C4F4E 
 3255      5F5F2030 
 3256              	.LASF95:
 3257 0c73 5F5F494E 		.ascii	"__INT_FAST8_TYPE__ int\000"
 3257      545F4641 
 3257      5354385F 
 3257      54595045 
 3257      5F5F2069 
 3258              	.LASF100:
 3259 0c8a 5F5F5549 		.ascii	"__UINT_FAST16_TYPE__ unsigned int\000"
 3259      4E545F46 
 3259      41535431 
 3259      365F5459 
 3259      50455F5F 
 3260              	.LASF482:
 3261 0cac 57494E54 		.ascii	"WINT_MIN __WINT_MIN__\000"
 3261      5F4D494E 
 3261      205F5F57 
 3261      494E545F 
 3261      4D494E5F 
 3262              	.LASF263:
 3263 0cc2 5F5F5341 		.ascii	"__SACCUM_FBIT__ 7\000"
 3263      4343554D 
 3263      5F464249 
 3263      545F5F20 
 3263      3700
 3264              	.LASF182:
 3265 0cd4 5F5F4442 		.ascii	"__DBL_MIN__ ((double)2.2250738585072014e-308L)\000"
 3265      4C5F4D49 
 3265      4E5F5F20 
 3265      2828646F 
 3265      75626C65 
 3266              	.LASF213:
 3267 0d03 5F5F4445 		.ascii	"__DEC64_MAX__ 9.999999999999999E384DD\000"
 3267      4336345F 
ARM GAS  /tmp/ccZ1pKfK.s 			page 69


 3267      4D41585F 
 3267      5F20392E 
 3267      39393939 
 3268              	.LASF235:
 3269 0d29 5F5F4652 		.ascii	"__FRACT_MIN__ (-0.5R-0.5R)\000"
 3269      4143545F 
 3269      4D494E5F 
 3269      5F20282D 
 3269      302E3552 
 3270              	.LASF350:
 3271 0d44 5F5F4743 		.ascii	"__GCC_ATOMIC_INT_LOCK_FREE 1\000"
 3271      435F4154 
 3271      4F4D4943 
 3271      5F494E54 
 3271      5F4C4F43 
 3272              	.LASF479:
 3273 0d61 57434841 		.ascii	"WCHAR_MAX __WCHAR_MAX__\000"
 3273      525F4D41 
 3273      58205F5F 
 3273      57434841 
 3273      525F4D41 
 3274              	.LASF282:
 3275 0d79 5F5F5541 		.ascii	"__UACCUM_EPSILON__ 0x1P-16UK\000"
 3275      4343554D 
 3275      5F455053 
 3275      494C4F4E 
 3275      5F5F2030 
 3276              	.LASF448:
 3277 0d96 494E5433 		.ascii	"INT32_MAX 2147483647L\000"
 3277      325F4D41 
 3277      58203231 
 3277      34373438 
 3277      33363437 
 3278              	.LASF274:
 3279 0dac 5F5F4143 		.ascii	"__ACCUM_IBIT__ 16\000"
 3279      43554D5F 
 3279      49424954 
 3279      5F5F2031 
 3279      3600
 3280              	.LASF198:
 3281 0dbe 5F5F4C44 		.ascii	"__LDBL_DENORM_MIN__ 4.9406564584124654e-324L\000"
 3281      424C5F44 
 3281      454E4F52 
 3281      4D5F4D49 
 3281      4E5F5F20 
 3282              	.LASF268:
 3283 0deb 5F5F5553 		.ascii	"__USACCUM_FBIT__ 8\000"
 3283      41434355 
 3283      4D5F4642 
 3283      49545F5F 
 3283      203800
 3284              	.LASF64:
 3285 0dfe 5F5F4F52 		.ascii	"__ORDER_LITTLE_ENDIAN__ 1234\000"
 3285      4445525F 
 3285      4C495454 
 3285      4C455F45 
 3285      4E444941 
ARM GAS  /tmp/ccZ1pKfK.s 			page 70


 3286              	.LASF359:
 3287 0e1b 5F5F5349 		.ascii	"__SIZEOF_PTRDIFF_T__ 4\000"
 3287      5A454F46 
 3287      5F505452 
 3287      44494646 
 3287      5F545F5F 
 3288              	.LASF334:
 3289 0e32 5F5F5553 		.ascii	"__USA_IBIT__ 16\000"
 3289      415F4942 
 3289      49545F5F 
 3289      20313600 
 3290              	.LASF254:
 3291 0e42 5F5F4C4C 		.ascii	"__LLFRACT_IBIT__ 0\000"
 3291      46524143 
 3291      545F4942 
 3291      49545F5F 
 3291      203000
 3292              	.LASF26:
 3293 0e55 62756666 		.ascii	"buff\000"
 3293      00
 3294              	.LASF173:
 3295 0e5a 5F5F464C 		.ascii	"__FLT_HAS_QUIET_NAN__ 1\000"
 3295      545F4841 
 3295      535F5155 
 3295      4945545F 
 3295      4E414E5F 
 3296              	.LASF411:
 3297 0e72 5F4C4F4E 		.ascii	"_LONG_LONG_TYPE long long\000"
 3297      475F4C4F 
 3297      4E475F54 
 3297      59504520 
 3297      6C6F6E67 
 3298              	.LASF32:
 3299 0e8c 5F535444 		.ascii	"_STDINT_H \000"
 3299      494E545F 
 3299      482000
 3300              	.LASF58:
 3301 0e97 5F5F5349 		.ascii	"__SIZEOF_FLOAT__ 4\000"
 3301      5A454F46 
 3301      5F464C4F 
 3301      41545F5F 
 3301      203400
 3302              	.LASF398:
 3303 0eaa 5F434F4E 		.ascii	"_CONST const\000"
 3303      53542063 
 3303      6F6E7374 
 3303      00
 3304              	.LASF271:
 3305 0eb7 5F5F5553 		.ascii	"__USACCUM_MAX__ 0XFFFFP-8UHK\000"
 3305      41434355 
 3305      4D5F4D41 
 3305      585F5F20 
 3305      30584646 
 3306              	.LASF144:
 3307 0ed4 5F5F5549 		.ascii	"__UINT32_C(c) c ## UL\000"
 3307      4E543332 
 3307      5F432863 
ARM GAS  /tmp/ccZ1pKfK.s 			page 71


 3307      29206320 
 3307      23232055 
 3308              	.LASF204:
 3309 0eea 5F5F4445 		.ascii	"__DEC32_MAX_EXP__ 97\000"
 3309      4333325F 
 3309      4D41585F 
 3309      4558505F 
 3309      5F203937 
 3310              	.LASF27:
 3311 0eff 6865785F 		.ascii	"hex_chars\000"
 3311      63686172 
 3311      7300
 3312              	.LASF371:
 3313 0f09 5F5F4758 		.ascii	"__GXX_TYPEINFO_EQUALITY_INLINE 0\000"
 3313      585F5459 
 3313      5045494E 
 3313      464F5F45 
 3313      5155414C 
 3314              	.LASF460:
 3315 0f2a 494E545F 		.ascii	"INT_FAST8_MAX __STDINT_EXP(INT_MAX)\000"
 3315      46415354 
 3315      385F4D41 
 3315      58205F5F 
 3315      53544449 
 3316              	.LASF426:
 3317 0f4e 5F5F696E 		.ascii	"__int64_t_defined 1\000"
 3317      7436345F 
 3317      745F6465 
 3317      66696E65 
 3317      64203100 
 3318              	.LASF328:
 3319 0f62 5F5F4441 		.ascii	"__DA_IBIT__ 32\000"
 3319      5F494249 
 3319      545F5F20 
 3319      333200
 3320              	.LASF63:
 3321 0f71 5F5F4249 		.ascii	"__BIGGEST_ALIGNMENT__ 8\000"
 3321      47474553 
 3321      545F414C 
 3321      49474E4D 
 3321      454E545F 
 3322              	.LASF284:
 3323 0f89 5F5F4C41 		.ascii	"__LACCUM_IBIT__ 32\000"
 3323      4343554D 
 3323      5F494249 
 3323      545F5F20 
 3323      333200
 3324              	.LASF133:
 3325 0f9c 5F5F494E 		.ascii	"__INT_LEAST16_MAX__ 32767\000"
 3325      545F4C45 
 3325      41535431 
 3325      365F4D41 
 3325      585F5F20 
 3326              	.LASF231:
 3327 0fb6 5F5F5553 		.ascii	"__USFRACT_MAX__ 0XFFP-8UHR\000"
 3327      46524143 
 3327      545F4D41 
ARM GAS  /tmp/ccZ1pKfK.s 			page 72


 3327      585F5F20 
 3327      30584646 
 3328              	.LASF237:
 3329 0fd1 5F5F4652 		.ascii	"__FRACT_EPSILON__ 0x1P-15R\000"
 3329      4143545F 
 3329      45505349 
 3329      4C4F4E5F 
 3329      5F203078 
 3330              	.LASF295:
 3331 0fec 5F5F4C4C 		.ascii	"__LLACCUM_MIN__ (-0X1P31LLK-0X1P31LLK)\000"
 3331      41434355 
 3331      4D5F4D49 
 3331      4E5F5F20 
 3331      282D3058 
 3332              	.LASF105:
 3333 1013 5F5F4758 		.ascii	"__GXX_ABI_VERSION 1002\000"
 3333      585F4142 
 3333      495F5645 
 3333      5253494F 
 3333      4E203130 
 3334              	.LASF325:
 3335 102a 5F5F5341 		.ascii	"__SA_FBIT__ 15\000"
 3335      5F464249 
 3335      545F5F20 
 3335      313500
 3336              	.LASF489:
 3337 1039 494E5436 		.ascii	"INT64_C(x) x ##LL\000"
 3337      345F4328 
 3337      78292078 
 3337      2023234C 
 3337      4C00
 3338              	.LASF267:
 3339 104b 5F5F5341 		.ascii	"__SACCUM_EPSILON__ 0x1P-7HK\000"
 3339      4343554D 
 3339      5F455053 
 3339      494C4F4E 
 3339      5F5F2030 
 3340              	.LASF96:
 3341 1067 5F5F494E 		.ascii	"__INT_FAST16_TYPE__ int\000"
 3341      545F4641 
 3341      53543136 
 3341      5F545950 
 3341      455F5F20 
 3342              	.LASF84:
 3343 107f 5F5F5549 		.ascii	"__UINT16_TYPE__ short unsigned int\000"
 3343      4E543136 
 3343      5F545950 
 3343      455F5F20 
 3343      73686F72 
 3344              	.LASF345:
 3345 10a2 5F5F4743 		.ascii	"__GCC_ATOMIC_CHAR_LOCK_FREE 1\000"
 3345      435F4154 
 3345      4F4D4943 
 3345      5F434841 
 3345      525F4C4F 
 3346              	.LASF341:
 3347 10c0 5F5F474E 		.ascii	"__GNUC_STDC_INLINE__ 1\000"
ARM GAS  /tmp/ccZ1pKfK.s 			page 73


 3347      55435F53 
 3347      5444435F 
 3347      494E4C49 
 3347      4E455F5F 
 3348              	.LASF316:
 3349 10d7 5F5F5548 		.ascii	"__UHQ_IBIT__ 0\000"
 3349      515F4942 
 3349      49545F5F 
 3349      203000
 3350              	.LASF469:
 3351 10e6 494E545F 		.ascii	"INT_FAST64_MAX INT_LEAST64_MAX\000"
 3351      46415354 
 3351      36345F4D 
 3351      41582049 
 3351      4E545F4C 
 3352              	.LASF82:
 3353 1105 5F5F494E 		.ascii	"__INT64_TYPE__ long long int\000"
 3353      5436345F 
 3353      54595045 
 3353      5F5F206C 
 3353      6F6E6720 
 3354              	.LASF29:
 3355 1122 6E6F6E73 		.ascii	"nonstdio.c\000"
 3355      7464696F 
 3355      2E6300
 3356              	.LASF296:
 3357 112d 5F5F4C4C 		.ascii	"__LLACCUM_MAX__ 0X7FFFFFFFFFFFFFFFP-31LLK\000"
 3357      41434355 
 3357      4D5F4D41 
 3357      585F5F20 
 3357      30583746 
 3358              	.LASF446:
 3359 1157 55494E54 		.ascii	"UINT_LEAST16_MAX 65535\000"
 3359      5F4C4541 
 3359      53543136 
 3359      5F4D4158 
 3359      20363535 
 3360              	.LASF297:
 3361 116e 5F5F4C4C 		.ascii	"__LLACCUM_EPSILON__ 0x1P-31LLK\000"
 3361      41434355 
 3361      4D5F4550 
 3361      53494C4F 
 3361      4E5F5F20 
 3362              	.LASF270:
 3363 118d 5F5F5553 		.ascii	"__USACCUM_MIN__ 0.0UHK\000"
 3363      41434355 
 3363      4D5F4D49 
 3363      4E5F5F20 
 3363      302E3055 
 3364              	.LASF342:
 3365 11a4 5F5F4E4F 		.ascii	"__NO_INLINE__ 1\000"
 3365      5F494E4C 
 3365      494E455F 
 3365      5F203100 
 3366              	.LASF250:
 3367 11b4 5F5F554C 		.ascii	"__ULFRACT_MIN__ 0.0ULR\000"
 3367      46524143 
ARM GAS  /tmp/ccZ1pKfK.s 			page 74


 3367      545F4D49 
 3367      4E5F5F20 
 3367      302E3055 
 3368              	.LASF160:
 3369 11cb 5F5F464C 		.ascii	"__FLT_MANT_DIG__ 24\000"
 3369      545F4D41 
 3369      4E545F44 
 3369      49475F5F 
 3369      20323400 
 3370              	.LASF318:
 3371 11df 5F5F5553 		.ascii	"__USQ_IBIT__ 0\000"
 3371      515F4942 
 3371      49545F5F 
 3371      203000
 3372              	.LASF339:
 3373 11ee 5F5F5245 		.ascii	"__REGISTER_PREFIX__ \000"
 3373      47495354 
 3373      45525F50 
 3373      52454649 
 3373      585F5F20 
 3374              	.LASF399:
 3375 1203 5F564F4C 		.ascii	"_VOLATILE volatile\000"
 3375      4154494C 
 3375      4520766F 
 3375      6C617469 
 3375      6C6500
 3376              	.LASF28:
 3377 1216 474E5520 		.ascii	"GNU C 4.7.4 20130613 (release) [ARM/embedded-4_7-br"
 3377      4320342E 
 3377      372E3420 
 3377      32303133 
 3377      30363133 
 3378 1249 616E6368 		.ascii	"anch revision 200083]\000"
 3378      20726576 
 3378      6973696F 
 3378      6E203230 
 3378      30303833 
 3379              	.LASF279:
 3380 125f 5F5F5541 		.ascii	"__UACCUM_IBIT__ 16\000"
 3380      4343554D 
 3380      5F494249 
 3380      545F5F20 
 3380      313600
 3381              	.LASF158:
 3382 1272 5F5F4445 		.ascii	"__DEC_EVAL_METHOD__ 2\000"
 3382      435F4556 
 3382      414C5F4D 
 3382      4554484F 
 3382      445F5F20 
 3383              	.LASF31:
 3384 1288 7365745F 		.ascii	"set_io_functions\000"
 3384      696F5F66 
 3384      756E6374 
 3384      696F6E73 
 3384      00
 3385              	.LASF177:
 3386 1299 5F5F4442 		.ascii	"__DBL_MIN_10_EXP__ (-307)\000"
ARM GAS  /tmp/ccZ1pKfK.s 			page 75


 3386      4C5F4D49 
 3386      4E5F3130 
 3386      5F455850 
 3386      5F5F2028 
 3387              	.LASF269:
 3388 12b3 5F5F5553 		.ascii	"__USACCUM_IBIT__ 8\000"
 3388      41434355 
 3388      4D5F4942 
 3388      49545F5F 
 3388      203800
 3389              	.LASF129:
 3390 12c6 5F5F5549 		.ascii	"__UINT32_MAX__ 4294967295UL\000"
 3390      4E543332 
 3390      5F4D4158 
 3390      5F5F2034 
 3390      32393439 
 3391              	.LASF171:
 3392 12e2 5F5F464C 		.ascii	"__FLT_HAS_DENORM__ 1\000"
 3392      545F4841 
 3392      535F4445 
 3392      4E4F524D 
 3392      5F5F2031 
 3393              	.LASF367:
 3394 12f7 5F5F5448 		.ascii	"__THUMB_INTERWORK__ 1\000"
 3394      554D425F 
 3394      494E5445 
 3394      52574F52 
 3394      4B5F5F20 
 3395              	.LASF233:
 3396 130d 5F5F4652 		.ascii	"__FRACT_FBIT__ 15\000"
 3396      4143545F 
 3396      46424954 
 3396      5F5F2031 
 3396      3500
 3397              	.LASF157:
 3398 131f 5F5F464C 		.ascii	"__FLT_EVAL_METHOD__ 0\000"
 3398      545F4556 
 3398      414C5F4D 
 3398      4554484F 
 3398      445F5F20 
 3399              	.LASF382:
 3400 1335 5F4C4442 		.ascii	"_LDBL_EQ_DBL 1\000"
 3400      4C5F4551 
 3400      5F44424C 
 3400      203100
 3401              	.LASF24:
 3402 1344 756E7265 		.ascii	"unread_char\000"
 3402      61645F63 
 3402      68617200 
 3403              	.LASF99:
 3404 1350 5F5F5549 		.ascii	"__UINT_FAST8_TYPE__ unsigned int\000"
 3404      4E545F46 
 3404      41535438 
 3404      5F545950 
 3404      455F5F20 
 3405              	.LASF155:
 3406 1371 5F5F494E 		.ascii	"__INTPTR_MAX__ 2147483647\000"
ARM GAS  /tmp/ccZ1pKfK.s 			page 76


 3406      54505452 
 3406      5F4D4158 
 3406      5F5F2032 
 3406      31343734 
 3407              	.LASF273:
 3408 138b 5F5F4143 		.ascii	"__ACCUM_FBIT__ 15\000"
 3408      43554D5F 
 3408      46424954 
 3408      5F5F2031 
 3408      3500
 3409              	.LASF348:
 3410 139d 5F5F4743 		.ascii	"__GCC_ATOMIC_WCHAR_T_LOCK_FREE 1\000"
 3410      435F4154 
 3410      4F4D4943 
 3410      5F574348 
 3410      41525F54 
 3411              	.LASF210:
 3412 13be 5F5F4445 		.ascii	"__DEC64_MIN_EXP__ (-382)\000"
 3412      4336345F 
 3412      4D494E5F 
 3412      4558505F 
 3412      5F20282D 
 3413              	.LASF289:
 3414 13d7 5F5F554C 		.ascii	"__ULACCUM_IBIT__ 32\000"
 3414      41434355 
 3414      4D5F4942 
 3414      49545F5F 
 3414      20333200 
 3415              	.LASF253:
 3416 13eb 5F5F4C4C 		.ascii	"__LLFRACT_FBIT__ 63\000"
 3416      46524143 
 3416      545F4642 
 3416      49545F5F 
 3416      20363300 
 3417              	.LASF333:
 3418 13ff 5F5F5553 		.ascii	"__USA_FBIT__ 16\000"
 3418      415F4642 
 3418      49545F5F 
 3418      20313600 
 3419              	.LASF449:
 3420 140f 55494E54 		.ascii	"UINT32_MAX 4294967295UL\000"
 3420      33325F4D 
 3420      41582034 
 3420      32393439 
 3420      36373239 
 3421              	.LASF410:
 3422 1427 5F4C4F4E 		.ascii	"_LONG_DOUBLE long double\000"
 3422      475F444F 
 3422      55424C45 
 3422      206C6F6E 
 3422      6720646F 
 3423              	.LASF306:
 3424 1440 5F5F4851 		.ascii	"__HQ_IBIT__ 0\000"
 3424      5F494249 
 3424      545F5F20 
 3424      3000
 3425              	.LASF435:
ARM GAS  /tmp/ccZ1pKfK.s 			page 77


 3426 144e 494E5438 		.ascii	"INT8_MIN -128\000"
 3426      5F4D494E 
 3426      202D3132 
 3426      3800
 3427              	.LASF437:
 3428 145c 55494E54 		.ascii	"UINT8_MAX 255\000"
 3428      385F4D41 
 3428      58203235 
 3428      3500
 3429              	.LASF396:
 3430 146a 5F414E44 		.ascii	"_AND ,\000"
 3430      202C00
 3431              	.LASF4:
 3432 1471 75696E74 		.ascii	"uint8_t\000"
 3432      385F7400 
 3433              	.LASF135:
 3434 1479 5F5F494E 		.ascii	"__INT_LEAST32_MAX__ 2147483647L\000"
 3434      545F4C45 
 3434      41535433 
 3434      325F4D41 
 3434      585F5F20 
 3435              	.LASF415:
 3436 1499 5F4E4F49 		.ascii	"_NOINLINE __attribute__ ((__noinline__))\000"
 3436      4E4C494E 
 3436      45205F5F 
 3436      61747472 
 3436      69627574 
 3437              	.LASF206:
 3438 14c2 5F5F4445 		.ascii	"__DEC32_MAX__ 9.999999E96DF\000"
 3438      4333325F 
 3438      4D41585F 
 3438      5F20392E 
 3438      39393939 
 3439              	.LASF243:
 3440 14de 5F5F4C46 		.ascii	"__LFRACT_FBIT__ 31\000"
 3440      52414354 
 3440      5F464249 
 3440      545F5F20 
 3440      333100
 3441              	.LASF88:
 3442 14f1 5F5F494E 		.ascii	"__INT_LEAST16_TYPE__ short int\000"
 3442      545F4C45 
 3442      41535431 
 3442      365F5459 
 3442      50455F5F 
 3443              	.LASF145:
 3444 1510 5F5F5549 		.ascii	"__UINT_LEAST64_MAX__ 18446744073709551615ULL\000"
 3444      4E545F4C 
 3444      45415354 
 3444      36345F4D 
 3444      41585F5F 
 3445              	.LASF378:
 3446 153d 5F4D425F 		.ascii	"_MB_LEN_MAX 1\000"
 3446      4C454E5F 
 3446      4D415820 
 3446      3100
 3447              	.LASF175:
ARM GAS  /tmp/ccZ1pKfK.s 			page 78


 3448 154b 5F5F4442 		.ascii	"__DBL_DIG__ 15\000"
 3448      4C5F4449 
 3448      475F5F20 
 3448      313500
 3449              	.LASF447:
 3450 155a 494E5433 		.ascii	"INT32_MIN (-2147483647L-1)\000"
 3450      325F4D49 
 3450      4E20282D 
 3450      32313437 
 3450      34383336 
 3451              	.LASF20:
 3452 1575 73657269 		.ascii	"serial_receive\000"
 3452      616C5F72 
 3452      65636569 
 3452      766500
 3453              	.LASF283:
 3454 1584 5F5F4C41 		.ascii	"__LACCUM_FBIT__ 31\000"
 3454      4343554D 
 3454      5F464249 
 3454      545F5F20 
 3454      333100
 3455              	.LASF242:
 3456 1597 5F5F5546 		.ascii	"__UFRACT_EPSILON__ 0x1P-16UR\000"
 3456      52414354 
 3456      5F455053 
 3456      494C4F4E 
 3456      5F5F2030 
 3457              	.LASF351:
 3458 15b4 5F5F4743 		.ascii	"__GCC_ATOMIC_LONG_LOCK_FREE 1\000"
 3458      435F4154 
 3458      4F4D4943 
 3458      5F4C4F4E 
 3458      475F4C4F 
 3459              	.LASF277:
 3460 15d2 5F5F4143 		.ascii	"__ACCUM_EPSILON__ 0x1P-15K\000"
 3460      43554D5F 
 3460      45505349 
 3460      4C4F4E5F 
 3460      5F203078 
 3461              	.LASF35:
 3462 15ed 5F5F4945 		.ascii	"__IEEE_LITTLE_ENDIAN \000"
 3462      45455F4C 
 3462      4954544C 
 3462      455F454E 
 3462      4449414E 
 3463              	.LASF380:
 3464 1603 5F415445 		.ascii	"_ATEXIT_DYNAMIC_ALLOC 1\000"
 3464      5849545F 
 3464      44594E41 
 3464      4D49435F 
 3464      414C4C4F 
 3465              	.LASF485:
 3466 161b 494E5431 		.ascii	"INT16_C(x) x\000"
 3466      365F4328 
 3466      78292078 
 3466      00
 3467              	.LASF321:
ARM GAS  /tmp/ccZ1pKfK.s 			page 79


 3468 1628 5F5F5554 		.ascii	"__UTQ_FBIT__ 128\000"
 3468      515F4642 
 3468      49545F5F 
 3468      20313238 
 3468      00
 3469              	.LASF124:
 3470 1639 5F5F494E 		.ascii	"__INT16_MAX__ 32767\000"
 3470      5431365F 
 3470      4D41585F 
 3470      5F203332 
 3470      37363700 
 3471              	.LASF9:
 3472 164d 6C6F6E67 		.ascii	"long long int\000"
 3472      206C6F6E 
 3472      6720696E 
 3472      7400
 3473              	.LASF62:
 3474 165b 5F5F4348 		.ascii	"__CHAR_BIT__ 8\000"
 3474      41525F42 
 3474      49545F5F 
 3474      203800
 3475              	.LASF37:
 3476 166a 62756666 		.ascii	"buff_size 32\000"
 3476      5F73697A 
 3476      65203332 
 3476      00
 3477              	.LASF427:
 3478 1677 5F5F696E 		.ascii	"__int_least64_t_defined 1\000"
 3478      745F6C65 
 3478      61737436 
 3478      345F745F 
 3478      64656669 
 3479              	.LASF344:
 3480 1691 5F5F4743 		.ascii	"__GCC_ATOMIC_BOOL_LOCK_FREE 1\000"
 3480      435F4154 
 3480      4F4D4943 
 3480      5F424F4F 
 3480      4C5F4C4F 
 3481              	.LASF195:
 3482 16af 5F5F4C44 		.ascii	"__LDBL_MAX__ 1.7976931348623157e+308L\000"
 3482      424C5F4D 
 3482      41585F5F 
 3482      20312E37 
 3482      39373639 
 3483              	.LASF53:
 3484 16d5 5F5F4649 		.ascii	"__FINITE_MATH_ONLY__ 0\000"
 3484      4E495445 
 3484      5F4D4154 
 3484      485F4F4E 
 3484      4C595F5F 
 3485              	.LASF266:
 3486 16ec 5F5F5341 		.ascii	"__SACCUM_MAX__ 0X7FFFP-7HK\000"
 3486      4343554D 
 3486      5F4D4158 
 3486      5F5F2030 
 3486      58374646 
 3487              	.LASF360:
ARM GAS  /tmp/ccZ1pKfK.s 			page 80


 3488 1707 5F5F6172 		.ascii	"__arm__ 1\000"
 3488      6D5F5F20 
 3488      3100
 3489              	.LASF188:
 3490 1711 5F5F4C44 		.ascii	"__LDBL_MANT_DIG__ 53\000"
 3490      424C5F4D 
 3490      414E545F 
 3490      4449475F 
 3490      5F203533 
 3491              	.LASF409:
 3492 1726 5F434153 		.ascii	"_CAST_VOID (void)\000"
 3492      545F564F 
 3492      49442028 
 3492      766F6964 
 3492      2900
 3493              	.LASF312:
 3494 1738 5F5F5451 		.ascii	"__TQ_IBIT__ 0\000"
 3494      5F494249 
 3494      545F5F20 
 3494      3000
 3495              	.LASF331:
 3496 1746 5F5F5548 		.ascii	"__UHA_FBIT__ 8\000"
 3496      415F4642 
 3496      49545F5F 
 3496      203800
 3497              	.LASF107:
 3498 1755 5F5F5348 		.ascii	"__SHRT_MAX__ 32767\000"
 3498      52545F4D 
 3498      41585F5F 
 3498      20333237 
 3498      363700
 3499              	.LASF143:
 3500 1768 5F5F5549 		.ascii	"__UINT_LEAST32_MAX__ 4294967295UL\000"
 3500      4E545F4C 
 3500      45415354 
 3500      33325F4D 
 3500      41585F5F 
 3501              	.LASF372:
 3502 178a 5F5F454C 		.ascii	"__ELF__ 1\000"
 3502      465F5F20 
 3502      3100
 3503              	.LASF452:
 3504 1794 55494E54 		.ascii	"UINT_LEAST32_MAX 4294967295UL\000"
 3504      5F4C4541 
 3504      53543332 
 3504      5F4D4158 
 3504      20343239 
 3505              	.LASF353:
 3506 17b2 5F5F4743 		.ascii	"__GCC_ATOMIC_TEST_AND_SET_TRUEVAL 1\000"
 3506      435F4154 
 3506      4F4D4943 
 3506      5F544553 
 3506      545F414E 
 3507              	.LASF355:
 3508 17d6 5F5F4743 		.ascii	"__GCC_HAVE_DWARF2_CFI_ASM 1\000"
 3508      435F4841 
 3508      56455F44 
ARM GAS  /tmp/ccZ1pKfK.s 			page 81


 3508      57415246 
 3508      325F4346 
 3509              	.LASF238:
 3510 17f2 5F5F5546 		.ascii	"__UFRACT_FBIT__ 16\000"
 3510      52414354 
 3510      5F464249 
 3510      545F5F20 
 3510      313600
 3511              	.LASF208:
 3512 1805 5F5F4445 		.ascii	"__DEC32_SUBNORMAL_MIN__ 0.000001E-95DF\000"
 3512      4333325F 
 3512      5355424E 
 3512      4F524D41 
 3512      4C5F4D49 
 3513              	.LASF49:
 3514 182c 5F5F4154 		.ascii	"__ATOMIC_ACQUIRE 2\000"
 3514      4F4D4943 
 3514      5F414351 
 3514      55495245 
 3514      203200
 3515              	.LASF423:
 3516 183f 5F5F696E 		.ascii	"__int_least16_t_defined 1\000"
 3516      745F6C65 
 3516      61737431 
 3516      365F745F 
 3516      64656669 
 3517              	.LASF488:
 3518 1859 55494E54 		.ascii	"UINT32_C(x) x ##UL\000"
 3518      33325F43 
 3518      28782920 
 3518      78202323 
 3518      554C00
 3519              	.LASF450:
 3520 186c 494E545F 		.ascii	"INT_LEAST32_MIN (-2147483647L-1)\000"
 3520      4C454153 
 3520      5433325F 
 3520      4D494E20 
 3520      282D3231 
 3521              	.LASF486:
 3522 188d 55494E54 		.ascii	"UINT16_C(x) x\000"
 3522      31365F43 
 3522      28782920 
 3522      7800
 3523              	.LASF430:
 3524 189b 5F5F696E 		.ascii	"__int_fast32_t_defined 1\000"
 3524      745F6661 
 3524      73743332 
 3524      5F745F64 
 3524      6566696E 
 3525              	.LASF38:
 3526 18b4 5F5F5354 		.ascii	"__STDC__ 1\000"
 3526      44435F5F 
 3526      203100
 3527              	.LASF55:
 3528 18bf 5F5F5349 		.ascii	"__SIZEOF_LONG__ 4\000"
 3528      5A454F46 
 3528      5F4C4F4E 
ARM GAS  /tmp/ccZ1pKfK.s 			page 82


 3528      475F5F20 
 3528      3400
 3529              	.LASF178:
 3530 18d1 5F5F4442 		.ascii	"__DBL_MAX_EXP__ 1024\000"
 3530      4C5F4D41 
 3530      585F4558 
 3530      505F5F20 
 3530      31303234 
 3531              	.LASF475:
 3532 18e6 5349475F 		.ascii	"SIG_ATOMIC_MIN (-__STDINT_EXP(INT_MAX) - 1)\000"
 3532      41544F4D 
 3532      49435F4D 
 3532      494E2028 
 3532      2D5F5F53 
 3533              	.LASF52:
 3534 1912 5F5F4154 		.ascii	"__ATOMIC_CONSUME 1\000"
 3534      4F4D4943 
 3534      5F434F4E 
 3534      53554D45 
 3534      203100
 3535              	.LASF440:
 3536 1925 55494E54 		.ascii	"UINT_LEAST8_MAX 255\000"
 3536      5F4C4541 
 3536      5354385F 
 3536      4D415820 
 3536      32353500 
 3537              	.LASF425:
 3538 1939 5F5F696E 		.ascii	"__int_least32_t_defined 1\000"
 3538      745F6C65 
 3538      61737433 
 3538      325F745F 
 3538      64656669 
 3539              	.LASF434:
 3540 1953 55494E54 		.ascii	"UINTPTR_MAX __UINTPTR_MAX__\000"
 3540      5054525F 
 3540      4D415820 
 3540      5F5F5549 
 3540      4E545054 
 3541              	.LASF73:
 3542 196f 5F5F5749 		.ascii	"__WINT_TYPE__ unsigned int\000"
 3542      4E545F54 
 3542      5950455F 
 3542      5F20756E 
 3542      7369676E 
 3543              	.LASF165:
 3544 198a 5F5F464C 		.ascii	"__FLT_MAX_10_EXP__ 38\000"
 3544      545F4D41 
 3544      585F3130 
 3544      5F455850 
 3544      5F5F2033 
 3545              	.LASF248:
 3546 19a0 5F5F554C 		.ascii	"__ULFRACT_FBIT__ 32\000"
 3546      46524143 
 3546      545F4642 
 3546      49545F5F 
 3546      20333200 
 3547              	.LASF72:
ARM GAS  /tmp/ccZ1pKfK.s 			page 83


 3548 19b4 5F5F5743 		.ascii	"__WCHAR_TYPE__ unsigned int\000"
 3548      4841525F 
 3548      54595045 
 3548      5F5F2075 
 3548      6E736967 
 3549              	.LASF13:
 3550 19d0 7072696E 		.ascii	"print_int\000"
 3550      745F696E 
 3550      7400
 3551              	.LASF464:
 3552 19da 55494E54 		.ascii	"UINT_FAST16_MAX (__STDINT_EXP(INT_MAX)*2U+1U)\000"
 3552      5F464153 
 3552      5431365F 
 3552      4D415820 
 3552      285F5F53 
 3553              	.LASF275:
 3554 1a08 5F5F4143 		.ascii	"__ACCUM_MIN__ (-0X1P15K-0X1P15K)\000"
 3554      43554D5F 
 3554      4D494E5F 
 3554      5F20282D 
 3554      30583150 
 3555              	.LASF59:
 3556 1a29 5F5F5349 		.ascii	"__SIZEOF_DOUBLE__ 8\000"
 3556      5A454F46 
 3556      5F444F55 
 3556      424C455F 
 3556      5F203800 
 3557              	.LASF483:
 3558 1a3d 494E5438 		.ascii	"INT8_C(x) x\000"
 3558      5F432878 
 3558      29207800 
 3559              	.LASF45:
 3560 1a49 5F5F474E 		.ascii	"__GNUC_PATCHLEVEL__ 4\000"
 3560      55435F50 
 3560      41544348 
 3560      4C455645 
 3560      4C5F5F20 
 3561              	.LASF236:
 3562 1a5f 5F5F4652 		.ascii	"__FRACT_MAX__ 0X7FFFP-15R\000"
 3562      4143545F 
 3562      4D41585F 
 3562      5F203058 
 3562      37464646 
 3563              	.LASF114:
 3564 1a79 5F5F5749 		.ascii	"__WINT_MIN__ 0U\000"
 3564      4E545F4D 
 3564      494E5F5F 
 3564      20305500 
 3565              	.LASF288:
 3566 1a89 5F5F554C 		.ascii	"__ULACCUM_FBIT__ 32\000"
 3566      41434355 
 3566      4D5F4642 
 3566      49545F5F 
 3566      20333200 
 3567              	.LASF462:
 3568 1a9d 494E545F 		.ascii	"INT_FAST16_MIN (-__STDINT_EXP(INT_MAX)-1)\000"
 3568      46415354 
ARM GAS  /tmp/ccZ1pKfK.s 			page 84


 3568      31365F4D 
 3568      494E2028 
 3568      2D5F5F53 
 3569              	.LASF240:
 3570 1ac7 5F5F5546 		.ascii	"__UFRACT_MIN__ 0.0UR\000"
 3570      52414354 
 3570      5F4D494E 
 3570      5F5F2030 
 3570      2E305552 
 3571              	.LASF40:
 3572 1adc 5F5F5354 		.ascii	"__STDC_UTF_16__ 1\000"
 3572      44435F55 
 3572      54465F31 
 3572      365F5F20 
 3572      3100
 3573              	.LASF18:
 3574 1aee 7072696E 		.ascii	"print_hex\000"
 3574      745F6865 
 3574      7800
 3575              	.LASF234:
 3576 1af8 5F5F4652 		.ascii	"__FRACT_IBIT__ 0\000"
 3576      4143545F 
 3576      49424954 
 3576      5F5F2030 
 3576      00
 3577              	.LASF196:
 3578 1b09 5F5F4C44 		.ascii	"__LDBL_MIN__ 2.2250738585072014e-308L\000"
 3578      424C5F4D 
 3578      494E5F5F 
 3578      20322E32 
 3578      32353037 
 3579              	.LASF329:
 3580 1b2f 5F5F5441 		.ascii	"__TA_FBIT__ 63\000"
 3580      5F464249 
 3580      545F5F20 
 3580      363300
 3581              	.LASF200:
 3582 1b3e 5F5F4C44 		.ascii	"__LDBL_HAS_INFINITY__ 1\000"
 3582      424C5F48 
 3582      41535F49 
 3582      4E46494E 
 3582      4954595F 
 3583              	.LASF102:
 3584 1b56 5F5F5549 		.ascii	"__UINT_FAST64_TYPE__ long long unsigned int\000"
 3584      4E545F46 
 3584      41535436 
 3584      345F5459 
 3584      50455F5F 
 3585              	.LASF19:
 3586 1b82 7072696E 		.ascii	"print_newline\000"
 3586      745F6E65 
 3586      776C696E 
 3586      6500
 3587              	.LASF190:
 3588 1b90 5F5F4C44 		.ascii	"__LDBL_MIN_EXP__ (-1021)\000"
 3588      424C5F4D 
 3588      494E5F45 
ARM GAS  /tmp/ccZ1pKfK.s 			page 85


 3588      58505F5F 
 3588      20282D31 
 3589              	.LASF258:
 3590 1ba9 5F5F554C 		.ascii	"__ULLFRACT_FBIT__ 64\000"
 3590      4C465241 
 3590      43545F46 
 3590      4249545F 
 3590      5F203634 
 3591              	.LASF357:
 3592 1bbe 5F5F5349 		.ascii	"__SIZEOF_WCHAR_T__ 4\000"
 3592      5A454F46 
 3592      5F574348 
 3592      41525F54 
 3592      5F5F2034 
 3593              	.LASF168:
 3594 1bd3 5F5F464C 		.ascii	"__FLT_MIN__ 1.1754943508222875e-38F\000"
 3594      545F4D49 
 3594      4E5F5F20 
 3594      312E3137 
 3594      35343934 
 3595              	.LASF68:
 3596 1bf7 5F5F464C 		.ascii	"__FLOAT_WORD_ORDER__ __ORDER_LITTLE_ENDIAN__\000"
 3596      4F41545F 
 3596      574F5244 
 3596      5F4F5244 
 3596      45525F5F 
 3597              	.LASF12:
 3598 1c24 7072696E 		.ascii	"print_uint\000"
 3598      745F7569 
 3598      6E7400
 3599              	.LASF239:
 3600 1c2f 5F5F5546 		.ascii	"__UFRACT_IBIT__ 0\000"
 3600      52414354 
 3600      5F494249 
 3600      545F5F20 
 3600      3000
 3601              	.LASF202:
 3602 1c41 5F5F4445 		.ascii	"__DEC32_MANT_DIG__ 7\000"
 3602      4333325F 
 3602      4D414E54 
 3602      5F444947 
 3602      5F5F2037 
 3603              	.LASF481:
 3604 1c56 57494E54 		.ascii	"WINT_MAX __WINT_MAX__\000"
 3604      5F4D4158 
 3604      205F5F57 
 3604      494E545F 
 3604      4D41585F 
 3605              	.LASF122:
 3606 1c6c 5F5F5349 		.ascii	"__SIG_ATOMIC_MIN__ (-__SIG_ATOMIC_MAX__ - 1)\000"
 3606      475F4154 
 3606      4F4D4943 
 3606      5F4D494E 
 3606      5F5F2028 
 3607              	.LASF257:
 3608 1c99 5F5F4C4C 		.ascii	"__LLFRACT_EPSILON__ 0x1P-63LLR\000"
 3608      46524143 
ARM GAS  /tmp/ccZ1pKfK.s 			page 86


 3608      545F4550 
 3608      53494C4F 
 3608      4E5F5F20 
 3609              	.LASF193:
 3610 1cb8 5F5F4C44 		.ascii	"__LDBL_MAX_10_EXP__ 308\000"
 3610      424C5F4D 
 3610      41585F31 
 3610      305F4558 
 3610      505F5F20 
 3611              	.LASF223:
 3612 1cd0 5F5F5346 		.ascii	"__SFRACT_FBIT__ 7\000"
 3612      52414354 
 3612      5F464249 
 3612      545F5F20 
 3612      3700
 3613              	.LASF77:
 3614 1ce2 5F5F4348 		.ascii	"__CHAR32_TYPE__ long unsigned int\000"
 3614      41523332 
 3614      5F545950 
 3614      455F5F20 
 3614      6C6F6E67 
 3615              	.LASF470:
 3616 1d04 55494E54 		.ascii	"UINT_FAST64_MAX UINT_LEAST64_MAX\000"
 3616      5F464153 
 3616      5436345F 
 3616      4D415820 
 3616      55494E54 
 3617              	.LASF455:
 3618 1d25 55494E54 		.ascii	"UINT64_MAX 18446744073709551615ULL\000"
 3618      36345F4D 
 3618      41582031 
 3618      38343436 
 3618      37343430 
 3619              	.LASF369:
 3620 1d48 5F5F4152 		.ascii	"__ARM_PCS 1\000"
 3620      4D5F5043 
 3620      53203100 
 3621              	.LASF90:
 3622 1d54 5F5F494E 		.ascii	"__INT_LEAST64_TYPE__ long long int\000"
 3622      545F4C45 
 3622      41535436 
 3622      345F5459 
 3622      50455F5F 
 3623              	.LASF407:
 3624 1d77 5F444546 		.ascii	"_DEFUN(name,arglist,args) name(args)\000"
 3624      554E286E 
 3624      616D652C 
 3624      6172676C 
 3624      6973742C 
 3625              	.LASF429:
 3626 1d9c 5F5F696E 		.ascii	"__int_fast16_t_defined 1\000"
 3626      745F6661 
 3626      73743136 
 3626      5F745F64 
 3626      6566696E 
 3627              	.LASF420:
 3628 1db5 5F5F696E 		.ascii	"__int8_t_defined 1\000"
ARM GAS  /tmp/ccZ1pKfK.s 			page 87


 3628      74385F74 
 3628      5F646566 
 3628      696E6564 
 3628      203100
 3629              	.LASF93:
 3630 1dc8 5F5F5549 		.ascii	"__UINT_LEAST32_TYPE__ long unsigned int\000"
 3630      4E545F4C 
 3630      45415354 
 3630      33325F54 
 3630      5950455F 
 3631              	.LASF309:
 3632 1df0 5F5F4451 		.ascii	"__DQ_FBIT__ 63\000"
 3632      5F464249 
 3632      545F5F20 
 3632      363300
 3633              	.LASF225:
 3634 1dff 5F5F5346 		.ascii	"__SFRACT_MIN__ (-0.5HR-0.5HR)\000"
 3634      52414354 
 3634      5F4D494E 
 3634      5F5F2028 
 3634      2D302E35 
 3635              	.LASF436:
 3636 1e1d 494E5438 		.ascii	"INT8_MAX 127\000"
 3636      5F4D4158 
 3636      20313237 
 3636      00
 3637              	.LASF292:
 3638 1e2a 5F5F554C 		.ascii	"__ULACCUM_EPSILON__ 0x1P-32ULK\000"
 3638      41434355 
 3638      4D5F4550 
 3638      53494C4F 
 3638      4E5F5F20 
 3639              	.LASF453:
 3640 1e49 494E5436 		.ascii	"INT64_MIN (-9223372036854775807LL-1LL)\000"
 3640      345F4D49 
 3640      4E20282D 
 3640      39323233 
 3640      33373230 
 3641              	.LASF127:
 3642 1e70 5F5F5549 		.ascii	"__UINT8_MAX__ 255\000"
 3642      4E54385F 
 3642      4D41585F 
 3642      5F203235 
 3642      3500
 3643              	.LASF286:
 3644 1e82 5F5F4C41 		.ascii	"__LACCUM_MAX__ 0X7FFFFFFFFFFFFFFFP-31LK\000"
 3644      4343554D 
 3644      5F4D4158 
 3644      5F5F2030 
 3644      58374646 
 3645              	.LASF364:
 3646 1eaa 5F5F5448 		.ascii	"__THUMBEL__ 1\000"
 3646      554D4245 
 3646      4C5F5F20 
 3646      3100
 3647              	.LASF308:
 3648 1eb8 5F5F5351 		.ascii	"__SQ_IBIT__ 0\000"
ARM GAS  /tmp/ccZ1pKfK.s 			page 88


 3648      5F494249 
 3648      545F5F20 
 3648      3000
 3649              	.LASF166:
 3650 1ec6 5F5F464C 		.ascii	"__FLT_DECIMAL_DIG__ 9\000"
 3650      545F4445 
 3650      43494D41 
 3650      4C5F4449 
 3650      475F5F20 
 3651              	.LASF461:
 3652 1edc 55494E54 		.ascii	"UINT_FAST8_MAX (__STDINT_EXP(INT_MAX)*2U+1U)\000"
 3652      5F464153 
 3652      54385F4D 
 3652      41582028 
 3652      5F5F5354 
 3653              	.LASF459:
 3654 1f09 494E545F 		.ascii	"INT_FAST8_MIN (-__STDINT_EXP(INT_MAX)-1)\000"
 3654      46415354 
 3654      385F4D49 
 3654      4E20282D 
 3654      5F5F5354 
 3655              	.LASF456:
 3656 1f32 494E545F 		.ascii	"INT_LEAST64_MIN (-9223372036854775807LL-1LL)\000"
 3656      4C454153 
 3656      5436345F 
 3656      4D494E20 
 3656      282D3932 
 3657              	.LASF463:
 3658 1f5f 494E545F 		.ascii	"INT_FAST16_MAX __STDINT_EXP(INT_MAX)\000"
 3658      46415354 
 3658      31365F4D 
 3658      4158205F 
 3658      5F535444 
 3659              	.LASF113:
 3660 1f84 5F5F5749 		.ascii	"__WINT_MAX__ 4294967295U\000"
 3660      4E545F4D 
 3660      41585F5F 
 3660      20343239 
 3660      34393637 
 3661              	.LASF313:
 3662 1f9d 5F5F5551 		.ascii	"__UQQ_FBIT__ 8\000"
 3662      515F4642 
 3662      49545F5F 
 3662      203800
 3663              	.LASF106:
 3664 1fac 5F5F5343 		.ascii	"__SCHAR_MAX__ 127\000"
 3664      4841525F 
 3664      4D41585F 
 3664      5F203132 
 3664      3700
 3665              	.LASF422:
 3666 1fbe 5F5F696E 		.ascii	"__int16_t_defined 1\000"
 3666      7431365F 
 3666      745F6465 
 3666      66696E65 
 3666      64203100 
 3667              	.LASF153:
ARM GAS  /tmp/ccZ1pKfK.s 			page 89


 3668 1fd2 5F5F5549 		.ascii	"__UINT_FAST32_MAX__ 4294967295U\000"
 3668      4E545F46 
 3668      41535433 
 3668      325F4D41 
 3668      585F5F20 
 3669              	.LASF2:
 3670 1ff2 73686F72 		.ascii	"short int\000"
 3670      7420696E 
 3670      7400
 3671              	.LASF281:
 3672 1ffc 5F5F5541 		.ascii	"__UACCUM_MAX__ 0XFFFFFFFFP-16UK\000"
 3672      4343554D 
 3672      5F4D4158 
 3672      5F5F2030 
 3672      58464646 
 3673              	.LASF386:
 3674 201c 5F5F5241 		.ascii	"__RAND_MAX\000"
 3674      4E445F4D 
 3674      415800
 3675              	.LASF211:
 3676 2027 5F5F4445 		.ascii	"__DEC64_MAX_EXP__ 385\000"
 3676      4336345F 
 3676      4D41585F 
 3676      4558505F 
 3676      5F203338 
 3677              	.LASF315:
 3678 203d 5F5F5548 		.ascii	"__UHQ_FBIT__ 16\000"
 3678      515F4642 
 3678      49545F5F 
 3678      20313600 
 3679              	.LASF81:
 3680 204d 5F5F494E 		.ascii	"__INT32_TYPE__ long int\000"
 3680      5433325F 
 3680      54595045 
 3680      5F5F206C 
 3680      6F6E6720 
 3681              	.LASF471:
 3682 2065 494E544D 		.ascii	"INTMAX_MAX __INTMAX_MAX__\000"
 3682      41585F4D 
 3682      4158205F 
 3682      5F494E54 
 3682      4D41585F 
 3683              	.LASF6:
 3684 207f 6C6F6E67 		.ascii	"long int\000"
 3684      20696E74 
 3684      00
 3685              	.LASF424:
 3686 2088 5F5F696E 		.ascii	"__int32_t_defined 1\000"
 3686      7433325F 
 3686      745F6465 
 3686      66696E65 
 3686      64203100 
 3687              	.LASF192:
 3688 209c 5F5F4C44 		.ascii	"__LDBL_MAX_EXP__ 1024\000"
 3688      424C5F4D 
 3688      41585F45 
 3688      58505F5F 
ARM GAS  /tmp/ccZ1pKfK.s 			page 90


 3688      20313032 
 3689              	.LASF307:
 3690 20b2 5F5F5351 		.ascii	"__SQ_FBIT__ 31\000"
 3690      5F464249 
 3690      545F5F20 
 3690      333100
 3691              	.LASF245:
 3692 20c1 5F5F4C46 		.ascii	"__LFRACT_MIN__ (-0.5LR-0.5LR)\000"
 3692      52414354 
 3692      5F4D494E 
 3692      5F5F2028 
 3692      2D302E35 
 3693              	.LASF400:
 3694 20df 5F534947 		.ascii	"_SIGNED signed\000"
 3694      4E454420 
 3694      7369676E 
 3694      656400
 3695              	.LASF218:
 3696 20ee 5F5F4445 		.ascii	"__DEC128_MAX_EXP__ 6145\000"
 3696      43313238 
 3696      5F4D4158 
 3696      5F455850 
 3696      5F5F2036 
 3697              	.LASF477:
 3698 2106 50545244 		.ascii	"PTRDIFF_MAX __PTRDIFF_MAX__\000"
 3698      4946465F 
 3698      4D415820 
 3698      5F5F5054 
 3698      52444946 
 3699              	.LASF416:
 3700 2122 5F4E4F49 		.ascii	"_NOINLINE_STATIC _NOINLINE static\000"
 3700      4E4C494E 
 3700      455F5354 
 3700      41544943 
 3700      205F4E4F 
 3701              	.LASF362:
 3702 2144 5F5F7468 		.ascii	"__thumb__ 1\000"
 3702      756D625F 
 3702      5F203100 
 3703              	.LASF201:
 3704 2150 5F5F4C44 		.ascii	"__LDBL_HAS_QUIET_NAN__ 1\000"
 3704      424C5F48 
 3704      41535F51 
 3704      55494554 
 3704      5F4E414E 
 3705              	.LASF79:
 3706 2169 5F5F494E 		.ascii	"__INT8_TYPE__ signed char\000"
 3706      54385F54 
 3706      5950455F 
 3706      5F207369 
 3706      676E6564 
 3707              	.LASF340:
 3708 2183 5F5F5553 		.ascii	"__USER_LABEL_PREFIX__ \000"
 3708      45525F4C 
 3708      4142454C 
 3708      5F505245 
 3708      4649585F 
ARM GAS  /tmp/ccZ1pKfK.s 			page 91


 3709              	.LASF376:
 3710 219a 5F57414E 		.ascii	"_WANT_IO_LONG_LONG 1\000"
 3710      545F494F 
 3710      5F4C4F4E 
 3710      475F4C4F 
 3710      4E472031 
 3711              	.LASF458:
 3712 21af 55494E54 		.ascii	"UINT_LEAST64_MAX 18446744073709551615ULL\000"
 3712      5F4C4541 
 3712      53543634 
 3712      5F4D4158 
 3712      20313834 
 3713              	.LASF385:
 3714 21d8 5F504F49 		.ascii	"_POINTER_INT long\000"
 3714      4E544552 
 3714      5F494E54 
 3714      206C6F6E 
 3714      6700
 3715              	.LASF484:
 3716 21ea 55494E54 		.ascii	"UINT8_C(x) x\000"
 3716      385F4328 
 3716      78292078 
 3716      00
 3717              	.LASF311:
 3718 21f7 5F5F5451 		.ascii	"__TQ_FBIT__ 127\000"
 3718      5F464249 
 3718      545F5F20 
 3718      31323700 
 3719              	.LASF232:
 3720 2207 5F5F5553 		.ascii	"__USFRACT_EPSILON__ 0x1P-8UHR\000"
 3720      46524143 
 3720      545F4550 
 3720      53494C4F 
 3720      4E5F5F20 
 3721              	.LASF154:
 3722 2225 5F5F5549 		.ascii	"__UINT_FAST64_MAX__ 18446744073709551615ULL\000"
 3722      4E545F46 
 3722      41535436 
 3722      345F4D41 
 3722      585F5F20 
 3723              	.LASF388:
 3724 2251 5F5F4558 		.ascii	"__EXPORT \000"
 3724      504F5254 
 3724      2000
 3725              	.LASF454:
 3726 225b 494E5436 		.ascii	"INT64_MAX 9223372036854775807LL\000"
 3726      345F4D41 
 3726      58203932 
 3726      32333337 
 3726      32303336 
 3727              	.LASF299:
 3728 227b 5F5F554C 		.ascii	"__ULLACCUM_IBIT__ 32\000"
 3728      4C414343 
 3728      554D5F49 
 3728      4249545F 
 3728      5F203332 
 3729              	.LASF126:
ARM GAS  /tmp/ccZ1pKfK.s 			page 92


 3730 2290 5F5F494E 		.ascii	"__INT64_MAX__ 9223372036854775807LL\000"
 3730      5436345F 
 3730      4D41585F 
 3730      5F203932 
 3730      32333337 
 3731              	.LASF228:
 3732 22b4 5F5F5553 		.ascii	"__USFRACT_FBIT__ 8\000"
 3732      46524143 
 3732      545F4642 
 3732      49545F5F 
 3732      203800
 3733              	.LASF319:
 3734 22c7 5F5F5544 		.ascii	"__UDQ_FBIT__ 64\000"
 3734      515F4642 
 3734      49545F5F 
 3734      20363400 
 3735              	.LASF305:
 3736 22d7 5F5F4851 		.ascii	"__HQ_FBIT__ 15\000"
 3736      5F464249 
 3736      545F5F20 
 3736      313500
 3737              	.LASF152:
 3738 22e6 5F5F5549 		.ascii	"__UINT_FAST16_MAX__ 4294967295U\000"
 3738      4E545F46 
 3738      41535431 
 3738      365F4D41 
 3738      585F5F20 
 3739              	.LASF332:
 3740 2306 5F5F5548 		.ascii	"__UHA_IBIT__ 8\000"
 3740      415F4942 
 3740      49545F5F 
 3740      203800
 3741              	.LASF224:
 3742 2315 5F5F5346 		.ascii	"__SFRACT_IBIT__ 0\000"
 3742      52414354 
 3742      5F494249 
 3742      545F5F20 
 3742      3000
 3743              	.LASF56:
 3744 2327 5F5F5349 		.ascii	"__SIZEOF_LONG_LONG__ 8\000"
 3744      5A454F46 
 3744      5F4C4F4E 
 3744      475F4C4F 
 3744      4E475F5F 
 3745              	.LASF314:
 3746 233e 5F5F5551 		.ascii	"__UQQ_IBIT__ 0\000"
 3746      515F4942 
 3746      49545F5F 
 3746      203000
 3747              	.LASF83:
 3748 234d 5F5F5549 		.ascii	"__UINT8_TYPE__ unsigned char\000"
 3748      4E54385F 
 3748      54595045 
 3748      5F5F2075 
 3748      6E736967 
 3749              	.LASF138:
 3750 236a 5F5F494E 		.ascii	"__INT64_C(c) c ## LL\000"
ARM GAS  /tmp/ccZ1pKfK.s 			page 93


 3750      5436345F 
 3750      43286329 
 3750      20632023 
 3750      23204C4C 
 3751              	.LASF169:
 3752 237f 5F5F464C 		.ascii	"__FLT_EPSILON__ 1.1920928955078125e-7F\000"
 3752      545F4550 
 3752      53494C4F 
 3752      4E5F5F20 
 3752      312E3139 
 3753              	.LASF141:
 3754 23a6 5F5F5549 		.ascii	"__UINT_LEAST16_MAX__ 65535\000"
 3754      4E545F4C 
 3754      45415354 
 3754      31365F4D 
 3754      41585F5F 
 3755              	.LASF387:
 3756 23c1 5F5F5241 		.ascii	"__RAND_MAX 0x7fffffff\000"
 3756      4E445F4D 
 3756      41582030 
 3756      78376666 
 3756      66666666 
 3757              	.LASF432:
 3758 23d7 494E5450 		.ascii	"INTPTR_MAX PTRDIFF_MAX\000"
 3758      54525F4D 
 3758      41582050 
 3758      54524449 
 3758      46465F4D 
 3759              	.LASF85:
 3760 23ee 5F5F5549 		.ascii	"__UINT32_TYPE__ long unsigned int\000"
 3760      4E543332 
 3760      5F545950 
 3760      455F5F20 
 3760      6C6F6E67 
 3761              	.LASF191:
 3762 2410 5F5F4C44 		.ascii	"__LDBL_MIN_10_EXP__ (-307)\000"
 3762      424C5F4D 
 3762      494E5F31 
 3762      305F4558 
 3762      505F5F20 
 3763              	.LASF69:
 3764 242b 5F5F5349 		.ascii	"__SIZEOF_POINTER__ 4\000"
 3764      5A454F46 
 3764      5F504F49 
 3764      4E544552 
 3764      5F5F2034 
 3765              	.LASF366:
 3766 2440 5F5F5646 		.ascii	"__VFP_FP__ 1\000"
 3766      505F4650 
 3766      5F5F2031 
 3766      00
 3767              	.LASF405:
 3768 244d 5F455850 		.ascii	"_EXPARM(name,proto) (* name) proto\000"
 3768      41524D28 
 3768      6E616D65 
 3768      2C70726F 
 3768      746F2920 
ARM GAS  /tmp/ccZ1pKfK.s 			page 94


 3769              	.LASF251:
 3770 2470 5F5F554C 		.ascii	"__ULFRACT_MAX__ 0XFFFFFFFFP-32ULR\000"
 3770      46524143 
 3770      545F4D41 
 3770      585F5F20 
 3770      30584646 
 3771              	.LASF323:
 3772 2492 5F5F4841 		.ascii	"__HA_FBIT__ 7\000"
 3772      5F464249 
 3772      545F5F20 
 3772      3700
 3773              	.LASF265:
 3774 24a0 5F5F5341 		.ascii	"__SACCUM_MIN__ (-0X1P7HK-0X1P7HK)\000"
 3774      4343554D 
 3774      5F4D494E 
 3774      5F5F2028 
 3774      2D305831 
 3775              	.LASF121:
 3776 24c2 5F5F5349 		.ascii	"__SIG_ATOMIC_MAX__ 2147483647\000"
 3776      475F4154 
 3776      4F4D4943 
 3776      5F4D4158 
 3776      5F5F2032 
 3777              	.LASF354:
 3778 24e0 5F5F4743 		.ascii	"__GCC_ATOMIC_POINTER_LOCK_FREE 1\000"
 3778      435F4154 
 3778      4F4D4943 
 3778      5F504F49 
 3778      4E544552 
 3779              	.LASF457:
 3780 2501 494E545F 		.ascii	"INT_LEAST64_MAX 9223372036854775807LL\000"
 3780      4C454153 
 3780      5436345F 
 3780      4D415820 
 3780      39323233 
 3781              	.LASF146:
 3782 2527 5F5F5549 		.ascii	"__UINT64_C(c) c ## ULL\000"
 3782      4E543634 
 3782      5F432863 
 3782      29206320 
 3782      23232055 
 3783              	.LASF287:
 3784 253e 5F5F4C41 		.ascii	"__LACCUM_EPSILON__ 0x1P-31LK\000"
 3784      4343554D 
 3784      5F455053 
 3784      494C4F4E 
 3784      5F5F2030 
 3785              	.LASF227:
 3786 255b 5F5F5346 		.ascii	"__SFRACT_EPSILON__ 0x1P-7HR\000"
 3786      52414354 
 3786      5F455053 
 3786      494C4F4E 
 3786      5F5F2030 
 3787              	.LASF25:
 3788 2577 73697A65 		.ascii	"sizetype\000"
 3788      74797065 
 3788      00
ARM GAS  /tmp/ccZ1pKfK.s 			page 95


 3789              	.LASF317:
 3790 2580 5F5F5553 		.ascii	"__USQ_FBIT__ 32\000"
 3790      515F4642 
 3790      49545F5F 
 3790      20333200 
 3791              	.LASF324:
 3792 2590 5F5F4841 		.ascii	"__HA_IBIT__ 8\000"
 3792      5F494249 
 3792      545F5F20 
 3792      3800
 3793              	.LASF8:
 3794 259e 6C6F6E67 		.ascii	"long unsigned int\000"
 3794      20756E73 
 3794      69676E65 
 3794      6420696E 
 3794      7400
 3795              	.LASF276:
 3796 25b0 5F5F4143 		.ascii	"__ACCUM_MAX__ 0X7FFFFFFFP-15K\000"
 3796      43554D5F 
 3796      4D41585F 
 3796      5F203058 
 3796      37464646 
 3797              	.LASF347:
 3798 25ce 5F5F4743 		.ascii	"__GCC_ATOMIC_CHAR32_T_LOCK_FREE 1\000"
 3798      435F4154 
 3798      4F4D4943 
 3798      5F434841 
 3798      5233325F 
 3799              	.LASF39:
 3800 25f0 5F5F5354 		.ascii	"__STDC_VERSION__ 199901L\000"
 3800      44435F56 
 3800      45525349 
 3800      4F4E5F5F 
 3800      20313939 
 3801              	.LASF128:
 3802 2609 5F5F5549 		.ascii	"__UINT16_MAX__ 65535\000"
 3802      4E543136 
 3802      5F4D4158 
 3802      5F5F2036 
 3802      35353335 
 3803              	.LASF118:
 3804 261e 5F5F494E 		.ascii	"__INTMAX_C(c) c ## LL\000"
 3804      544D4158 
 3804      5F432863 
 3804      29206320 
 3804      2323204C 
 3805              	.LASF406:
 3806 2634 5F455846 		.ascii	"_EXFNPTR(name,proto) (* name) proto\000"
 3806      4E505452 
 3806      286E616D 
 3806      652C7072 
 3806      6F746F29 
 3807              	.LASF119:
 3808 2658 5F5F5549 		.ascii	"__UINTMAX_MAX__ 18446744073709551615ULL\000"
 3808      4E544D41 
 3808      585F4D41 
 3808      585F5F20 
ARM GAS  /tmp/ccZ1pKfK.s 			page 96


 3808      31383434 
 3809              	.LASF5:
 3810 2680 696E7433 		.ascii	"int32_t\000"
 3810      325F7400 
 3811              	.LASF42:
 3812 2688 5F5F5354 		.ascii	"__STDC_HOSTED__ 1\000"
 3812      44435F48 
 3812      4F535445 
 3812      445F5F20 
 3812      3100
 3813              	.LASF117:
 3814 269a 5F5F494E 		.ascii	"__INTMAX_MAX__ 9223372036854775807LL\000"
 3814      544D4158 
 3814      5F4D4158 
 3814      5F5F2039 
 3814      32323333 
 3815              	.LASF451:
 3816 26bf 494E545F 		.ascii	"INT_LEAST32_MAX 2147483647L\000"
 3816      4C454153 
 3816      5433325F 
 3816      4D415820 
 3816      32313437 
 3817              	.LASF468:
 3818 26db 494E545F 		.ascii	"INT_FAST64_MIN INT_LEAST64_MIN\000"
 3818      46415354 
 3818      36345F4D 
 3818      494E2049 
 3818      4E545F4C 
 3819              	.LASF413:
 3820 26fa 5F415454 		.ascii	"_ATTRIBUTE(attrs) __attribute__ (attrs)\000"
 3820      52494255 
 3820      54452861 
 3820      74747273 
 3820      29205F5F 
 3821              	.LASF401:
 3822 2722 5F444F54 		.ascii	"_DOTS , ...\000"
 3822      53202C20 
 3822      2E2E2E00 
 3823              	.LASF365:
 3824 272e 5F5F534F 		.ascii	"__SOFTFP__ 1\000"
 3824      46544650 
 3824      5F5F2031 
 3824      00
 3825              	.LASF150:
 3826 273b 5F5F494E 		.ascii	"__INT_FAST64_MAX__ 9223372036854775807LL\000"
 3826      545F4641 
 3826      53543634 
 3826      5F4D4158 
 3826      5F5F2039 
 3827              	.LASF442:
 3828 2764 494E5431 		.ascii	"INT16_MAX 32767\000"
 3828      365F4D41 
 3828      58203332 
 3828      37363700 
 3829              	.LASF417:
 3830 2774 5F5F5354 		.ascii	"__STDINT_EXP(x) __ ##x ##__\000"
 3830      44494E54 
ARM GAS  /tmp/ccZ1pKfK.s 			page 97


 3830      5F455850 
 3830      28782920 
 3830      5F5F2023 
 3831              	.LASF433:
 3832 2790 494E5450 		.ascii	"INTPTR_MIN PTRDIFF_MIN\000"
 3832      54525F4D 
 3832      494E2050 
 3832      54524449 
 3832      46465F4D 
 3833              	.LASF491:
 3834 27a7 494E544D 		.ascii	"INTMAX_C(x) x ##LL\000"
 3834      41585F43 
 3834      28782920 
 3834      78202323 
 3834      4C4C00
 3835              	.LASF352:
 3836 27ba 5F5F4743 		.ascii	"__GCC_ATOMIC_LLONG_LOCK_FREE 1\000"
 3836      435F4154 
 3836      4F4D4943 
 3836      5F4C4C4F 
 3836      4E475F4C 
 3837              	.LASF164:
 3838 27d9 5F5F464C 		.ascii	"__FLT_MAX_EXP__ 128\000"
 3838      545F4D41 
 3838      585F4558 
 3838      505F5F20 
 3838      31323800 
 3839              	.LASF51:
 3840 27ed 5F5F4154 		.ascii	"__ATOMIC_ACQ_REL 4\000"
 3840      4F4D4943 
 3840      5F414351 
 3840      5F52454C 
 3840      203400
 3841              	.LASF1:
 3842 2800 756E7369 		.ascii	"unsigned char\000"
 3842      676E6564 
 3842      20636861 
 3842      7200
 3843              	.LASF203:
 3844 280e 5F5F4445 		.ascii	"__DEC32_MIN_EXP__ (-94)\000"
 3844      4333325F 
 3844      4D494E5F 
 3844      4558505F 
 3844      5F20282D 
 3845              	.LASF75:
 3846 2826 5F5F5549 		.ascii	"__UINTMAX_TYPE__ long long unsigned int\000"
 3846      4E544D41 
 3846      585F5459 
 3846      50455F5F 
 3846      206C6F6E 
 3847              	.LASF394:
 3848 284e 5F4E4F54 		.ascii	"_NOTHROW \000"
 3848      48524F57 
 3848      2000
 3849              	.LASF197:
 3850 2858 5F5F4C44 		.ascii	"__LDBL_EPSILON__ 2.2204460492503131e-16L\000"
 3850      424C5F45 
ARM GAS  /tmp/ccZ1pKfK.s 			page 98


 3850      5053494C 
 3850      4F4E5F5F 
 3850      20322E32 
 3851              	.LASF103:
 3852 2881 5F5F494E 		.ascii	"__INTPTR_TYPE__ int\000"
 3852      54505452 
 3852      5F545950 
 3852      455F5F20 
 3852      696E7400 
 3853              	.LASF391:
 3854 2895 5F484156 		.ascii	"_HAVE_STDC \000"
 3854      455F5354 
 3854      44432000 
 3855              	.LASF66:
 3856 28a1 5F5F4F52 		.ascii	"__ORDER_PDP_ENDIAN__ 3412\000"
 3856      4445525F 
 3856      5044505F 
 3856      454E4449 
 3856      414E5F5F 
 3857              	.LASF229:
 3858 28bb 5F5F5553 		.ascii	"__USFRACT_IBIT__ 0\000"
 3858      46524143 
 3858      545F4942 
 3858      49545F5F 
 3858      203000
 3859              	.LASF101:
 3860 28ce 5F5F5549 		.ascii	"__UINT_FAST32_TYPE__ unsigned int\000"
 3860      4E545F46 
 3860      41535433 
 3860      325F5459 
 3860      50455F5F 
 3861              	.LASF216:
 3862 28f0 5F5F4445 		.ascii	"__DEC128_MANT_DIG__ 34\000"
 3862      43313238 
 3862      5F4D414E 
 3862      545F4449 
 3862      475F5F20 
 3863              	.LASF310:
 3864 2907 5F5F4451 		.ascii	"__DQ_IBIT__ 0\000"
 3864      5F494249 
 3864      545F5F20 
 3864      3000
 3865              	.LASF159:
 3866 2915 5F5F464C 		.ascii	"__FLT_RADIX__ 2\000"
 3866      545F5241 
 3866      4449585F 
 3866      5F203200 
 3867              	.LASF147:
 3868 2925 5F5F494E 		.ascii	"__INT_FAST8_MAX__ 2147483647\000"
 3868      545F4641 
 3868      5354385F 
 3868      4D41585F 
 3868      5F203231 
 3869              	.LASF70:
 3870 2942 5F5F5349 		.ascii	"__SIZE_TYPE__ unsigned int\000"
 3870      5A455F54 
 3870      5950455F 
ARM GAS  /tmp/ccZ1pKfK.s 			page 99


 3870      5F20756E 
 3870      7369676E 
 3871              	.LASF480:
 3872 295d 57434841 		.ascii	"WCHAR_MIN __WCHAR_MIN__\000"
 3872      525F4D49 
 3872      4E205F5F 
 3872      57434841 
 3872      525F4D49 
 3873              	.LASF487:
 3874 2975 494E5433 		.ascii	"INT32_C(x) x ##L\000"
 3874      325F4328 
 3874      78292078 
 3874      2023234C 
 3874      00
 3875              	.LASF298:
 3876 2986 5F5F554C 		.ascii	"__ULLACCUM_FBIT__ 32\000"
 3876      4C414343 
 3876      554D5F46 
 3876      4249545F 
 3876      5F203332 
 3877              	.LASF349:
 3878 299b 5F5F4743 		.ascii	"__GCC_ATOMIC_SHORT_LOCK_FREE 1\000"
 3878      435F4154 
 3878      4F4D4943 
 3878      5F53484F 
 3878      52545F4C 
 3879              	.LASF370:
 3880 29ba 5F5F4152 		.ascii	"__ARM_EABI__ 1\000"
 3880      4D5F4541 
 3880      42495F5F 
 3880      203100
 3881              	.LASF112:
 3882 29c9 5F5F5743 		.ascii	"__WCHAR_MIN__ 0U\000"
 3882      4841525F 
 3882      4D494E5F 
 3882      5F203055 
 3882      00
 3883              	.LASF186:
 3884 29da 5F5F4442 		.ascii	"__DBL_HAS_INFINITY__ 1\000"
 3884      4C5F4841 
 3884      535F494E 
 3884      46494E49 
 3884      54595F5F 
 3885              	.LASF97:
 3886 29f1 5F5F494E 		.ascii	"__INT_FAST32_TYPE__ int\000"
 3886      545F4641 
 3886      53543332 
 3886      5F545950 
 3886      455F5F20 
 3887              	.LASF264:
 3888 2a09 5F5F5341 		.ascii	"__SACCUM_IBIT__ 8\000"
 3888      4343554D 
 3888      5F494249 
 3888      545F5F20 
 3888      3800
 3889              	.LASF374:
 3890 2a1b 5F5F4E45 		.ascii	"__NEWLIB_H__ 1\000"
ARM GAS  /tmp/ccZ1pKfK.s 			page 100


 3890      574C4942 
 3890      5F485F5F 
 3890      203100
 3891              	.LASF54:
 3892 2a2a 5F5F5349 		.ascii	"__SIZEOF_INT__ 4\000"
 3892      5A454F46 
 3892      5F494E54 
 3892      5F5F2034 
 3892      00
 3893              	.LASF74:
 3894 2a3b 5F5F494E 		.ascii	"__INTMAX_TYPE__ long long int\000"
 3894      544D4158 
 3894      5F545950 
 3894      455F5F20 
 3894      6C6F6E67 
 3895              	.LASF222:
 3896 2a59 5F5F4445 		.ascii	"__DEC128_SUBNORMAL_MIN__ 0.000000000000000000000000"
 3896      43313238 
 3896      5F535542 
 3896      4E4F524D 
 3896      414C5F4D 
 3897 2a8c 30303030 		.ascii	"000000001E-6143DL\000"
 3897      30303030 
 3897      31452D36 
 3897      31343344 
 3897      4C00
 3898              	.LASF361:
 3899 2a9e 5F5F4150 		.ascii	"__APCS_32__ 1\000"
 3899      43535F33 
 3899      325F5F20 
 3899      3100
 3900              	.LASF403:
 3901 2aac 5F455846 		.ascii	"_EXFUN_NOTHROW(name,proto) name proto _NOTHROW\000"
 3901      554E5F4E 
 3901      4F544852 
 3901      4F57286E 
 3901      616D652C 
 3902              	.LASF21:
 3903 2adb 72656164 		.ascii	"read_char\000"
 3903      5F636861 
 3903      7200
 3904              	.LASF467:
 3905 2ae5 55494E54 		.ascii	"UINT_FAST32_MAX (__STDINT_EXP(INT_MAX)*2U+1U)\000"
 3905      5F464153 
 3905      5433325F 
 3905      4D415820 
 3905      285F5F53 
 3906              	.LASF184:
 3907 2b13 5F5F4442 		.ascii	"__DBL_DENORM_MIN__ ((double)4.9406564584124654e-324"
 3907      4C5F4445 
 3907      4E4F524D 
 3907      5F4D494E 
 3907      5F5F2028 
 3908 2b46 4C2900   		.ascii	"L)\000"
 3909              	.LASF86:
 3910 2b49 5F5F5549 		.ascii	"__UINT64_TYPE__ long long unsigned int\000"
 3910      4E543634 
ARM GAS  /tmp/ccZ1pKfK.s 			page 101


 3910      5F545950 
 3910      455F5F20 
 3910      6C6F6E67 
 3911              	.LASF179:
 3912 2b70 5F5F4442 		.ascii	"__DBL_MAX_10_EXP__ 308\000"
 3912      4C5F4D41 
 3912      585F3130 
 3912      5F455850 
 3912      5F5F2033 
 3913              	.LASF3:
 3914 2b87 73686F72 		.ascii	"short unsigned int\000"
 3914      7420756E 
 3914      7369676E 
 3914      65642069 
 3914      6E7400
 3915              	.LASF439:
 3916 2b9a 494E545F 		.ascii	"INT_LEAST8_MAX 127\000"
 3916      4C454153 
 3916      54385F4D 
 3916      41582031 
 3916      323700
 3917              	.LASF330:
 3918 2bad 5F5F5441 		.ascii	"__TA_IBIT__ 64\000"
 3918      5F494249 
 3918      545F5F20 
 3918      363400
 3919              	.LASF303:
 3920 2bbc 5F5F5151 		.ascii	"__QQ_FBIT__ 7\000"
 3920      5F464249 
 3920      545F5F20 
 3920      3700
 3921              	.LASF431:
 3922 2bca 5F5F696E 		.ascii	"__int_fast64_t_defined 1\000"
 3922      745F6661 
 3922      73743634 
 3922      5F745F64 
 3922      6566696E 
 3923              	.LASF92:
 3924 2be3 5F5F5549 		.ascii	"__UINT_LEAST16_TYPE__ short unsigned int\000"
 3924      4E545F4C 
 3924      45415354 
 3924      31365F54 
 3924      5950455F 
 3925              	.LASF478:
 3926 2c0c 50545244 		.ascii	"PTRDIFF_MIN (-PTRDIFF_MAX - 1)\000"
 3926      4946465F 
 3926      4D494E20 
 3926      282D5054 
 3926      52444946 
 3927              	.LASF162:
 3928 2c2b 5F5F464C 		.ascii	"__FLT_MIN_EXP__ (-125)\000"
 3928      545F4D49 
 3928      4E5F4558 
 3928      505F5F20 
 3928      282D3132 
 3929              	.LASF220:
 3930 2c42 5F5F4445 		.ascii	"__DEC128_MAX__ 9.999999999999999999999999999999999E"
ARM GAS  /tmp/ccZ1pKfK.s 			page 102


 3930      43313238 
 3930      5F4D4158 
 3930      5F5F2039 
 3930      2E393939 
 3931 2c75 36313434 		.ascii	"6144DL\000"
 3931      444C00
 3932              	.LASF412:
 3933 2c7c 5F504152 		.ascii	"_PARAMS(paramlist) paramlist\000"
 3933      414D5328 
 3933      70617261 
 3933      6D6C6973 
 3933      74292070 
 3934              	.LASF389:
 3935 2c99 5F5F494D 		.ascii	"__IMPORT \000"
 3935      504F5254 
 3935      2000
 3936              	.LASF194:
 3937 2ca3 5F5F4445 		.ascii	"__DECIMAL_DIG__ 17\000"
 3937      43494D41 
 3937      4C5F4449 
 3937      475F5F20 
 3937      313700
 3938              	.LASF404:
 3939 2cb6 5F455846 		.ascii	"_EXFUN(name,proto) name proto\000"
 3939      554E286E 
 3939      616D652C 
 3939      70726F74 
 3939      6F29206E 
 3940              	.LASF136:
 3941 2cd4 5F5F494E 		.ascii	"__INT32_C(c) c ## L\000"
 3941      5433325F 
 3941      43286329 
 3941      20632023 
 3941      23204C00 
 3942              	.LASF492:
 3943 2ce8 55494E54 		.ascii	"UINTMAX_C(x) x ##ULL\000"
 3943      4D41585F 
 3943      43287829 
 3943      20782023 
 3943      23554C4C 
 3944              	.LASF185:
 3945 2cfd 5F5F4442 		.ascii	"__DBL_HAS_DENORM__ 1\000"
 3945      4C5F4841 
 3945      535F4445 
 3945      4E4F524D 
 3945      5F5F2031 
 3946              	.LASF418:
 3947 2d12 5F5F6861 		.ascii	"__have_longlong64 1\000"
 3947      76655F6C 
 3947      6F6E676C 
 3947      6F6E6736 
 3947      34203100 
 3948              	.LASF438:
 3949 2d26 494E545F 		.ascii	"INT_LEAST8_MIN -128\000"
 3949      4C454153 
 3949      54385F4D 
 3949      494E202D 
ARM GAS  /tmp/ccZ1pKfK.s 			page 103


 3949      31323800 
 3950              	.LASF338:
 3951 2d3a 5F5F5554 		.ascii	"__UTA_IBIT__ 64\000"
 3951      415F4942 
 3951      49545F5F 
 3951      20363400 
 3952              	.LASF30:
 3953 2d4a 2F686F6D 		.ascii	"/home/wrcooke/git/projects/arm_gcc/fortharm\000"
 3953      652F7772 
 3953      636F6F6B 
 3953      652F6769 
 3953      742F7072 
 3954              	.LASF246:
 3955 2d76 5F5F4C46 		.ascii	"__LFRACT_MAX__ 0X7FFFFFFFP-31LR\000"
 3955      52414354 
 3955      5F4D4158 
 3955      5F5F2030 
 3955      58374646 
 3956              	.LASF335:
 3957 2d96 5F5F5544 		.ascii	"__UDA_FBIT__ 32\000"
 3957      415F4642 
 3957      49545F5F 
 3957      20333200 
 3958              	.LASF14:
 3959 2da6 7072696E 		.ascii	"print_char\000"
 3959      745F6368 
 3959      617200
 3960              	.LASF293:
 3961 2db1 5F5F4C4C 		.ascii	"__LLACCUM_FBIT__ 31\000"
 3961      41434355 
 3961      4D5F4642 
 3961      49545F5F 
 3961      20333100 
 3962              	.LASF212:
 3963 2dc5 5F5F4445 		.ascii	"__DEC64_MIN__ 1E-383DD\000"
 3963      4336345F 
 3963      4D494E5F 
 3963      5F203145 
 3963      2D333833 
 3964              	.LASF421:
 3965 2ddc 5F5F696E 		.ascii	"__int_least8_t_defined 1\000"
 3965      745F6C65 
 3965      61737438 
 3965      5F745F64 
 3965      6566696E 
 3966              	.LASF392:
 3967 2df5 5F424547 		.ascii	"_BEGIN_STD_C \000"
 3967      494E5F53 
 3967      54445F43 
 3967      2000
 3968              	.LASF356:
 3969 2e03 5F5F5052 		.ascii	"__PRAGMA_REDEFINE_EXTNAME 1\000"
 3969      41474D41 
 3969      5F524544 
 3969      4546494E 
 3969      455F4558 
 3970              	.LASF78:
ARM GAS  /tmp/ccZ1pKfK.s 			page 104


 3971 2e1f 5F5F5349 		.ascii	"__SIG_ATOMIC_TYPE__ int\000"
 3971      475F4154 
 3971      4F4D4943 
 3971      5F545950 
 3971      455F5F20 
 3972              	.LASF255:
 3973 2e37 5F5F4C4C 		.ascii	"__LLFRACT_MIN__ (-0.5LLR-0.5LLR)\000"
 3973      46524143 
 3973      545F4D49 
 3973      4E5F5F20 
 3973      282D302E 
 3974              	.LASF33:
 3975 2e58 5F414E53 		.ascii	"_ANSIDECL_H_ \000"
 3975      49444543 
 3975      4C5F485F 
 3975      2000
 3976              	.LASF262:
 3977 2e66 5F5F554C 		.ascii	"__ULLFRACT_EPSILON__ 0x1P-64ULLR\000"
 3977      4C465241 
 3977      43545F45 
 3977      5053494C 
 3977      4F4E5F5F 
 3978              	.LASF199:
 3979 2e87 5F5F4C44 		.ascii	"__LDBL_HAS_DENORM__ 1\000"
 3979      424C5F48 
 3979      41535F44 
 3979      454E4F52 
 3979      4D5F5F20 
 3980              	.LASF302:
 3981 2e9d 5F5F554C 		.ascii	"__ULLACCUM_EPSILON__ 0x1P-32ULLK\000"
 3981      4C414343 
 3981      554D5F45 
 3981      5053494C 
 3981      4F4E5F5F 
 3982              	.LASF209:
 3983 2ebe 5F5F4445 		.ascii	"__DEC64_MANT_DIG__ 16\000"
 3983      4336345F 
 3983      4D414E54 
 3983      5F444947 
 3983      5F5F2031 
 3984              	.LASF46:
 3985 2ed4 5F5F5645 		.ascii	"__VERSION__ \"4.7.4 20130613 (release) [ARM/embedde"
 3985      5253494F 
 3985      4E5F5F20 
 3985      22342E37 
 3985      2E342032 
 3986 2f06 642D345F 		.ascii	"d-4_7-branch revision 200083]\"\000"
 3986      372D6272 
 3986      616E6368 
 3986      20726576 
 3986      6973696F 
 3987              	.LASF278:
 3988 2f25 5F5F5541 		.ascii	"__UACCUM_FBIT__ 16\000"
 3988      4343554D 
 3988      5F464249 
 3988      545F5F20 
 3988      313600
ARM GAS  /tmp/ccZ1pKfK.s 			page 105


 3989              		.ident	"GCC: (GNU Tools for ARM Embedded Processors) 4.7.4 20130613 (release) [ARM/embedded-4_7-br
ARM GAS  /tmp/ccZ1pKfK.s 			page 106


DEFINED SYMBOLS
                            *ABS*:00000000 nonstdio.c
     /tmp/ccZ1pKfK.s:48     .bss.buff:00000000 $d
     /tmp/ccZ1pKfK.s:51     .bss.buff:00000000 buff
     /tmp/ccZ1pKfK.s:54     .rodata.hex_chars:00000000 $d
     /tmp/ccZ1pKfK.s:57     .rodata.hex_chars:00000000 hex_chars
     /tmp/ccZ1pKfK.s:62     .text.print_uint:00000000 $t
     /tmp/ccZ1pKfK.s:67     .text.print_uint:00000000 print_uint
     /tmp/ccZ1pKfK.s:223    .text.print_string:00000000 print_string
     /tmp/ccZ1pKfK.s:129    .text.print_uint:00000050 $d
     /tmp/ccZ1pKfK.s:135    .text.print_int:00000000 $t
     /tmp/ccZ1pKfK.s:140    .text.print_int:00000000 print_int
     /tmp/ccZ1pKfK.s:186    .text.print_char:00000000 print_char
     /tmp/ccZ1pKfK.s:181    .text.print_char:00000000 $t
     /tmp/ccZ1pKfK.s:218    .text.print_string:00000000 $t
     /tmp/ccZ1pKfK.s:275    .text.print_hex:00000000 $t
     /tmp/ccZ1pKfK.s:280    .text.print_hex:00000000 print_hex
     /tmp/ccZ1pKfK.s:341    .text.print_hex:00000048 $d
     /tmp/ccZ1pKfK.s:348    .text.print_newline:00000000 $t
     /tmp/ccZ1pKfK.s:353    .text.print_newline:00000000 print_newline
     /tmp/ccZ1pKfK.s:379    .text.read_char:00000000 $t
     /tmp/ccZ1pKfK.s:384    .text.read_char:00000000 read_char
     /tmp/ccZ1pKfK.s:409    .text.read_line:00000000 $t
     /tmp/ccZ1pKfK.s:414    .text.read_line:00000000 read_line
     /tmp/ccZ1pKfK.s:443    .text.read_string:00000000 $t
     /tmp/ccZ1pKfK.s:448    .text.read_string:00000000 read_string
     /tmp/ccZ1pKfK.s:477    .text.unread_char:00000000 $t
     /tmp/ccZ1pKfK.s:482    .text.unread_char:00000000 unread_char
     /tmp/ccZ1pKfK.s:509    .text.set_io_functions:00000000 $t
     /tmp/ccZ1pKfK.s:514    .text.set_io_functions:00000000 set_io_functions
                     .debug_frame:00000010 $d
                           .group:00000000 wm4.1.f1278402288c5169f387e8af663aceac
                           .group:00000000 wm4.newlib.h.8.a9901dc52d1357e3e94003403d43f8b5
                           .group:00000000 wm4.features.h.22.b72b3baab2bb2eab3661375590100b6b
                           .group:00000000 wm4.config.h.193.5fb8ef056cdff92dec3dee9552839d8c
                           .group:00000000 wm4._ansi.h.23.7aefdac4826acebbfc9f3822a0aeb14c
                           .group:00000000 wm4.stdint.h.20.54ad762faa59e3c05491630641c8d8bf

UNDEFINED SYMBOLS
__aeabi_uidivmod
__aeabi_uidiv
serial_send
serial_receive
