ARM GAS  /tmp/ccuKfveS.s 			page 1


   1              		.cpu cortex-m0
   2              		.fpu softvfp
   3              		.eabi_attribute 20, 1	@ Tag_ABI_FP_denormal
   4              		.eabi_attribute 21, 1	@ Tag_ABI_FP_exceptions
   5              		.eabi_attribute 23, 3	@ Tag_ABI_FP_number_model
   6              		.eabi_attribute 24, 1	@ Tag_ABI_align8_needed
   7              		.eabi_attribute 25, 1	@ Tag_ABI_align8_preserved
   8              		.eabi_attribute 26, 1	@ Tag_ABI_enum_size
   9              		.eabi_attribute 30, 6	@ Tag_ABI_optimization_goals
  10              		.eabi_attribute 34, 0	@ Tag_CPU_unaligned_access
  11              		.eabi_attribute 18, 4	@ Tag_ABI_PCS_wchar_t
  12              		.file	"syscall.c"
  13              	@ GNU C (GNU Tools for ARM Embedded Processors) version 4.7.4 20130613 (release) [ARM/embedded-4_7-
  14              	@	compiled by GNU C version 4.3.6, GMP version 4.3.2, MPFR version 2.4.2, MPC version 0.8.1
  15              	@ GGC heuristics: --param ggc-min-expand=100 --param ggc-min-heapsize=131072
  16              	@ options passed:  -I . -I /home/wrcooke/git/projects/arm_gcc/include
  17              	@ -imultilib armv6-m
  18              	@ -iprefix /opt/gcc-arm-none-eabi-4_7-2013q2/bin/../lib/gcc/arm-none-eabi/4.7.4/
  19              	@ -isysroot /opt/gcc-arm-none-eabi-4_7-2013q2/bin/../arm-none-eabi
  20              	@ -MD out/syscall.d -MF out/syscall.d -MP -MQ out/syscall.o
  21              	@ -D__USES_INITFINI__ syscall.c -mcpu=cortex-m0 -mthumb
  22              	@ -auxbase-strip out/syscall.o -g -ggdb3 -O0 -Wall -Wstrict-prototypes
  23              	@ -Wextra -std=gnu99 -ffunction-sections -fdata-sections -fverbose-asm
  24              	@ options enabled:  -fauto-inc-dec -fbranch-count-reg -fcommon
  25              	@ -fdata-sections -fdebug-types-section -fdelete-null-pointer-checks
  26              	@ -fdwarf2-cfi-asm -fearly-inlining -feliminate-unused-debug-types
  27              	@ -ffunction-cse -ffunction-sections -fgcse-lm -fgnu-runtime -fident
  28              	@ -finline-atomics -fira-hoist-pressure -fira-share-save-slots
  29              	@ -fira-share-spill-slots -fivopts -fkeep-static-consts
  30              	@ -fleading-underscore -fmath-errno -fmerge-debug-strings
  31              	@ -fmove-loop-invariants -fpeephole -fprefetch-loop-arrays
  32              	@ -freg-struct-return -fsched-critical-path-heuristic
  33              	@ -fsched-dep-count-heuristic -fsched-group-heuristic -fsched-interblock
  34              	@ -fsched-last-insn-heuristic -fsched-rank-heuristic -fsched-spec
  35              	@ -fsched-spec-insn-heuristic -fsched-stalled-insns-dep -fshow-column
  36              	@ -fsigned-zeros -fsplit-ivs-in-unroller -fstrict-volatile-bitfields
  37              	@ -ftrapping-math -ftree-cselim -ftree-forwprop -ftree-loop-if-convert
  38              	@ -ftree-loop-im -ftree-loop-ivcanon -ftree-loop-optimize
  39              	@ -ftree-parallelize-loops= -ftree-phiprop -ftree-pta -ftree-reassoc
  40              	@ -ftree-scev-cprop -ftree-slp-vectorize -ftree-vect-loop-version
  41              	@ -funit-at-a-time -fverbose-asm -fzero-initialized-in-bss -mlittle-endian
  42              	@ -msched-prolog -mthumb -mvectorize-with-neon-quad
  43              	
  44              		.text
  45              	.Ltext0:
  46              		.cfi_sections	.debug_frame
  47              		.section	.text.close,"ax",%progbits
  48              		.align	2
  49              		.global	close
  50              		.code	16
  51              		.thumb_func
  52              		.type	close, %function
  53              	close:
  54              	.LFB0:
  55              		.file 1 "syscall.c"
   1:syscall.c     **** 
   2:syscall.c     **** 
ARM GAS  /tmp/ccuKfveS.s 			page 2


   3:syscall.c     **** // from newlib docs at www.sourceware.org/newlib/
   4:syscall.c     **** 
   5:syscall.c     **** 
   6:syscall.c     **** // _exit
   7:syscall.c     **** // best not to implement or use
   8:syscall.c     **** 
   9:syscall.c     **** // close
  10:syscall.c     **** int close (int file)
  11:syscall.c     **** {
  56              		.loc 1 11 0
  57              		.cfi_startproc
  58 0000 80B5     		push	{r7, lr}	@
  59              	.LCFI0:
  60              		.cfi_def_cfa_offset 8
  61              		.cfi_offset 7, -8
  62              		.cfi_offset 14, -4
  63 0002 82B0     		sub	sp, sp, #8	@,,
  64              	.LCFI1:
  65              		.cfi_def_cfa_offset 16
  66 0004 00AF     		add	r7, sp, #0	@,,
  67              	.LCFI2:
  68              		.cfi_def_cfa_register 7
  69 0006 7860     		str	r0, [r7, #4]	@ file, file
  12:syscall.c     ****    serial_send('C');
  70              		.loc 1 12 0
  71 0008 4320     		mov	r0, #67	@,
  72 000a FFF7FEFF 		bl	serial_send	@
  13:syscall.c     ****    return 0;
  73              		.loc 1 13 0
  74 000e 0023     		mov	r3, #0	@ D.4595,
  14:syscall.c     **** }
  75              		.loc 1 14 0
  76 0010 181C     		mov	r0, r3	@, <retval>
  77 0012 BD46     		mov	sp, r7	@,
  78 0014 02B0     		add	sp, sp, #8	@,,
  79              		@ sp needed for prologue	@
  80 0016 80BD     		pop	{r7, pc}
  81              		.cfi_endproc
  82              	.LFE0:
  83              		.size	close, .-close
  84              		.section	.text._close_r,"ax",%progbits
  85              		.align	2
  86              		.global	_close_r
  87              		.code	16
  88              		.thumb_func
  89              		.type	_close_r, %function
  90              	_close_r:
  91              	.LFB1:
  15:syscall.c     **** 
  16:syscall.c     **** int _close_r(void *reent, int file)
  17:syscall.c     **** {
  92              		.loc 1 17 0
  93              		.cfi_startproc
  94 0000 80B5     		push	{r7, lr}	@
  95              	.LCFI3:
  96              		.cfi_def_cfa_offset 8
  97              		.cfi_offset 7, -8
ARM GAS  /tmp/ccuKfveS.s 			page 3


  98              		.cfi_offset 14, -4
  99 0002 82B0     		sub	sp, sp, #8	@,,
 100              	.LCFI4:
 101              		.cfi_def_cfa_offset 16
 102 0004 00AF     		add	r7, sp, #0	@,,
 103              	.LCFI5:
 104              		.cfi_def_cfa_register 7
 105 0006 7860     		str	r0, [r7, #4]	@ reent, reent
 106 0008 3960     		str	r1, [r7]	@ file, file
  18:syscall.c     ****    return 0;
 107              		.loc 1 18 0
 108 000a 0023     		mov	r3, #0	@ D.4593,
  19:syscall.c     **** }
 109              		.loc 1 19 0
 110 000c 181C     		mov	r0, r3	@, <retval>
 111 000e BD46     		mov	sp, r7	@,
 112 0010 02B0     		add	sp, sp, #8	@,,
 113              		@ sp needed for prologue	@
 114 0012 80BD     		pop	{r7, pc}
 115              		.cfi_endproc
 116              	.LFE1:
 117              		.size	_close_r, .-_close_r
 118              		.global	__env
 119              		.section	.bss.__env,"aw",%nobits
 120              		.align	2
 121              		.type	__env, %object
 122              		.size	__env, 4
 123              	__env:
 124 0000 00000000 		.space	4
 125              		.global	environ
 126              		.section	.data.environ,"aw",%progbits
 127              		.align	2
 128              		.type	environ, %object
 129              		.size	environ, 4
 130              	environ:
 131 0000 00000000 		.word	__env
 132              		.section	.text.execve,"ax",%progbits
 133              		.align	2
 134              		.global	execve
 135              		.code	16
 136              		.thumb_func
 137              		.type	execve, %function
 138              	execve:
 139              	.LFB2:
  20:syscall.c     **** 
  21:syscall.c     **** //environ
  22:syscall.c     **** char *__env[1] = {0};
  23:syscall.c     **** char **environ = __env;
  24:syscall.c     **** 
  25:syscall.c     **** // execve
  26:syscall.c     **** #include <errno.h>
  27:syscall.c     **** #undef errno
  28:syscall.c     **** extern int errno;
  29:syscall.c     **** int execve(char *name, char **argv, char **env)
  30:syscall.c     **** {
 140              		.loc 1 30 0
 141              		.cfi_startproc
ARM GAS  /tmp/ccuKfveS.s 			page 4


 142 0000 80B5     		push	{r7, lr}	@
 143              	.LCFI6:
 144              		.cfi_def_cfa_offset 8
 145              		.cfi_offset 7, -8
 146              		.cfi_offset 14, -4
 147 0002 84B0     		sub	sp, sp, #16	@,,
 148              	.LCFI7:
 149              		.cfi_def_cfa_offset 24
 150 0004 00AF     		add	r7, sp, #0	@,,
 151              	.LCFI8:
 152              		.cfi_def_cfa_register 7
 153 0006 F860     		str	r0, [r7, #12]	@ name, name
 154 0008 B960     		str	r1, [r7, #8]	@ argv, argv
 155 000a 7A60     		str	r2, [r7, #4]	@ env, env
  31:syscall.c     ****    errno = ENOMEM;
 156              		.loc 1 31 0
 157 000c 044B     		ldr	r3, .L7	@ tmp136,
 158 000e 0C22     		mov	r2, #12	@ tmp137,
 159 0010 1A60     		str	r2, [r3]	@ tmp137, errno
  32:syscall.c     ****    return -1;
 160              		.loc 1 32 0
 161 0012 0123     		mov	r3, #1	@ tmp139,
 162 0014 5B42     		neg	r3, r3	@ D.4591, tmp139
  33:syscall.c     **** }
 163              		.loc 1 33 0
 164 0016 181C     		mov	r0, r3	@, <retval>
 165 0018 BD46     		mov	sp, r7	@,
 166 001a 04B0     		add	sp, sp, #16	@,,
 167              		@ sp needed for prologue	@
 168 001c 80BD     		pop	{r7, pc}
 169              	.L8:
 170 001e C046     		.align	2
 171              	.L7:
 172 0020 00000000 		.word	errno
 173              		.cfi_endproc
 174              	.LFE2:
 175              		.size	execve, .-execve
 176              		.section	.text.fork,"ax",%progbits
 177              		.align	2
 178              		.global	fork
 179              		.code	16
 180              		.thumb_func
 181              		.type	fork, %function
 182              	fork:
 183              	.LFB3:
  34:syscall.c     **** 
  35:syscall.c     **** //fork
  36:syscall.c     **** #include <errno.h>
  37:syscall.c     **** #undef errno
  38:syscall.c     **** extern int errno;
  39:syscall.c     **** int fork(void)
  40:syscall.c     **** {
 184              		.loc 1 40 0
 185              		.cfi_startproc
 186 0000 80B5     		push	{r7, lr}	@
 187              	.LCFI9:
 188              		.cfi_def_cfa_offset 8
ARM GAS  /tmp/ccuKfveS.s 			page 5


 189              		.cfi_offset 7, -8
 190              		.cfi_offset 14, -4
 191 0002 00AF     		add	r7, sp, #0	@,,
 192              	.LCFI10:
 193              		.cfi_def_cfa_register 7
  41:syscall.c     ****    errno = EAGAIN;
 194              		.loc 1 41 0
 195 0004 034B     		ldr	r3, .L11	@ tmp136,
 196 0006 0B22     		mov	r2, #11	@ tmp137,
 197 0008 1A60     		str	r2, [r3]	@ tmp137, errno
  42:syscall.c     ****    return -1;
 198              		.loc 1 42 0
 199 000a 0123     		mov	r3, #1	@ tmp139,
 200 000c 5B42     		neg	r3, r3	@ D.4589, tmp139
  43:syscall.c     **** }
 201              		.loc 1 43 0
 202 000e 181C     		mov	r0, r3	@, <retval>
 203 0010 BD46     		mov	sp, r7	@,
 204              		@ sp needed for prologue	@
 205 0012 80BD     		pop	{r7, pc}
 206              	.L12:
 207              		.align	2
 208              	.L11:
 209 0014 00000000 		.word	errno
 210              		.cfi_endproc
 211              	.LFE3:
 212              		.size	fork, .-fork
 213              		.section	.text._fork_r,"ax",%progbits
 214              		.align	2
 215              		.global	_fork_r
 216              		.code	16
 217              		.thumb_func
 218              		.type	_fork_r, %function
 219              	_fork_r:
 220              	.LFB4:
  44:syscall.c     **** 
  45:syscall.c     **** int _fork_r(void *reent)
  46:syscall.c     **** {
 221              		.loc 1 46 0
 222              		.cfi_startproc
 223 0000 80B5     		push	{r7, lr}	@
 224              	.LCFI11:
 225              		.cfi_def_cfa_offset 8
 226              		.cfi_offset 7, -8
 227              		.cfi_offset 14, -4
 228 0002 82B0     		sub	sp, sp, #8	@,,
 229              	.LCFI12:
 230              		.cfi_def_cfa_offset 16
 231 0004 00AF     		add	r7, sp, #0	@,,
 232              	.LCFI13:
 233              		.cfi_def_cfa_register 7
 234 0006 7860     		str	r0, [r7, #4]	@ reent, reent
  47:syscall.c     ****    return -1;
 235              		.loc 1 47 0
 236 0008 0123     		mov	r3, #1	@ tmp137,
 237 000a 5B42     		neg	r3, r3	@ D.4587, tmp137
  48:syscall.c     **** }
ARM GAS  /tmp/ccuKfveS.s 			page 6


 238              		.loc 1 48 0
 239 000c 181C     		mov	r0, r3	@, <retval>
 240 000e BD46     		mov	sp, r7	@,
 241 0010 02B0     		add	sp, sp, #8	@,,
 242              		@ sp needed for prologue	@
 243 0012 80BD     		pop	{r7, pc}
 244              		.cfi_endproc
 245              	.LFE4:
 246              		.size	_fork_r, .-_fork_r
 247              		.section	.text.fstat,"ax",%progbits
 248              		.align	2
 249              		.global	fstat
 250              		.code	16
 251              		.thumb_func
 252              		.type	fstat, %function
 253              	fstat:
 254              	.LFB5:
  49:syscall.c     **** 
  50:syscall.c     **** //fstat
  51:syscall.c     **** #include <sys/stat.h>
  52:syscall.c     **** int fstat(int file, struct stat *st)
  53:syscall.c     **** {
 255              		.loc 1 53 0
 256              		.cfi_startproc
 257 0000 80B5     		push	{r7, lr}	@
 258              	.LCFI14:
 259              		.cfi_def_cfa_offset 8
 260              		.cfi_offset 7, -8
 261              		.cfi_offset 14, -4
 262 0002 82B0     		sub	sp, sp, #8	@,,
 263              	.LCFI15:
 264              		.cfi_def_cfa_offset 16
 265 0004 00AF     		add	r7, sp, #0	@,,
 266              	.LCFI16:
 267              		.cfi_def_cfa_register 7
 268 0006 7860     		str	r0, [r7, #4]	@ file, file
 269 0008 3960     		str	r1, [r7]	@ st, st
  54:syscall.c     ****    serial_send('T');
 270              		.loc 1 54 0
 271 000a 5420     		mov	r0, #84	@,
 272 000c FFF7FEFF 		bl	serial_send	@
  55:syscall.c     ****    st->st_mode = S_IFCHR;
 273              		.loc 1 55 0
 274 0010 3B68     		ldr	r3, [r7]	@ tmp136, st
 275 0012 8022     		mov	r2, #128	@ tmp139,
 276 0014 9201     		lsl	r2, r2, #6	@ tmp137, tmp139,
 277 0016 5A60     		str	r2, [r3, #4]	@ tmp137, st_1(D)->st_mode
  56:syscall.c     ****    return 0;
 278              		.loc 1 56 0
 279 0018 0023     		mov	r3, #0	@ D.4585,
  57:syscall.c     **** }
 280              		.loc 1 57 0
 281 001a 181C     		mov	r0, r3	@, <retval>
 282 001c BD46     		mov	sp, r7	@,
 283 001e 02B0     		add	sp, sp, #8	@,,
 284              		@ sp needed for prologue	@
 285 0020 80BD     		pop	{r7, pc}
ARM GAS  /tmp/ccuKfveS.s 			page 7


 286              		.cfi_endproc
 287              	.LFE5:
 288              		.size	fstat, .-fstat
 289 0022 C046     		.section	.text.getpid,"ax",%progbits
 290              		.align	2
 291              		.global	getpid
 292              		.code	16
 293              		.thumb_func
 294              		.type	getpid, %function
 295              	getpid:
 296              	.LFB6:
  58:syscall.c     **** 
  59:syscall.c     **** //getpid
  60:syscall.c     **** int getpid(void)
  61:syscall.c     **** {
 297              		.loc 1 61 0
 298              		.cfi_startproc
 299 0000 80B5     		push	{r7, lr}	@
 300              	.LCFI17:
 301              		.cfi_def_cfa_offset 8
 302              		.cfi_offset 7, -8
 303              		.cfi_offset 14, -4
 304 0002 00AF     		add	r7, sp, #0	@,,
 305              	.LCFI18:
 306              		.cfi_def_cfa_register 7
  62:syscall.c     ****    return 1;
 307              		.loc 1 62 0
 308 0004 0123     		mov	r3, #1	@ D.4583,
  63:syscall.c     **** }
 309              		.loc 1 63 0
 310 0006 181C     		mov	r0, r3	@, <retval>
 311 0008 BD46     		mov	sp, r7	@,
 312              		@ sp needed for prologue	@
 313 000a 80BD     		pop	{r7, pc}
 314              		.cfi_endproc
 315              	.LFE6:
 316              		.size	getpid, .-getpid
 317              		.section	.text.isatty,"ax",%progbits
 318              		.align	2
 319              		.global	isatty
 320              		.code	16
 321              		.thumb_func
 322              		.type	isatty, %function
 323              	isatty:
 324              	.LFB7:
  64:syscall.c     **** 
  65:syscall.c     **** // isatty
  66:syscall.c     **** int isatty(int file)
  67:syscall.c     **** {
 325              		.loc 1 67 0
 326              		.cfi_startproc
 327 0000 80B5     		push	{r7, lr}	@
 328              	.LCFI19:
 329              		.cfi_def_cfa_offset 8
 330              		.cfi_offset 7, -8
 331              		.cfi_offset 14, -4
 332 0002 82B0     		sub	sp, sp, #8	@,,
ARM GAS  /tmp/ccuKfveS.s 			page 8


 333              	.LCFI20:
 334              		.cfi_def_cfa_offset 16
 335 0004 00AF     		add	r7, sp, #0	@,,
 336              	.LCFI21:
 337              		.cfi_def_cfa_register 7
 338 0006 7860     		str	r0, [r7, #4]	@ file, file
  68:syscall.c     ****    serial_send('Y');
 339              		.loc 1 68 0
 340 0008 5920     		mov	r0, #89	@,
 341 000a FFF7FEFF 		bl	serial_send	@
  69:syscall.c     ****    return 1;
 342              		.loc 1 69 0
 343 000e 0123     		mov	r3, #1	@ D.4581,
  70:syscall.c     **** }
 344              		.loc 1 70 0
 345 0010 181C     		mov	r0, r3	@, <retval>
 346 0012 BD46     		mov	sp, r7	@,
 347 0014 02B0     		add	sp, sp, #8	@,,
 348              		@ sp needed for prologue	@
 349 0016 80BD     		pop	{r7, pc}
 350              		.cfi_endproc
 351              	.LFE7:
 352              		.size	isatty, .-isatty
 353              		.section	.text._isatty_r,"ax",%progbits
 354              		.align	2
 355              		.global	_isatty_r
 356              		.code	16
 357              		.thumb_func
 358              		.type	_isatty_r, %function
 359              	_isatty_r:
 360              	.LFB8:
  71:syscall.c     **** 
  72:syscall.c     **** int _isatty_r(void *reent, int fd)
  73:syscall.c     **** {
 361              		.loc 1 73 0
 362              		.cfi_startproc
 363 0000 80B5     		push	{r7, lr}	@
 364              	.LCFI22:
 365              		.cfi_def_cfa_offset 8
 366              		.cfi_offset 7, -8
 367              		.cfi_offset 14, -4
 368 0002 82B0     		sub	sp, sp, #8	@,,
 369              	.LCFI23:
 370              		.cfi_def_cfa_offset 16
 371 0004 00AF     		add	r7, sp, #0	@,,
 372              	.LCFI24:
 373              		.cfi_def_cfa_register 7
 374 0006 7860     		str	r0, [r7, #4]	@ reent, reent
 375 0008 3960     		str	r1, [r7]	@ fd, fd
  74:syscall.c     ****    return 1;
 376              		.loc 1 74 0
 377 000a 0123     		mov	r3, #1	@ D.4579,
  75:syscall.c     **** }
 378              		.loc 1 75 0
 379 000c 181C     		mov	r0, r3	@, <retval>
 380 000e BD46     		mov	sp, r7	@,
 381 0010 02B0     		add	sp, sp, #8	@,,
ARM GAS  /tmp/ccuKfveS.s 			page 9


 382              		@ sp needed for prologue	@
 383 0012 80BD     		pop	{r7, pc}
 384              		.cfi_endproc
 385              	.LFE8:
 386              		.size	_isatty_r, .-_isatty_r
 387              		.section	.text.kill,"ax",%progbits
 388              		.align	2
 389              		.global	kill
 390              		.code	16
 391              		.thumb_func
 392              		.type	kill, %function
 393              	kill:
 394              	.LFB9:
  76:syscall.c     **** 
  77:syscall.c     **** // kill
  78:syscall.c     **** #include <errno.h>
  79:syscall.c     **** #undef errno
  80:syscall.c     **** extern int errno;
  81:syscall.c     **** int kill(int pid, int sig)
  82:syscall.c     **** {
 395              		.loc 1 82 0
 396              		.cfi_startproc
 397 0000 80B5     		push	{r7, lr}	@
 398              	.LCFI25:
 399              		.cfi_def_cfa_offset 8
 400              		.cfi_offset 7, -8
 401              		.cfi_offset 14, -4
 402 0002 82B0     		sub	sp, sp, #8	@,,
 403              	.LCFI26:
 404              		.cfi_def_cfa_offset 16
 405 0004 00AF     		add	r7, sp, #0	@,,
 406              	.LCFI27:
 407              		.cfi_def_cfa_register 7
 408 0006 7860     		str	r0, [r7, #4]	@ pid, pid
 409 0008 3960     		str	r1, [r7]	@ sig, sig
  83:syscall.c     ****    errno = EINVAL;
 410              		.loc 1 83 0
 411 000a 044B     		ldr	r3, .L25	@ tmp136,
 412 000c 1622     		mov	r2, #22	@ tmp137,
 413 000e 1A60     		str	r2, [r3]	@ tmp137, errno
  84:syscall.c     ****    return -1;
 414              		.loc 1 84 0
 415 0010 0123     		mov	r3, #1	@ tmp139,
 416 0012 5B42     		neg	r3, r3	@ D.4577, tmp139
  85:syscall.c     **** }
 417              		.loc 1 85 0
 418 0014 181C     		mov	r0, r3	@, <retval>
 419 0016 BD46     		mov	sp, r7	@,
 420 0018 02B0     		add	sp, sp, #8	@,,
 421              		@ sp needed for prologue	@
 422 001a 80BD     		pop	{r7, pc}
 423              	.L26:
 424              		.align	2
 425              	.L25:
 426 001c 00000000 		.word	errno
 427              		.cfi_endproc
 428              	.LFE9:
ARM GAS  /tmp/ccuKfveS.s 			page 10


 429              		.size	kill, .-kill
 430              		.section	.text.link,"ax",%progbits
 431              		.align	2
 432              		.global	link
 433              		.code	16
 434              		.thumb_func
 435              		.type	link, %function
 436              	link:
 437              	.LFB10:
  86:syscall.c     **** 
  87:syscall.c     **** // link
  88:syscall.c     **** #include <errno.h>
  89:syscall.c     **** #undef errno
  90:syscall.c     **** extern int errno;
  91:syscall.c     **** int link(char *old, char *new)
  92:syscall.c     **** {
 438              		.loc 1 92 0
 439              		.cfi_startproc
 440 0000 80B5     		push	{r7, lr}	@
 441              	.LCFI28:
 442              		.cfi_def_cfa_offset 8
 443              		.cfi_offset 7, -8
 444              		.cfi_offset 14, -4
 445 0002 82B0     		sub	sp, sp, #8	@,,
 446              	.LCFI29:
 447              		.cfi_def_cfa_offset 16
 448 0004 00AF     		add	r7, sp, #0	@,,
 449              	.LCFI30:
 450              		.cfi_def_cfa_register 7
 451 0006 7860     		str	r0, [r7, #4]	@ old, old
 452 0008 3960     		str	r1, [r7]	@ new, new
  93:syscall.c     ****    errno = EMLINK;
 453              		.loc 1 93 0
 454 000a 044B     		ldr	r3, .L29	@ tmp136,
 455 000c 1F22     		mov	r2, #31	@ tmp137,
 456 000e 1A60     		str	r2, [r3]	@ tmp137, errno
  94:syscall.c     ****    return -1;
 457              		.loc 1 94 0
 458 0010 0123     		mov	r3, #1	@ tmp139,
 459 0012 5B42     		neg	r3, r3	@ D.4575, tmp139
  95:syscall.c     **** }
 460              		.loc 1 95 0
 461 0014 181C     		mov	r0, r3	@, <retval>
 462 0016 BD46     		mov	sp, r7	@,
 463 0018 02B0     		add	sp, sp, #8	@,,
 464              		@ sp needed for prologue	@
 465 001a 80BD     		pop	{r7, pc}
 466              	.L30:
 467              		.align	2
 468              	.L29:
 469 001c 00000000 		.word	errno
 470              		.cfi_endproc
 471              	.LFE10:
 472              		.size	link, .-link
 473              		.section	.text._link_r,"ax",%progbits
 474              		.align	2
 475              		.global	_link_r
ARM GAS  /tmp/ccuKfveS.s 			page 11


 476              		.code	16
 477              		.thumb_func
 478              		.type	_link_r, %function
 479              	_link_r:
 480              	.LFB11:
  96:syscall.c     **** 
  97:syscall.c     **** int _link_r(void *reent, const char *old, const char *new)
  98:syscall.c     **** {
 481              		.loc 1 98 0
 482              		.cfi_startproc
 483 0000 80B5     		push	{r7, lr}	@
 484              	.LCFI31:
 485              		.cfi_def_cfa_offset 8
 486              		.cfi_offset 7, -8
 487              		.cfi_offset 14, -4
 488 0002 84B0     		sub	sp, sp, #16	@,,
 489              	.LCFI32:
 490              		.cfi_def_cfa_offset 24
 491 0004 00AF     		add	r7, sp, #0	@,,
 492              	.LCFI33:
 493              		.cfi_def_cfa_register 7
 494 0006 F860     		str	r0, [r7, #12]	@ reent, reent
 495 0008 B960     		str	r1, [r7, #8]	@ old, old
 496 000a 7A60     		str	r2, [r7, #4]	@ new, new
  99:syscall.c     ****    return -1;
 497              		.loc 1 99 0
 498 000c 0123     		mov	r3, #1	@ tmp137,
 499 000e 5B42     		neg	r3, r3	@ D.4573, tmp137
 100:syscall.c     **** }
 500              		.loc 1 100 0
 501 0010 181C     		mov	r0, r3	@, <retval>
 502 0012 BD46     		mov	sp, r7	@,
 503 0014 04B0     		add	sp, sp, #16	@,,
 504              		@ sp needed for prologue	@
 505 0016 80BD     		pop	{r7, pc}
 506              		.cfi_endproc
 507              	.LFE11:
 508              		.size	_link_r, .-_link_r
 509              		.section	.text.lseek,"ax",%progbits
 510              		.align	2
 511              		.global	lseek
 512              		.code	16
 513              		.thumb_func
 514              		.type	lseek, %function
 515              	lseek:
 516              	.LFB12:
 101:syscall.c     **** 
 102:syscall.c     **** // lseek
 103:syscall.c     **** int lseek(int file, int ptr, int dir)
 104:syscall.c     **** {
 517              		.loc 1 104 0
 518              		.cfi_startproc
 519 0000 80B5     		push	{r7, lr}	@
 520              	.LCFI34:
 521              		.cfi_def_cfa_offset 8
 522              		.cfi_offset 7, -8
 523              		.cfi_offset 14, -4
ARM GAS  /tmp/ccuKfveS.s 			page 12


 524 0002 84B0     		sub	sp, sp, #16	@,,
 525              	.LCFI35:
 526              		.cfi_def_cfa_offset 24
 527 0004 00AF     		add	r7, sp, #0	@,,
 528              	.LCFI36:
 529              		.cfi_def_cfa_register 7
 530 0006 F860     		str	r0, [r7, #12]	@ file, file
 531 0008 B960     		str	r1, [r7, #8]	@ ptr, ptr
 532 000a 7A60     		str	r2, [r7, #4]	@ dir, dir
 105:syscall.c     ****    return ESPIPE;
 533              		.loc 1 105 0
 534 000c 1D23     		mov	r3, #29	@ D.4571,
 106:syscall.c     **** }
 535              		.loc 1 106 0
 536 000e 181C     		mov	r0, r3	@, <retval>
 537 0010 BD46     		mov	sp, r7	@,
 538 0012 04B0     		add	sp, sp, #16	@,,
 539              		@ sp needed for prologue	@
 540 0014 80BD     		pop	{r7, pc}
 541              		.cfi_endproc
 542              	.LFE12:
 543              		.size	lseek, .-lseek
 544 0016 C046     		.section	.text._lseek_r,"ax",%progbits
 545              		.align	2
 546              		.global	_lseek_r
 547              		.code	16
 548              		.thumb_func
 549              		.type	_lseek_r, %function
 550              	_lseek_r:
 551              	.LFB13:
 107:syscall.c     **** 
 108:syscall.c     **** int _lseek_r(void *reent, int fd, off_t pos, int whence)
 109:syscall.c     **** {
 552              		.loc 1 109 0
 553              		.cfi_startproc
 554 0000 80B5     		push	{r7, lr}	@
 555              	.LCFI37:
 556              		.cfi_def_cfa_offset 8
 557              		.cfi_offset 7, -8
 558              		.cfi_offset 14, -4
 559 0002 84B0     		sub	sp, sp, #16	@,,
 560              	.LCFI38:
 561              		.cfi_def_cfa_offset 24
 562 0004 00AF     		add	r7, sp, #0	@,,
 563              	.LCFI39:
 564              		.cfi_def_cfa_register 7
 565 0006 F860     		str	r0, [r7, #12]	@ reent, reent
 566 0008 B960     		str	r1, [r7, #8]	@ fd, fd
 567 000a 7A60     		str	r2, [r7, #4]	@ pos, pos
 568 000c 3B60     		str	r3, [r7]	@ whence, whence
 110:syscall.c     ****    serial_send('L');
 569              		.loc 1 110 0
 570 000e 4C20     		mov	r0, #76	@,
 571 0010 FFF7FEFF 		bl	serial_send	@
 111:syscall.c     ****    return ESPIPE;
 572              		.loc 1 111 0
 573 0014 1D23     		mov	r3, #29	@ D.4569,
ARM GAS  /tmp/ccuKfveS.s 			page 13


 112:syscall.c     **** }
 574              		.loc 1 112 0
 575 0016 181C     		mov	r0, r3	@, <retval>
 576 0018 BD46     		mov	sp, r7	@,
 577 001a 04B0     		add	sp, sp, #16	@,,
 578              		@ sp needed for prologue	@
 579 001c 80BD     		pop	{r7, pc}
 580              		.cfi_endproc
 581              	.LFE13:
 582              		.size	_lseek_r, .-_lseek_r
 583 001e C046     		.section	.text.open,"ax",%progbits
 584              		.align	2
 585              		.global	open
 586              		.code	16
 587              		.thumb_func
 588              		.type	open, %function
 589              	open:
 590              	.LFB14:
 113:syscall.c     **** 
 114:syscall.c     **** // open
 115:syscall.c     **** int open(const char *name, int flags, int mode)
 116:syscall.c     **** {
 591              		.loc 1 116 0
 592              		.cfi_startproc
 593 0000 80B5     		push	{r7, lr}	@
 594              	.LCFI40:
 595              		.cfi_def_cfa_offset 8
 596              		.cfi_offset 7, -8
 597              		.cfi_offset 14, -4
 598 0002 84B0     		sub	sp, sp, #16	@,,
 599              	.LCFI41:
 600              		.cfi_def_cfa_offset 24
 601 0004 00AF     		add	r7, sp, #0	@,,
 602              	.LCFI42:
 603              		.cfi_def_cfa_register 7
 604 0006 F860     		str	r0, [r7, #12]	@ name, name
 605 0008 B960     		str	r1, [r7, #8]	@ flags, flags
 606 000a 7A60     		str	r2, [r7, #4]	@ mode, mode
 117:syscall.c     ****    return 0;
 607              		.loc 1 117 0
 608 000c 0023     		mov	r3, #0	@ D.4567,
 118:syscall.c     **** }
 609              		.loc 1 118 0
 610 000e 181C     		mov	r0, r3	@, <retval>
 611 0010 BD46     		mov	sp, r7	@,
 612 0012 04B0     		add	sp, sp, #16	@,,
 613              		@ sp needed for prologue	@
 614 0014 80BD     		pop	{r7, pc}
 615              		.cfi_endproc
 616              	.LFE14:
 617              		.size	open, .-open
 618 0016 C046     		.section	.text._open_r,"ax",%progbits
 619              		.align	2
 620              		.global	_open_r
 621              		.code	16
 622              		.thumb_func
 623              		.type	_open_r, %function
ARM GAS  /tmp/ccuKfveS.s 			page 14


 624              	_open_r:
 625              	.LFB15:
 119:syscall.c     **** int _open_r(void *reent, const char *name, int flags, int mode)
 120:syscall.c     **** {
 626              		.loc 1 120 0
 627              		.cfi_startproc
 628 0000 80B5     		push	{r7, lr}	@
 629              	.LCFI43:
 630              		.cfi_def_cfa_offset 8
 631              		.cfi_offset 7, -8
 632              		.cfi_offset 14, -4
 633 0002 84B0     		sub	sp, sp, #16	@,,
 634              	.LCFI44:
 635              		.cfi_def_cfa_offset 24
 636 0004 00AF     		add	r7, sp, #0	@,,
 637              	.LCFI45:
 638              		.cfi_def_cfa_register 7
 639 0006 F860     		str	r0, [r7, #12]	@ reent, reent
 640 0008 B960     		str	r1, [r7, #8]	@ name, name
 641 000a 7A60     		str	r2, [r7, #4]	@ flags, flags
 642 000c 3B60     		str	r3, [r7]	@ mode, mode
 121:syscall.c     ****    return 0;
 643              		.loc 1 121 0
 644 000e 0023     		mov	r3, #0	@ D.4565,
 122:syscall.c     **** }
 645              		.loc 1 122 0
 646 0010 181C     		mov	r0, r3	@, <retval>
 647 0012 BD46     		mov	sp, r7	@,
 648 0014 04B0     		add	sp, sp, #16	@,,
 649              		@ sp needed for prologue	@
 650 0016 80BD     		pop	{r7, pc}
 651              		.cfi_endproc
 652              	.LFE15:
 653              		.size	_open_r, .-_open_r
 654              		.section	.text.read,"ax",%progbits
 655              		.align	2
 656              		.global	read
 657              		.code	16
 658              		.thumb_func
 659              		.type	read, %function
 660              	read:
 661              	.LFB16:
 123:syscall.c     **** 
 124:syscall.c     **** // read
 125:syscall.c     **** int read(int file, char *ptr, int len)
 126:syscall.c     **** {
 662              		.loc 1 126 0
 663              		.cfi_startproc
 664 0000 80B5     		push	{r7, lr}	@
 665              	.LCFI46:
 666              		.cfi_def_cfa_offset 8
 667              		.cfi_offset 7, -8
 668              		.cfi_offset 14, -4
 669 0002 84B0     		sub	sp, sp, #16	@,,
 670              	.LCFI47:
 671              		.cfi_def_cfa_offset 24
 672 0004 00AF     		add	r7, sp, #0	@,,
ARM GAS  /tmp/ccuKfveS.s 			page 15


 673              	.LCFI48:
 674              		.cfi_def_cfa_register 7
 675 0006 F860     		str	r0, [r7, #12]	@ file, file
 676 0008 B960     		str	r1, [r7, #8]	@ ptr, ptr
 677 000a 7A60     		str	r2, [r7, #4]	@ len, len
 127:syscall.c     ****    serial_send('R');
 678              		.loc 1 127 0
 679 000c 5220     		mov	r0, #82	@,
 680 000e FFF7FEFF 		bl	serial_send	@
 128:syscall.c     ****    return 0;
 681              		.loc 1 128 0
 682 0012 0023     		mov	r3, #0	@ D.4563,
 129:syscall.c     **** }
 683              		.loc 1 129 0
 684 0014 181C     		mov	r0, r3	@, <retval>
 685 0016 BD46     		mov	sp, r7	@,
 686 0018 04B0     		add	sp, sp, #16	@,,
 687              		@ sp needed for prologue	@
 688 001a 80BD     		pop	{r7, pc}
 689              		.cfi_endproc
 690              	.LFE16:
 691              		.size	read, .-read
 692              		.section	.text._read_r,"ax",%progbits
 693              		.align	2
 694              		.global	_read_r
 695              		.code	16
 696              		.thumb_func
 697              		.type	_read_r, %function
 698              	_read_r:
 699              	.LFB17:
 130:syscall.c     **** 
 131:syscall.c     **** long _read_r(void *reent, int fd, void *buf, size_t cnt)
 132:syscall.c     **** {
 700              		.loc 1 132 0
 701              		.cfi_startproc
 702 0000 80B5     		push	{r7, lr}	@
 703              	.LCFI49:
 704              		.cfi_def_cfa_offset 8
 705              		.cfi_offset 7, -8
 706              		.cfi_offset 14, -4
 707 0002 84B0     		sub	sp, sp, #16	@,,
 708              	.LCFI50:
 709              		.cfi_def_cfa_offset 24
 710 0004 00AF     		add	r7, sp, #0	@,,
 711              	.LCFI51:
 712              		.cfi_def_cfa_register 7
 713 0006 F860     		str	r0, [r7, #12]	@ reent, reent
 714 0008 B960     		str	r1, [r7, #8]	@ fd, fd
 715 000a 7A60     		str	r2, [r7, #4]	@ buf, buf
 716 000c 3B60     		str	r3, [r7]	@ cnt, cnt
 133:syscall.c     ****    return 0;
 717              		.loc 1 133 0
 718 000e 0023     		mov	r3, #0	@ D.4561,
 134:syscall.c     **** }
 719              		.loc 1 134 0
 720 0010 181C     		mov	r0, r3	@, <retval>
 721 0012 BD46     		mov	sp, r7	@,
ARM GAS  /tmp/ccuKfveS.s 			page 16


 722 0014 04B0     		add	sp, sp, #16	@,,
 723              		@ sp needed for prologue	@
 724 0016 80BD     		pop	{r7, pc}
 725              		.cfi_endproc
 726              	.LFE17:
 727              		.size	_read_r, .-_read_r
 728              		.section	.text.sbrk,"ax",%progbits
 729              		.align	2
 730              		.global	sbrk
 731              		.code	16
 732              		.thumb_func
 733              		.type	sbrk, %function
 734              	sbrk:
 735              	.LFB18:
 135:syscall.c     **** 
 136:syscall.c     **** // sbrk
 137:syscall.c     **** // Increase program data space.  As malloc and related functions depend on this, it is useful to ha
 138:syscall.c     **** // working implementation.  The following suffices for a standalone system.  It exploits the symbol
 139:syscall.c     **** // _end automatically defined by the GNU linker.
 140:syscall.c     **** 
 141:syscall.c     **** caddr_t sbrk(int incr)
 142:syscall.c     **** {
 736              		.loc 1 142 0
 737              		.cfi_startproc
 738 0000 80B5     		push	{r7, lr}	@
 739              	.LCFI52:
 740              		.cfi_def_cfa_offset 8
 741              		.cfi_offset 7, -8
 742              		.cfi_offset 14, -4
 743 0002 84B0     		sub	sp, sp, #16	@,,
 744              	.LCFI53:
 745              		.cfi_def_cfa_offset 24
 746 0004 00AF     		add	r7, sp, #0	@,,
 747              	.LCFI54:
 748              		.cfi_def_cfa_register 7
 749 0006 7860     		str	r0, [r7, #4]	@ incr, incr
 143:syscall.c     ****    extern char _end;       //Defined by the linker
 144:syscall.c     ****    static char *heap_end;
 145:syscall.c     ****    char *prev_heap_end;
 146:syscall.c     **** 
 147:syscall.c     ****    if (heap_end == 0)
 750              		.loc 1 147 0
 751 0008 0A4B     		ldr	r3, .L48	@ tmp140,
 752 000a 1B68     		ldr	r3, [r3]	@ heap_end.1, heap_end
 753 000c 002B     		cmp	r3, #0	@ heap_end.1,
 754 000e 02D1     		bne	.L46	@,
 148:syscall.c     ****    {
 149:syscall.c     ****       heap_end = &_end;
 755              		.loc 1 149 0
 756 0010 084B     		ldr	r3, .L48	@ tmp141,
 757 0012 094A     		ldr	r2, .L48+4	@ tmp142,
 758 0014 1A60     		str	r2, [r3]	@ tmp142, heap_end
 759              	.L46:
 150:syscall.c     ****    }
 151:syscall.c     ****    prev_heap_end = heap_end;
 760              		.loc 1 151 0
 761 0016 074B     		ldr	r3, .L48	@ tmp143,
ARM GAS  /tmp/ccuKfveS.s 			page 17


 762 0018 1B68     		ldr	r3, [r3]	@ tmp144, heap_end
 763 001a FB60     		str	r3, [r7, #12]	@ tmp144, prev_heap_end
 152:syscall.c     **** /*
 153:syscall.c     ****    if (heap_end + incr > _stack_ptr)
 154:syscall.c     ****    {
 155:syscall.c     ****       write (1, "Heap and stack collision\n", 25);
 156:syscall.c     ****       abort();
 157:syscall.c     ****    }
 158:syscall.c     **** */
 159:syscall.c     **** 
 160:syscall.c     ****    heap_end += incr;
 764              		.loc 1 160 0
 765 001c 054B     		ldr	r3, .L48	@ tmp145,
 766 001e 1A68     		ldr	r2, [r3]	@ heap_end.2, heap_end
 767 0020 7B68     		ldr	r3, [r7, #4]	@ incr.3, incr
 768 0022 D218     		add	r2, r2, r3	@ heap_end.4, heap_end.2, incr.3
 769 0024 034B     		ldr	r3, .L48	@ tmp146,
 770 0026 1A60     		str	r2, [r3]	@ heap_end.4, heap_end
 161:syscall.c     ****    return (caddr_t) prev_heap_end;
 771              		.loc 1 161 0
 772 0028 FB68     		ldr	r3, [r7, #12]	@ D.4559, prev_heap_end
 162:syscall.c     **** }
 773              		.loc 1 162 0
 774 002a 181C     		mov	r0, r3	@, <retval>
 775 002c BD46     		mov	sp, r7	@,
 776 002e 04B0     		add	sp, sp, #16	@,,
 777              		@ sp needed for prologue	@
 778 0030 80BD     		pop	{r7, pc}
 779              	.L49:
 780 0032 C046     		.align	2
 781              	.L48:
 782 0034 00000000 		.word	heap_end.4468
 783 0038 00000000 		.word	_end
 784              		.cfi_endproc
 785              	.LFE18:
 786              		.size	sbrk, .-sbrk
 787              		.section	.text._sbrk_r,"ax",%progbits
 788              		.align	2
 789              		.global	_sbrk_r
 790              		.code	16
 791              		.thumb_func
 792              		.type	_sbrk_r, %function
 793              	_sbrk_r:
 794              	.LFB19:
 163:syscall.c     **** 
 164:syscall.c     **** char *_sbrk_r(void *reent, size_t incr)
 165:syscall.c     **** {
 795              		.loc 1 165 0
 796              		.cfi_startproc
 797 0000 80B5     		push	{r7, lr}	@
 798              	.LCFI55:
 799              		.cfi_def_cfa_offset 8
 800              		.cfi_offset 7, -8
 801              		.cfi_offset 14, -4
 802 0002 82B0     		sub	sp, sp, #8	@,,
 803              	.LCFI56:
 804              		.cfi_def_cfa_offset 16
ARM GAS  /tmp/ccuKfveS.s 			page 18


 805 0004 00AF     		add	r7, sp, #0	@,,
 806              	.LCFI57:
 807              		.cfi_def_cfa_register 7
 808 0006 7860     		str	r0, [r7, #4]	@ reent, reent
 809 0008 3960     		str	r1, [r7]	@ incr, incr
 166:syscall.c     ****    return 0;
 810              		.loc 1 166 0
 811 000a 0023     		mov	r3, #0	@ D.4551,
 167:syscall.c     **** }
 812              		.loc 1 167 0
 813 000c 181C     		mov	r0, r3	@, <retval>
 814 000e BD46     		mov	sp, r7	@,
 815 0010 02B0     		add	sp, sp, #8	@,,
 816              		@ sp needed for prologue	@
 817 0012 80BD     		pop	{r7, pc}
 818              		.cfi_endproc
 819              	.LFE19:
 820              		.size	_sbrk_r, .-_sbrk_r
 821              		.section	.text.stat,"ax",%progbits
 822              		.align	2
 823              		.global	stat
 824              		.code	16
 825              		.thumb_func
 826              		.type	stat, %function
 827              	stat:
 828              	.LFB20:
 168:syscall.c     **** 
 169:syscall.c     **** #include <sys/stat.h>
 170:syscall.c     **** // stat
 171:syscall.c     **** int stat(const char *file, struct stat *st)
 172:syscall.c     **** {
 829              		.loc 1 172 0
 830              		.cfi_startproc
 831 0000 80B5     		push	{r7, lr}	@
 832              	.LCFI58:
 833              		.cfi_def_cfa_offset 8
 834              		.cfi_offset 7, -8
 835              		.cfi_offset 14, -4
 836 0002 82B0     		sub	sp, sp, #8	@,,
 837              	.LCFI59:
 838              		.cfi_def_cfa_offset 16
 839 0004 00AF     		add	r7, sp, #0	@,,
 840              	.LCFI60:
 841              		.cfi_def_cfa_register 7
 842 0006 7860     		str	r0, [r7, #4]	@ file, file
 843 0008 3960     		str	r1, [r7]	@ st, st
 173:syscall.c     ****    st->st_mode = S_IFCHR;
 844              		.loc 1 173 0
 845 000a 3B68     		ldr	r3, [r7]	@ tmp136, st
 846 000c 8022     		mov	r2, #128	@ tmp139,
 847 000e 9201     		lsl	r2, r2, #6	@ tmp137, tmp139,
 848 0010 5A60     		str	r2, [r3, #4]	@ tmp137, st_1(D)->st_mode
 174:syscall.c     ****    return 0;
 849              		.loc 1 174 0
 850 0012 0023     		mov	r3, #0	@ D.4549,
 175:syscall.c     **** }
 851              		.loc 1 175 0
ARM GAS  /tmp/ccuKfveS.s 			page 19


 852 0014 181C     		mov	r0, r3	@, <retval>
 853 0016 BD46     		mov	sp, r7	@,
 854 0018 02B0     		add	sp, sp, #8	@,,
 855              		@ sp needed for prologue	@
 856 001a 80BD     		pop	{r7, pc}
 857              		.cfi_endproc
 858              	.LFE20:
 859              		.size	stat, .-stat
 860              		.section	.text._stat_r,"ax",%progbits
 861              		.align	2
 862              		.global	_stat_r
 863              		.code	16
 864              		.thumb_func
 865              		.type	_stat_r, %function
 866              	_stat_r:
 867              	.LFB21:
 176:syscall.c     **** 
 177:syscall.c     **** int _stat_r(void *reent, const char *file, struct stat *pstat)
 178:syscall.c     **** {
 868              		.loc 1 178 0
 869              		.cfi_startproc
 870 0000 80B5     		push	{r7, lr}	@
 871              	.LCFI61:
 872              		.cfi_def_cfa_offset 8
 873              		.cfi_offset 7, -8
 874              		.cfi_offset 14, -4
 875 0002 84B0     		sub	sp, sp, #16	@,,
 876              	.LCFI62:
 877              		.cfi_def_cfa_offset 24
 878 0004 00AF     		add	r7, sp, #0	@,,
 879              	.LCFI63:
 880              		.cfi_def_cfa_register 7
 881 0006 F860     		str	r0, [r7, #12]	@ reent, reent
 882 0008 B960     		str	r1, [r7, #8]	@ file, file
 883 000a 7A60     		str	r2, [r7, #4]	@ pstat, pstat
 179:syscall.c     ****    return 0;
 884              		.loc 1 179 0
 885 000c 0023     		mov	r3, #0	@ D.4547,
 180:syscall.c     **** }
 886              		.loc 1 180 0
 887 000e 181C     		mov	r0, r3	@, <retval>
 888 0010 BD46     		mov	sp, r7	@,
 889 0012 04B0     		add	sp, sp, #16	@,,
 890              		@ sp needed for prologue	@
 891 0014 80BD     		pop	{r7, pc}
 892              		.cfi_endproc
 893              	.LFE21:
 894              		.size	_stat_r, .-_stat_r
 895 0016 C046     		.section	.text._fstat_r,"ax",%progbits
 896              		.align	2
 897              		.global	_fstat_r
 898              		.code	16
 899              		.thumb_func
 900              		.type	_fstat_r, %function
 901              	_fstat_r:
 902              	.LFB22:
 181:syscall.c     **** int _fstat_r(void *reent, int fd, struct stat *pstat)
ARM GAS  /tmp/ccuKfveS.s 			page 20


 182:syscall.c     **** {
 903              		.loc 1 182 0
 904              		.cfi_startproc
 905 0000 80B5     		push	{r7, lr}	@
 906              	.LCFI64:
 907              		.cfi_def_cfa_offset 8
 908              		.cfi_offset 7, -8
 909              		.cfi_offset 14, -4
 910 0002 84B0     		sub	sp, sp, #16	@,,
 911              	.LCFI65:
 912              		.cfi_def_cfa_offset 24
 913 0004 00AF     		add	r7, sp, #0	@,,
 914              	.LCFI66:
 915              		.cfi_def_cfa_register 7
 916 0006 F860     		str	r0, [r7, #12]	@ reent, reent
 917 0008 B960     		str	r1, [r7, #8]	@ fd, fd
 918 000a 7A60     		str	r2, [r7, #4]	@ pstat, pstat
 183:syscall.c     ****    return 0;
 919              		.loc 1 183 0
 920 000c 0023     		mov	r3, #0	@ D.4545,
 184:syscall.c     **** }
 921              		.loc 1 184 0
 922 000e 181C     		mov	r0, r3	@, <retval>
 923 0010 BD46     		mov	sp, r7	@,
 924 0012 04B0     		add	sp, sp, #16	@,,
 925              		@ sp needed for prologue	@
 926 0014 80BD     		pop	{r7, pc}
 927              		.cfi_endproc
 928              	.LFE22:
 929              		.size	_fstat_r, .-_fstat_r
 930 0016 C046     		.section	.text.times,"ax",%progbits
 931              		.align	2
 932              		.global	times
 933              		.code	16
 934              		.thumb_func
 935              		.type	times, %function
 936              	times:
 937              	.LFB23:
 185:syscall.c     **** 
 186:syscall.c     **** // times
 187:syscall.c     **** int times(struct tms *buf)
 188:syscall.c     **** {
 938              		.loc 1 188 0
 939              		.cfi_startproc
 940 0000 80B5     		push	{r7, lr}	@
 941              	.LCFI67:
 942              		.cfi_def_cfa_offset 8
 943              		.cfi_offset 7, -8
 944              		.cfi_offset 14, -4
 945 0002 82B0     		sub	sp, sp, #8	@,,
 946              	.LCFI68:
 947              		.cfi_def_cfa_offset 16
 948 0004 00AF     		add	r7, sp, #0	@,,
 949              	.LCFI69:
 950              		.cfi_def_cfa_register 7
 951 0006 7860     		str	r0, [r7, #4]	@ buf, buf
 189:syscall.c     ****    return -1;
ARM GAS  /tmp/ccuKfveS.s 			page 21


 952              		.loc 1 189 0
 953 0008 0123     		mov	r3, #1	@ tmp137,
 954 000a 5B42     		neg	r3, r3	@ D.4543, tmp137
 190:syscall.c     **** }
 955              		.loc 1 190 0
 956 000c 181C     		mov	r0, r3	@, <retval>
 957 000e BD46     		mov	sp, r7	@,
 958 0010 02B0     		add	sp, sp, #8	@,,
 959              		@ sp needed for prologue	@
 960 0012 80BD     		pop	{r7, pc}
 961              		.cfi_endproc
 962              	.LFE23:
 963              		.size	times, .-times
 964              		.section	.text.unlink,"ax",%progbits
 965              		.align	2
 966              		.global	unlink
 967              		.code	16
 968              		.thumb_func
 969              		.type	unlink, %function
 970              	unlink:
 971              	.LFB24:
 191:syscall.c     **** 
 192:syscall.c     **** // unlink
 193:syscall.c     **** #include <errno.h>
 194:syscall.c     **** #undef errno
 195:syscall.c     **** extern int errno;
 196:syscall.c     **** int unlink(char *name)
 197:syscall.c     **** {
 972              		.loc 1 197 0
 973              		.cfi_startproc
 974 0000 80B5     		push	{r7, lr}	@
 975              	.LCFI70:
 976              		.cfi_def_cfa_offset 8
 977              		.cfi_offset 7, -8
 978              		.cfi_offset 14, -4
 979 0002 82B0     		sub	sp, sp, #8	@,,
 980              	.LCFI71:
 981              		.cfi_def_cfa_offset 16
 982 0004 00AF     		add	r7, sp, #0	@,,
 983              	.LCFI72:
 984              		.cfi_def_cfa_register 7
 985 0006 7860     		str	r0, [r7, #4]	@ name, name
 198:syscall.c     ****    errno = ENOENT;
 986              		.loc 1 198 0
 987 0008 044B     		ldr	r3, .L62	@ tmp136,
 988 000a 0222     		mov	r2, #2	@ tmp137,
 989 000c 1A60     		str	r2, [r3]	@ tmp137, errno
 199:syscall.c     ****    return -1;
 990              		.loc 1 199 0
 991 000e 0123     		mov	r3, #1	@ tmp139,
 992 0010 5B42     		neg	r3, r3	@ D.4541, tmp139
 200:syscall.c     **** }
 993              		.loc 1 200 0
 994 0012 181C     		mov	r0, r3	@, <retval>
 995 0014 BD46     		mov	sp, r7	@,
 996 0016 02B0     		add	sp, sp, #8	@,,
 997              		@ sp needed for prologue	@
ARM GAS  /tmp/ccuKfveS.s 			page 22


 998 0018 80BD     		pop	{r7, pc}
 999              	.L63:
 1000 001a C046     		.align	2
 1001              	.L62:
 1002 001c 00000000 		.word	errno
 1003              		.cfi_endproc
 1004              	.LFE24:
 1005              		.size	unlink, .-unlink
 1006              		.section	.text._unlink_r,"ax",%progbits
 1007              		.align	2
 1008              		.global	_unlink_r
 1009              		.code	16
 1010              		.thumb_func
 1011              		.type	_unlink_r, %function
 1012              	_unlink_r:
 1013              	.LFB25:
 201:syscall.c     **** 
 202:syscall.c     **** int _unlink_r(void *reent, const char *file)
 203:syscall.c     **** {
 1014              		.loc 1 203 0
 1015              		.cfi_startproc
 1016 0000 80B5     		push	{r7, lr}	@
 1017              	.LCFI73:
 1018              		.cfi_def_cfa_offset 8
 1019              		.cfi_offset 7, -8
 1020              		.cfi_offset 14, -4
 1021 0002 82B0     		sub	sp, sp, #8	@,,
 1022              	.LCFI74:
 1023              		.cfi_def_cfa_offset 16
 1024 0004 00AF     		add	r7, sp, #0	@,,
 1025              	.LCFI75:
 1026              		.cfi_def_cfa_register 7
 1027 0006 7860     		str	r0, [r7, #4]	@ reent, reent
 1028 0008 3960     		str	r1, [r7]	@ file, file
 204:syscall.c     ****    return -1;
 1029              		.loc 1 204 0
 1030 000a 0123     		mov	r3, #1	@ tmp137,
 1031 000c 5B42     		neg	r3, r3	@ D.4539, tmp137
 205:syscall.c     **** }
 1032              		.loc 1 205 0
 1033 000e 181C     		mov	r0, r3	@, <retval>
 1034 0010 BD46     		mov	sp, r7	@,
 1035 0012 02B0     		add	sp, sp, #8	@,,
 1036              		@ sp needed for prologue	@
 1037 0014 80BD     		pop	{r7, pc}
 1038              		.cfi_endproc
 1039              	.LFE25:
 1040              		.size	_unlink_r, .-_unlink_r
 1041 0016 C046     		.section	.text.wait,"ax",%progbits
 1042              		.align	2
 1043              		.global	wait
 1044              		.code	16
 1045              		.thumb_func
 1046              		.type	wait, %function
 1047              	wait:
 1048              	.LFB26:
 206:syscall.c     **** 
ARM GAS  /tmp/ccuKfveS.s 			page 23


 207:syscall.c     **** // wait
 208:syscall.c     **** #include <errno.h>
 209:syscall.c     **** #undef errno
 210:syscall.c     **** extern int errno;
 211:syscall.c     **** int wait(int *status)
 212:syscall.c     **** {
 1049              		.loc 1 212 0
 1050              		.cfi_startproc
 1051 0000 80B5     		push	{r7, lr}	@
 1052              	.LCFI76:
 1053              		.cfi_def_cfa_offset 8
 1054              		.cfi_offset 7, -8
 1055              		.cfi_offset 14, -4
 1056 0002 82B0     		sub	sp, sp, #8	@,,
 1057              	.LCFI77:
 1058              		.cfi_def_cfa_offset 16
 1059 0004 00AF     		add	r7, sp, #0	@,,
 1060              	.LCFI78:
 1061              		.cfi_def_cfa_register 7
 1062 0006 7860     		str	r0, [r7, #4]	@ status, status
 213:syscall.c     ****    errno = ECHILD;
 1063              		.loc 1 213 0
 1064 0008 044B     		ldr	r3, .L68	@ tmp136,
 1065 000a 0A22     		mov	r2, #10	@ tmp137,
 1066 000c 1A60     		str	r2, [r3]	@ tmp137, errno
 214:syscall.c     ****    return -1;
 1067              		.loc 1 214 0
 1068 000e 0123     		mov	r3, #1	@ tmp139,
 1069 0010 5B42     		neg	r3, r3	@ D.4537, tmp139
 215:syscall.c     **** }
 1070              		.loc 1 215 0
 1071 0012 181C     		mov	r0, r3	@, <retval>
 1072 0014 BD46     		mov	sp, r7	@,
 1073 0016 02B0     		add	sp, sp, #8	@,,
 1074              		@ sp needed for prologue	@
 1075 0018 80BD     		pop	{r7, pc}
 1076              	.L69:
 1077 001a C046     		.align	2
 1078              	.L68:
 1079 001c 00000000 		.word	errno
 1080              		.cfi_endproc
 1081              	.LFE26:
 1082              		.size	wait, .-wait
 1083              		.section	.text._wait_r,"ax",%progbits
 1084              		.align	2
 1085              		.global	_wait_r
 1086              		.code	16
 1087              		.thumb_func
 1088              		.type	_wait_r, %function
 1089              	_wait_r:
 1090              	.LFB27:
 216:syscall.c     **** 
 217:syscall.c     **** int _wait_r(void *reent, int *status)
 218:syscall.c     **** {
 1091              		.loc 1 218 0
 1092              		.cfi_startproc
 1093 0000 80B5     		push	{r7, lr}	@
ARM GAS  /tmp/ccuKfveS.s 			page 24


 1094              	.LCFI79:
 1095              		.cfi_def_cfa_offset 8
 1096              		.cfi_offset 7, -8
 1097              		.cfi_offset 14, -4
 1098 0002 82B0     		sub	sp, sp, #8	@,,
 1099              	.LCFI80:
 1100              		.cfi_def_cfa_offset 16
 1101 0004 00AF     		add	r7, sp, #0	@,,
 1102              	.LCFI81:
 1103              		.cfi_def_cfa_register 7
 1104 0006 7860     		str	r0, [r7, #4]	@ reent, reent
 1105 0008 3960     		str	r1, [r7]	@ status, status
 219:syscall.c     ****    return -1;
 1106              		.loc 1 219 0
 1107 000a 0123     		mov	r3, #1	@ tmp137,
 1108 000c 5B42     		neg	r3, r3	@ D.4535, tmp137
 220:syscall.c     **** }
 1109              		.loc 1 220 0
 1110 000e 181C     		mov	r0, r3	@, <retval>
 1111 0010 BD46     		mov	sp, r7	@,
 1112 0012 02B0     		add	sp, sp, #8	@,,
 1113              		@ sp needed for prologue	@
 1114 0014 80BD     		pop	{r7, pc}
 1115              		.cfi_endproc
 1116              	.LFE27:
 1117              		.size	_wait_r, .-_wait_r
 1118 0016 C046     		.section	.text.write,"ax",%progbits
 1119              		.align	2
 1120              		.global	write
 1121              		.code	16
 1122              		.thumb_func
 1123              		.type	write, %function
 1124              	write:
 1125              	.LFB28:
 221:syscall.c     **** 
 222:syscall.c     **** // write
 223:syscall.c     **** // Write to a file.  libc subroutines will use this system routine for output to all files, includi
 224:syscall.c     **** // so if you need to generate any output, for example to a serial port for debugging, you should ma
 225:syscall.c     **** // minimal write capable of doing this.  The following minimal implementation is an incomplete exam
 226:syscall.c     **** // relies on a outbyte subroutine (not show, typically you must wrte the in assembler from examples
 227:syscall.c     **** // by your hardware manufacturer) to actually perform the output
 228:syscall.c     **** int write(int file, char *ptr, int len)
 229:syscall.c     **** {
 1126              		.loc 1 229 0
 1127              		.cfi_startproc
 1128 0000 80B5     		push	{r7, lr}	@
 1129              	.LCFI82:
 1130              		.cfi_def_cfa_offset 8
 1131              		.cfi_offset 7, -8
 1132              		.cfi_offset 14, -4
 1133 0002 86B0     		sub	sp, sp, #24	@,,
 1134              	.LCFI83:
 1135              		.cfi_def_cfa_offset 32
 1136 0004 00AF     		add	r7, sp, #0	@,,
 1137              	.LCFI84:
 1138              		.cfi_def_cfa_register 7
 1139 0006 F860     		str	r0, [r7, #12]	@ file, file
ARM GAS  /tmp/ccuKfveS.s 			page 25


 1140 0008 B960     		str	r1, [r7, #8]	@ ptr, ptr
 1141 000a 7A60     		str	r2, [r7, #4]	@ len, len
 230:syscall.c     ****    int todo;
 231:syscall.c     **** 
 232:syscall.c     ****    for (todo = 0; todo < len; todo++)
 1142              		.loc 1 232 0
 1143 000c 0023     		mov	r3, #0	@ tmp138,
 1144 000e 7B61     		str	r3, [r7, #20]	@ tmp138, todo
 1145 0010 0AE0     		b	.L73	@
 1146              	.L74:
 1147              	.LBB2:
 233:syscall.c     ****    {
 234:syscall.c     ****       // outbyte(*ptr++);
 235:syscall.c     ****       serial_send(*ptr++);
 1148              		.loc 1 235 0 discriminator 2
 1149 0012 BB68     		ldr	r3, [r7, #8]	@ tmp139, ptr
 1150 0014 1B78     		ldrb	r3, [r3]	@ D.4531, *ptr_1
 1151 0016 BA68     		ldr	r2, [r7, #8]	@ tmp141, ptr
 1152 0018 0132     		add	r2, r2, #1	@ tmp140,
 1153 001a BA60     		str	r2, [r7, #8]	@ tmp140, ptr
 1154 001c 181C     		mov	r0, r3	@, D.4532
 1155 001e FFF7FEFF 		bl	serial_send	@
 1156              	.LBE2:
 232:syscall.c     ****    for (todo = 0; todo < len; todo++)
 1157              		.loc 1 232 0 discriminator 2
 1158 0022 7B69     		ldr	r3, [r7, #20]	@ tmp143, todo
 1159 0024 0133     		add	r3, r3, #1	@ tmp142,
 1160 0026 7B61     		str	r3, [r7, #20]	@ tmp142, todo
 1161              	.L73:
 232:syscall.c     ****    for (todo = 0; todo < len; todo++)
 1162              		.loc 1 232 0 is_stmt 0 discriminator 1
 1163 0028 7A69     		ldr	r2, [r7, #20]	@ tmp144, todo
 1164 002a 7B68     		ldr	r3, [r7, #4]	@ tmp145, len
 1165 002c 9A42     		cmp	r2, r3	@ tmp144, tmp145
 1166 002e F0DB     		blt	.L74	@,
 236:syscall.c     ****    }
 237:syscall.c     ****    return len;
 1167              		.loc 1 237 0 is_stmt 1
 1168 0030 7B68     		ldr	r3, [r7, #4]	@ D.4533, len
 238:syscall.c     **** }
 1169              		.loc 1 238 0
 1170 0032 181C     		mov	r0, r3	@, <retval>
 1171 0034 BD46     		mov	sp, r7	@,
 1172 0036 06B0     		add	sp, sp, #24	@,,
 1173              		@ sp needed for prologue	@
 1174 0038 80BD     		pop	{r7, pc}
 1175              		.cfi_endproc
 1176              	.LFE28:
 1177              		.size	write, .-write
 1178 003a C046     		.section	.text._write_r,"ax",%progbits
 1179              		.align	2
 1180              		.global	_write_r
 1181              		.code	16
 1182              		.thumb_func
 1183              		.type	_write_r, %function
 1184              	_write_r:
 1185              	.LFB29:
ARM GAS  /tmp/ccuKfveS.s 			page 26


 239:syscall.c     **** 
 240:syscall.c     **** long _write_r(void *reent, int fd, const void *buf, size_t cnt)
 241:syscall.c     **** {
 1186              		.loc 1 241 0
 1187              		.cfi_startproc
 1188 0000 80B5     		push	{r7, lr}	@
 1189              	.LCFI85:
 1190              		.cfi_def_cfa_offset 8
 1191              		.cfi_offset 7, -8
 1192              		.cfi_offset 14, -4
 1193 0002 84B0     		sub	sp, sp, #16	@,,
 1194              	.LCFI86:
 1195              		.cfi_def_cfa_offset 24
 1196 0004 00AF     		add	r7, sp, #0	@,,
 1197              	.LCFI87:
 1198              		.cfi_def_cfa_register 7
 1199 0006 F860     		str	r0, [r7, #12]	@ reent, reent
 1200 0008 B960     		str	r1, [r7, #8]	@ fd, fd
 1201 000a 7A60     		str	r2, [r7, #4]	@ buf, buf
 1202 000c 3B60     		str	r3, [r7]	@ cnt, cnt
 242:syscall.c     ****    return write(fd, buf, cnt);
 1203              		.loc 1 242 0
 1204 000e 3B68     		ldr	r3, [r7]	@ cnt.0, cnt
 1205 0010 B968     		ldr	r1, [r7, #8]	@ tmp137, fd
 1206 0012 7A68     		ldr	r2, [r7, #4]	@ tmp138, buf
 1207 0014 081C     		mov	r0, r1	@, tmp137
 1208 0016 111C     		mov	r1, r2	@, tmp138
 1209 0018 1A1C     		mov	r2, r3	@, cnt.0
 1210 001a FFF7FEFF 		bl	write	@
 1211 001e 031C     		mov	r3, r0	@ D.4528,
 243:syscall.c     **** }
 1212              		.loc 1 243 0
 1213 0020 181C     		mov	r0, r3	@, <retval>
 1214 0022 BD46     		mov	sp, r7	@,
 1215 0024 04B0     		add	sp, sp, #16	@,,
 1216              		@ sp needed for prologue	@
 1217 0026 80BD     		pop	{r7, pc}
 1218              		.cfi_endproc
 1219              	.LFE29:
 1220              		.size	_write_r, .-_write_r
 1221              		.section	.bss.heap_end.4468,"aw",%nobits
 1222              		.align	2
 1223              		.type	heap_end.4468, %object
 1224              		.size	heap_end.4468, 4
 1225              	heap_end.4468:
 1226 0000 00000000 		.space	4
 1227              		.text
 1228              	.Letext0:
 1229              		.file 2 "/opt/gcc-arm-none-eabi-4_7-2013q2/bin/../lib/gcc/arm-none-eabi/4.7.4/../../../../arm-none
 1230              		.file 3 "/opt/gcc-arm-none-eabi-4_7-2013q2/bin/../lib/gcc/arm-none-eabi/4.7.4/include/stddef.h"
 1231              		.file 4 "/opt/gcc-arm-none-eabi-4_7-2013q2/bin/../lib/gcc/arm-none-eabi/4.7.4/../../../../arm-none
 1232              		.file 5 "/opt/gcc-arm-none-eabi-4_7-2013q2/bin/../lib/gcc/arm-none-eabi/4.7.4/../../../../arm-none