ARM GAS  /tmp/ccuKfveS.s 			page 1


   1              		.cpu cortex-m0
   2              		.fpu softvfp
   3              		.eabi_attribute 20, 1	@ Tag_ABI_FP_denormal
   4              		.eabi_attribute 21, 1	@ Tag_ABI_FP_exceptions
   5              		.eabi_attribute 23, 3	@ Tag_ABI_FP_number_model
   6              		.eabi_attribute 24, 1	@ Tag_ABI_align8_needed
   7              		.eabi_attribute 25, 1	@ Tag_ABI_align8_preserved
   8              		.eabi_attribute 26, 1	@ Tag_ABI_enum_size
   9              		.eabi_attribute 30, 6	@ Tag_ABI_optimization_goals
  10              		.eabi_attribute 34, 0	@ Tag_CPU_unaligned_access
  11              		.eabi_attribute 18, 4	@ Tag_ABI_PCS_wchar_t
  12              		.file	"syscall.c"
  13              	@ GNU C (GNU Tools for ARM Embedded Processors) version 4.7.4 20130613 (release) [ARM/embedded-4_7-
  14              	@	compiled by GNU C version 4.3.6, GMP version 4.3.2, MPFR version 2.4.2, MPC version 0.8.1
  15              	@ GGC heuristics: --param ggc-min-expand=100 --param ggc-min-heapsize=131072
  16              	@ options passed:  -I . -I /home/wrcooke/git/projects/arm_gcc/include
  17              	@ -imultilib armv6-m
  18              	@ -iprefix /opt/gcc-arm-none-eabi-4_7-2013q2/bin/../lib/gcc/arm-none-eabi/4.7.4/
  19              	@ -isysroot /opt/gcc-arm-none-eabi-4_7-2013q2/bin/../arm-none-eabi
  20              	@ -MD out/syscall.d -MF out/syscall.d -MP -MQ out/syscall.o
  21              	@ -D__USES_INITFINI__ syscall.c -mcpu=cortex-m0 -mthumb
  22              	@ -auxbase-strip out/syscall.o -g -ggdb3 -O0 -Wall -Wstrict-prototypes
  23              	@ -Wextra -std=gnu99 -ffunction-sections -fdata-sections -fverbose-asm
  24              	@ options enabled:  -fauto-inc-dec -fbranch-count-reg -fcommon
  25              	@ -fdata-sections -fdebug-types-section -fdelete-null-pointer-checks
  26              	@ -fdwarf2-cfi-asm -fearly-inlining -feliminate-unused-debug-types
  27              	@ -ffunction-cse -ffunction-sections -fgcse-lm -fgnu-runtime -fident
  28              	@ -finline-atomics -fira-hoist-pressure -fira-share-save-slots
  29              	@ -fira-share-spill-slots -fivopts -fkeep-static-consts
  30              	@ -fleading-underscore -fmath-errno -fmerge-debug-strings
  31              	@ -fmove-loop-invariants -fpeephole -fprefetch-loop-arrays
  32              	@ -freg-struct-return -fsched-critical-path-heuristic
  33              	@ -fsched-dep-count-heuristic -fsched-group-heuristic -fsched-interblock
  34              	@ -fsched-last-insn-heuristic -fsched-rank-heuristic -fsched-spec
  35              	@ -fsched-spec-insn-heuristic -fsched-stalled-insns-dep -fshow-column
  36              	@ -fsigned-zeros -fsplit-ivs-in-unroller -fstrict-volatile-bitfields
  37              	@ -ftrapping-math -ftree-cselim -ftree-forwprop -ftree-loop-if-convert
  38              	@ -ftree-loop-im -ftree-loop-ivcanon -ftree-loop-optimize
  39              	@ -ftree-parallelize-loops= -ftree-phiprop -ftree-pta -ftree-reassoc
  40              	@ -ftree-scev-cprop -ftree-slp-vectorize -ftree-vect-loop-version
  41              	@ -funit-at-a-time -fverbose-asm -fzero-initialized-in-bss -mlittle-endian
  42              	@ -msched-prolog -mthumb -mvectorize-with-neon-quad
  43              	
  44              		.text
  45              	.Ltext0:
  46              		.cfi_sections	.debug_frame
  47              		.section	.text.close,"ax",%progbits
  48              		.align	2
  49              		.global	close
  50              		.code	16
  51              		.thumb_func
  52              		.type	close, %function
  53              	close:
  54              	.LFB0:
  55              		.file 1 "syscall.c"
   1:syscall.c     **** 
   2:syscall.c     **** 
ARM GAS  /tmp/ccuKfveS.s 			page 2


   3:syscall.c     **** // from newlib docs at www.sourceware.org/newlib/
   4:syscall.c     **** 
   5:syscall.c     **** 
   6:syscall.c     **** // _exit
   7:syscall.c     **** // best not to implement or use
   8:syscall.c     **** 
   9:syscall.c     **** // close
  10:syscall.c     **** int close (int file)
  11:syscall.c     **** {
  56              		.loc 1 11 0
  57              		.cfi_startproc
  58 0000 80B5     		push	{r7, lr}	@
  59              	.LCFI0:
  60              		.cfi_def_cfa_offset 8
  61              		.cfi_offset 7, -8
  62              		.cfi_offset 14, -4
  63 0002 82B0     		sub	sp, sp, #8	@,,
  64              	.LCFI1:
  65              		.cfi_def_cfa_offset 16
  66 0004 00AF     		add	r7, sp, #0	@,,
  67              	.LCFI2:
  68              		.cfi_def_cfa_register 7
  69 0006 7860     		str	r0, [r7, #4]	@ file, file
  12:syscall.c     ****    serial_send('C');
  70              		.loc 1 12 0
  71 0008 4320     		mov	r0, #67	@,
  72 000a FFF7FEFF 		bl	serial_send	@
  13:syscall.c     ****    return 0;
  73              		.loc 1 13 0
  74 000e 0023     		mov	r3, #0	@ D.4595,
  14:syscall.c     **** }
  75              		.loc 1 14 0
  76 0010 181C     		mov	r0, r3	@, <retval>
  77 0012 BD46     		mov	sp, r7	@,
  78 0014 02B0     		add	sp, sp, #8	@,,
  79              		@ sp needed for prologue	@
  80 0016 80BD     		pop	{r7, pc}
  81              		.cfi_endproc
  82              	.LFE0:
  83              		.size	close, .-close
  84              		.section	.text._close_r,"ax",%progbits
  85              		.align	2
  86              		.global	_close_r
  87              		.code	16
  88              		.thumb_func
  89              		.type	_close_r, %function
  90              	_close_r:
  91              	.LFB1:
  15:syscall.c     **** 
  16:syscall.c     **** int _close_r(void *reent, int file)
  17:syscall.c     **** {
  92              		.loc 1 17 0
  93              		.cfi_startproc
  94 0000 80B5     		push	{r7, lr}	@
  95              	.LCFI3:
  96              		.cfi_def_cfa_offset 8
  97              		.cfi_offset 7, -8
ARM GAS  /tmp/ccuKfveS.s 			page 3


  98              		.cfi_offset 14, -4
  99 0002 82B0     		sub	sp, sp, #8	@,,
 100              	.LCFI4:
 101              		.cfi_def_cfa_offset 16
 102 0004 00AF     		add	r7, sp, #0	@,,
 103              	.LCFI5:
 104              		.cfi_def_cfa_register 7
 105 0006 7860     		str	r0, [r7, #4]	@ reent, reent
 106 0008 3960     		str	r1, [r7]	@ file, file
  18:syscall.c     ****    return 0;
 107              		.loc 1 18 0
 108 000a 0023     		mov	r3, #0	@ D.4593,
  19:syscall.c     **** }
 109              		.loc 1 19 0
 110 000c 181C     		mov	r0, r3	@, <retval>
 111 000e BD46     		mov	sp, r7	@,
 112 0010 02B0     		add	sp, sp, #8	@,,
 113              		@ sp needed for prologue	@
 114 0012 80BD     		pop	{r7, pc}
 115              		.cfi_endproc
 116              	.LFE1:
 117              		.size	_close_r, .-_close_r
 118              		.global	__env
 119              		.section	.bss.__env,"aw",%nobits
 120              		.align	2
 121              		.type	__env, %object
 122              		.size	__env, 4
 123              	__env:
 124 0000 00000000 		.space	4
 125              		.global	environ
 126              		.section	.data.environ,"aw",%progbits
 127              		.align	2
 128              		.type	environ, %object
 129              		.size	environ, 4
 130              	environ:
 131 0000 00000000 		.word	__env
 132              		.section	.text.execve,"ax",%progbits
 133              		.align	2
 134              		.global	execve
 135              		.code	16
 136              		.thumb_func
 137              		.type	execve, %function
 138              	execve:
 139              	.LFB2:
  20:syscall.c     **** 
  21:syscall.c     **** //environ
  22:syscall.c     **** char *__env[1] = {0};
  23:syscall.c     **** char **environ = __env;
  24:syscall.c     **** 
  25:syscall.c     **** // execve
  26:syscall.c     **** #include <errno.h>
  27:syscall.c     **** #undef errno
  28:syscall.c     **** extern int errno;
  29:syscall.c     **** int execve(char *name, char **argv, char **env)
  30:syscall.c     **** {
 140              		.loc 1 30 0
 141              		.cfi_startproc
ARM GAS  /tmp/ccuKfveS.s 			page 4


 142 0000 80B5     		push	{r7, lr}	@
 143              	.LCFI6:
 144              		.cfi_def_cfa_offset 8
 145              		.cfi_offset 7, -8
 146              		.cfi_offset 14, -4
 147 0002 84B0     		sub	sp, sp, #16	@,,
 148              	.LCFI7:
 149              		.cfi_def_cfa_offset 24
 150 0004 00AF     		add	r7, sp, #0	@,,
 151              	.LCFI8:
 152              		.cfi_def_cfa_register 7
 153 0006 F860     		str	r0, [r7, #12]	@ name, name
 154 0008 B960     		str	r1, [r7, #8]	@ argv, argv
 155 000a 7A60     		str	r2, [r7, #4]	@ env, env
  31:syscall.c     ****    errno = ENOMEM;
 156              		.loc 1 31 0
 157 000c 044B     		ldr	r3, .L7	@ tmp136,
 158 000e 0C22     		mov	r2, #12	@ tmp137,
 159 0010 1A60     		str	r2, [r3]	@ tmp137, errno
  32:syscall.c     ****    return -1;
 160              		.loc 1 32 0
 161 0012 0123     		mov	r3, #1	@ tmp139,
 162 0014 5B42     		neg	r3, r3	@ D.4591, tmp139
  33:syscall.c     **** }
 163              		.loc 1 33 0
 164 0016 181C     		mov	r0, r3	@, <retval>
 165 0018 BD46     		mov	sp, r7	@,
 166 001a 04B0     		add	sp, sp, #16	@,,
 167              		@ sp needed for prologue	@
 168 001c 80BD     		pop	{r7, pc}
 169              	.L8:
 170 001e C046     		.align	2
 171              	.L7:
 172 0020 00000000 		.word	errno
 173              		.cfi_endproc
 174              	.LFE2:
 175              		.size	execve, .-execve
 176              		.section	.text.fork,"ax",%progbits
 177              		.align	2
 178              		.global	fork
 179              		.code	16
 180              		.thumb_func
 181              		.type	fork, %function
 182              	fork:
 183              	.LFB3:
  34:syscall.c     **** 
  35:syscall.c     **** //fork
  36:syscall.c     **** #include <errno.h>
  37:syscall.c     **** #undef errno
  38:syscall.c     **** extern int errno;
  39:syscall.c     **** int fork(void)
  40:syscall.c     **** {
 184              		.loc 1 40 0
 185              		.cfi_startproc
 186 0000 80B5     		push	{r7, lr}	@
 187              	.LCFI9:
 188              		.cfi_def_cfa_offset 8
ARM GAS  /tmp/ccuKfveS.s 			page 5


 189              		.cfi_offset 7, -8
 190              		.cfi_offset 14, -4
 191 0002 00AF     		add	r7, sp, #0	@,,
 192              	.LCFI10:
 193              		.cfi_def_cfa_register 7
  41:syscall.c     ****    errno = EAGAIN;
 194              		.loc 1 41 0
 195 0004 034B     		ldr	r3, .L11	@ tmp136,
 196 0006 0B22     		mov	r2, #11	@ tmp137,
 197 0008 1A60     		str	r2, [r3]	@ tmp137, errno
  42:syscall.c     ****    return -1;
 198              		.loc 1 42 0
 199 000a 0123     		mov	r3, #1	@ tmp139,
 200 000c 5B42     		neg	r3, r3	@ D.4589, tmp139
  43:syscall.c     **** }
 201              		.loc 1 43 0
 202 000e 181C     		mov	r0, r3	@, <retval>
 203 0010 BD46     		mov	sp, r7	@,
 204              		@ sp needed for prologue	@
 205 0012 80BD     		pop	{r7, pc}
 206              	.L12:
 207              		.align	2
 208              	.L11:
 209 0014 00000000 		.word	errno
 210              		.cfi_endproc
 211              	.LFE3:
 212              		.size	fork, .-fork
 213              		.section	.text._fork_r,"ax",%progbits
 214              		.align	2
 215              		.global	_fork_r
 216              		.code	16
 217              		.thumb_func
 218              		.type	_fork_r, %function
 219              	_fork_r:
 220              	.LFB4:
  44:syscall.c     **** 
  45:syscall.c     **** int _fork_r(void *reent)
  46:syscall.c     **** {
 221              		.loc 1 46 0
 222              		.cfi_startproc
 223 0000 80B5     		push	{r7, lr}	@
 224              	.LCFI11:
 225              		.cfi_def_cfa_offset 8
 226              		.cfi_offset 7, -8
 227              		.cfi_offset 14, -4
 228 0002 82B0     		sub	sp, sp, #8	@,,
 229              	.LCFI12:
 230              		.cfi_def_cfa_offset 16
 231 0004 00AF     		add	r7, sp, #0	@,,
 232              	.LCFI13:
 233              		.cfi_def_cfa_register 7
 234 0006 7860     		str	r0, [r7, #4]	@ reent, reent
  47:syscall.c     ****    return -1;
 235              		.loc 1 47 0
 236 0008 0123     		mov	r3, #1	@ tmp137,
 237 000a 5B42     		neg	r3, r3	@ D.4587, tmp137
  48:syscall.c     **** }
ARM GAS  /tmp/ccuKfveS.s 			page 6


 238              		.loc 1 48 0
 239 000c 181C     		mov	r0, r3	@, <retval>
 240 000e BD46     		mov	sp, r7	@,
 241 0010 02B0     		add	sp, sp, #8	@,,
 242              		@ sp needed for prologue	@
 243 0012 80BD     		pop	{r7, pc}
 244              		.cfi_endproc
 245              	.LFE4:
 246              		.size	_fork_r, .-_fork_r
 247              		.section	.text.fstat,"ax",%progbits
 248              		.align	2
 249              		.global	fstat
 250              		.code	16
 251              		.thumb_func
 252              		.type	fstat, %function
 253              	fstat:
 254              	.LFB5:
  49:syscall.c     **** 
  50:syscall.c     **** //fstat
  51:syscall.c     **** #include <sys/stat.h>
  52:syscall.c     **** int fstat(int file, struct stat *st)
  53:syscall.c     **** {
 255              		.loc 1 53 0
 256              		.cfi_startproc
 257 0000 80B5     		push	{r7, lr}	@
 258              	.LCFI14:
 259              		.cfi_def_cfa_offset 8
 260              		.cfi_offset 7, -8
 261              		.cfi_offset 14, -4
 262 0002 82B0     		sub	sp, sp, #8	@,,
 263              	.LCFI15:
 264              		.cfi_def_cfa_offset 16
 265 0004 00AF     		add	r7, sp, #0	@,,
 266              	.LCFI16:
 267              		.cfi_def_cfa_register 7
 268 0006 7860     		str	r0, [r7, #4]	@ file, file
 269 0008 3960     		str	r1, [r7]	@ st, st
  54:syscall.c     ****    serial_send('T');
 270              		.loc 1 54 0
 271 000a 5420     		mov	r0, #84	@,
 272 000c FFF7FEFF 		bl	serial_send	@
  55:syscall.c     ****    st->st_mode = S_IFCHR;
 273              		.loc 1 55 0
 274 0010 3B68     		ldr	r3, [r7]	@ tmp136, st
 275 0012 8022     		mov	r2, #128	@ tmp139,
 276 0014 9201     		lsl	r2, r2, #6	@ tmp137, tmp139,
 277 0016 5A60     		str	r2, [r3, #4]	@ tmp137, st_1(D)->st_mode
  56:syscall.c     ****    return 0;
 278              		.loc 1 56 0
 279 0018 0023     		mov	r3, #0	@ D.4585,
  57:syscall.c     **** }
 280              		.loc 1 57 0
 281 001a 181C     		mov	r0, r3	@, <retval>
 282 001c BD46     		mov	sp, r7	@,
 283 001e 02B0     		add	sp, sp, #8	@,,
 284              		@ sp needed for prologue	@
 285 0020 80BD     		pop	{r7, pc}
ARM GAS  /tmp/ccuKfveS.s 			page 7


 286              		.cfi_endproc
 287              	.LFE5:
 288              		.size	fstat, .-fstat
 289 0022 C046     		.section	.text.getpid,"ax",%progbits
 290              		.align	2
 291              		.global	getpid
 292              		.code	16
 293              		.thumb_func
 294              		.type	getpid, %function
 295              	getpid:
 296              	.LFB6:
  58:syscall.c     **** 
  59:syscall.c     **** //getpid
  60:syscall.c     **** int getpid(void)
  61:syscall.c     **** {
 297              		.loc 1 61 0
 298              		.cfi_startproc
 299 0000 80B5     		push	{r7, lr}	@
 300              	.LCFI17:
 301              		.cfi_def_cfa_offset 8
 302              		.cfi_offset 7, -8
 303              		.cfi_offset 14, -4
 304 0002 00AF     		add	r7, sp, #0	@,,
 305              	.LCFI18:
 306              		.cfi_def_cfa_register 7
  62:syscall.c     ****    return 1;
 307              		.loc 1 62 0
 308 0004 0123     		mov	r3, #1	@ D.4583,
  63:syscall.c     **** }
 309              		.loc 1 63 0
 310 0006 181C     		mov	r0, r3	@, <retval>
 311 0008 BD46     		mov	sp, r7	@,
 312              		@ sp needed for prologue	@
 313 000a 80BD     		pop	{r7, pc}
 314              		.cfi_endproc
 315              	.LFE6:
 316              		.size	getpid, .-getpid
 317              		.section	.text.isatty,"ax",%progbits
 318              		.align	2
 319              		.global	isatty
 320              		.code	16
 321              		.thumb_func
 322              		.type	isatty, %function
 323              	isatty:
 324              	.LFB7:
  64:syscall.c     **** 
  65:syscall.c     **** // isatty
  66:syscall.c     **** int isatty(int file)
  67:syscall.c     **** {
 325              		.loc 1 67 0
 326              		.cfi_startproc
 327 0000 80B5     		push	{r7, lr}	@
 328              	.LCFI19:
 329              		.cfi_def_cfa_offset 8
 330              		.cfi_offset 7, -8
 331              		.cfi_offset 14, -4
 332 0002 82B0     		sub	sp, sp, #8	@,,
ARM GAS  /tmp/ccuKfveS.s 			page 8


 333              	.LCFI20:
 334              		.cfi_def_cfa_offset 16
 335 0004 00AF     		add	r7, sp, #0	@,,
 336              	.LCFI21:
 337              		.cfi_def_cfa_register 7
 338 0006 7860     		str	r0, [r7, #4]	@ file, file
  68:syscall.c     ****    serial_send('Y');
 339              		.loc 1 68 0
 340 0008 5920     		mov	r0, #89	@,
 341 000a FFF7FEFF 		bl	serial_send	@
  69:syscall.c     ****    return 1;
 342              		.loc 1 69 0
 343 000e 0123     		mov	r3, #1	@ D.4581,
  70:syscall.c     **** }
 344              		.loc 1 70 0
 345 0010 181C     		mov	r0, r3	@, <retval>
 346 0012 BD46     		mov	sp, r7	@,
 347 0014 02B0     		add	sp, sp, #8	@,,
 348              		@ sp needed for prologue	@
 349 0016 80BD     		pop	{r7, pc}
 350              		.cfi_endproc
 351              	.LFE7:
 352              		.size	isatty, .-isatty
 353              		.section	.text._isatty_r,"ax",%progbits
 354              		.align	2
 355              		.global	_isatty_r
 356              		.code	16
 357              		.thumb_func
 358              		.type	_isatty_r, %function
 359              	_isatty_r:
 360              	.LFB8:
  71:syscall.c     **** 
  72:syscall.c     **** int _isatty_r(void *reent, int fd)
  73:syscall.c     **** {
 361              		.loc 1 73 0
 362              		.cfi_startproc
 363 0000 80B5     		push	{r7, lr}	@
 364              	.LCFI22:
 365              		.cfi_def_cfa_offset 8
 366              		.cfi_offset 7, -8
 367              		.cfi_offset 14, -4
 368 0002 82B0     		sub	sp, sp, #8	@,,
 369              	.LCFI23:
 370              		.cfi_def_cfa_offset 16
 371 0004 00AF     		add	r7, sp, #0	@,,
 372              	.LCFI24:
 373              		.cfi_def_cfa_register 7
 374 0006 7860     		str	r0, [r7, #4]	@ reent, reent
 375 0008 3960     		str	r1, [r7]	@ fd, fd
  74:syscall.c     ****    return 1;
 376              		.loc 1 74 0
 377 000a 0123     		mov	r3, #1	@ D.4579,
  75:syscall.c     **** }
 378              		.loc 1 75 0
 379 000c 181C     		mov	r0, r3	@, <retval>
 380 000e BD46     		mov	sp, r7	@,
 381 0010 02B0     		add	sp, sp, #8	@,,
ARM GAS  /tmp/ccuKfveS.s 			page 9


 382              		@ sp needed for prologue	@
 383 0012 80BD     		pop	{r7, pc}
 384              		.cfi_endproc
 385              	.LFE8:
 386              		.size	_isatty_r, .-_isatty_r
 387              		.section	.text.kill,"ax",%progbits
 388              		.align	2
 389              		.global	kill
 390              		.code	16
 391              		.thumb_func
 392              		.type	kill, %function
 393              	kill:
 394              	.LFB9:
  76:syscall.c     **** 
  77:syscall.c     **** // kill
  78:syscall.c     **** #include <errno.h>
  79:syscall.c     **** #undef errno
  80:syscall.c     **** extern int errno;
  81:syscall.c     **** int kill(int pid, int sig)
  82:syscall.c     **** {
 395              		.loc 1 82 0
 396              		.cfi_startproc
 397 0000 80B5     		push	{r7, lr}	@
 398              	.LCFI25:
 399              		.cfi_def_cfa_offset 8
 400              		.cfi_offset 7, -8
 401              		.cfi_offset 14, -4
 402 0002 82B0     		sub	sp, sp, #8	@,,
 403              	.LCFI26:
 404              		.cfi_def_cfa_offset 16
 405 0004 00AF     		add	r7, sp, #0	@,,
 406              	.LCFI27:
 407              		.cfi_def_cfa_register 7
 408 0006 7860     		str	r0, [r7, #4]	@ pid, pid
 409 0008 3960     		str	r1, [r7]	@ sig, sig
  83:syscall.c     ****    errno = EINVAL;
 410              		.loc 1 83 0
 411 000a 044B     		ldr	r3, .L25	@ tmp136,
 412 000c 1622     		mov	r2, #22	@ tmp137,
 413 000e 1A60     		str	r2, [r3]	@ tmp137, errno
  84:syscall.c     ****    return -1;
 414              		.loc 1 84 0
 415 0010 0123     		mov	r3, #1	@ tmp139,
 416 0012 5B42     		neg	r3, r3	@ D.4577, tmp139
  85:syscall.c     **** }
 417              		.loc 1 85 0
 418 0014 181C     		mov	r0, r3	@, <retval>
 419 0016 BD46     		mov	sp, r7	@,
 420 0018 02B0     		add	sp, sp, #8	@,,
 421              		@ sp needed for prologue	@
 422 001a 80BD     		pop	{r7, pc}
 423              	.L26:
 424              		.align	2
 425              	.L25:
 426 001c 00000000 		.word	errno
 427              		.cfi_endproc
 428              	.LFE9:
ARM GAS  /tmp/ccuKfveS.s 			page 10


 429              		.size	kill, .-kill
 430              		.section	.text.link,"ax",%progbits
 431              		.align	2
 432              		.global	link
 433              		.code	16
 434              		.thumb_func
 435              		.type	link, %function
 436              	link:
 437              	.LFB10:
  86:syscall.c     **** 
  87:syscall.c     **** // link
  88:syscall.c     **** #include <errno.h>
  89:syscall.c     **** #undef errno
  90:syscall.c     **** extern int errno;
  91:syscall.c     **** int link(char *old, char *new)
  92:syscall.c     **** {
 438              		.loc 1 92 0
 439              		.cfi_startproc
 440 0000 80B5     		push	{r7, lr}	@
 441              	.LCFI28:
 442              		.cfi_def_cfa_offset 8
 443              		.cfi_offset 7, -8
 444              		.cfi_offset 14, -4
 445 0002 82B0     		sub	sp, sp, #8	@,,
 446              	.LCFI29:
 447              		.cfi_def_cfa_offset 16
 448 0004 00AF     		add	r7, sp, #0	@,,
 449              	.LCFI30:
 450              		.cfi_def_cfa_register 7
 451 0006 7860     		str	r0, [r7, #4]	@ old, old
 452 0008 3960     		str	r1, [r7]	@ new, new
  93:syscall.c     ****    errno = EMLINK;
 453              		.loc 1 93 0
 454 000a 044B     		ldr	r3, .L29	@ tmp136,
 455 000c 1F22     		mov	r2, #31	@ tmp137,
 456 000e 1A60     		str	r2, [r3]	@ tmp137, errno
  94:syscall.c     ****    return -1;
 457              		.loc 1 94 0
 458 0010 0123     		mov	r3, #1	@ tmp139,
 459 0012 5B42     		neg	r3, r3	@ D.4575, tmp139
  95:syscall.c     **** }
 460              		.loc 1 95 0
 461 0014 181C     		mov	r0, r3	@, <retval>
 462 0016 BD46     		mov	sp, r7	@,
 463 0018 02B0     		add	sp, sp, #8	@,,
 464              		@ sp needed for prologue	@
 465 001a 80BD     		pop	{r7, pc}
 466              	.L30:
 467              		.align	2
 468              	.L29:
 469 001c 00000000 		.word	errno
 470              		.cfi_endproc
 471              	.LFE10:
 472              		.size	link, .-link
 473              		.section	.text._link_r,"ax",%progbits
 474              		.align	2
 475              		.global	_link_r
ARM GAS  /tmp/ccuKfveS.s 			page 11


 476              		.code	16
 477              		.thumb_func
 478              		.type	_link_r, %function
 479              	_link_r:
 480              	.LFB11:
  96:syscall.c     **** 
  97:syscall.c     **** int _link_r(void *reent, const char *old, const char *new)
  98:syscall.c     **** {
 481              		.loc 1 98 0
 482              		.cfi_startproc
 483 0000 80B5     		push	{r7, lr}	@
 484              	.LCFI31:
 485              		.cfi_def_cfa_offset 8
 486              		.cfi_offset 7, -8
 487              		.cfi_offset 14, -4
 488 0002 84B0     		sub	sp, sp, #16	@,,
 489              	.LCFI32:
 490              		.cfi_def_cfa_offset 24
 491 0004 00AF     		add	r7, sp, #0	@,,
 492              	.LCFI33:
 493              		.cfi_def_cfa_register 7
 494 0006 F860     		str	r0, [r7, #12]	@ reent, reent
 495 0008 B960     		str	r1, [r7, #8]	@ old, old
 496 000a 7A60     		str	r2, [r7, #4]	@ new, new
  99:syscall.c     ****    return -1;
 497              		.loc 1 99 0
 498 000c 0123     		mov	r3, #1	@ tmp137,
 499 000e 5B42     		neg	r3, r3	@ D.4573, tmp137
 100:syscall.c     **** }
 500              		.loc 1 100 0
 501 0010 181C     		mov	r0, r3	@, <retval>
 502 0012 BD46     		mov	sp, r7	@,
 503 0014 04B0     		add	sp, sp, #16	@,,
 504              		@ sp needed for prologue	@
 505 0016 80BD     		pop	{r7, pc}
 506              		.cfi_endproc
 507              	.LFE11:
 508              		.size	_link_r, .-_link_r
 509              		.section	.text.lseek,"ax",%progbits
 510              		.align	2
 511              		.global	lseek
 512              		.code	16
 513              		.thumb_func
 514              		.type	lseek, %function
 515              	lseek:
 516              	.LFB12:
 101:syscall.c     **** 
 102:syscall.c     **** // lseek
 103:syscall.c     **** int lseek(int file, int ptr, int dir)
 104:syscall.c     **** {
 517              		.loc 1 104 0
 518              		.cfi_startproc
 519 0000 80B5     		push	{r7, lr}	@
 520              	.LCFI34:
 521              		.cfi_def_cfa_offset 8
 522              		.cfi_offset 7, -8
 523              		.cfi_offset 14, -4
ARM GAS  /tmp/ccuKfveS.s 			page 12


 524 0002 84B0     		sub	sp, sp, #16	@,,
 525              	.LCFI35:
 526              		.cfi_def_cfa_offset 24
 527 0004 00AF     		add	r7, sp, #0	@,,
 528              	.LCFI36:
 529              		.cfi_def_cfa_register 7
 530 0006 F860     		str	r0, [r7, #12]	@ file, file
 531 0008 B960     		str	r1, [r7, #8]	@ ptr, ptr
 532 000a 7A60     		str	r2, [r7, #4]	@ dir, dir
 105:syscall.c     ****    return ESPIPE;
 533              		.loc 1 105 0
 534 000c 1D23     		mov	r3, #29	@ D.4571,
 106:syscall.c     **** }
 535              		.loc 1 106 0
 536 000e 181C     		mov	r0, r3	@, <retval>
 537 0010 BD46     		mov	sp, r7	@,
 538 0012 04B0     		add	sp, sp, #16	@,,
 539              		@ sp needed for prologue	@
 540 0014 80BD     		pop	{r7, pc}
 541              		.cfi_endproc
 542              	.LFE12:
 543              		.size	lseek, .-lseek
 544 0016 C046     		.section	.text._lseek_r,"ax",%progbits
 545              		.align	2
 546              		.global	_lseek_r
 547              		.code	16
 548              		.thumb_func
 549              		.type	_lseek_r, %function
 550              	_lseek_r:
 551              	.LFB13:
 107:syscall.c     **** 
 108:syscall.c     **** int _lseek_r(void *reent, int fd, off_t pos, int whence)
 109:syscall.c     **** {
 552              		.loc 1 109 0
 553              		.cfi_startproc
 554 0000 80B5     		push	{r7, lr}	@
 555              	.LCFI37:
 556              		.cfi_def_cfa_offset 8
 557              		.cfi_offset 7, -8
 558              		.cfi_offset 14, -4
 559 0002 84B0     		sub	sp, sp, #16	@,,
 560              	.LCFI38:
 561              		.cfi_def_cfa_offset 24
 562 0004 00AF     		add	r7, sp, #0	@,,
 563              	.LCFI39:
 564              		.cfi_def_cfa_register 7
 565 0006 F860     		str	r0, [r7, #12]	@ reent, reent
 566 0008 B960     		str	r1, [r7, #8]	@ fd, fd
 567 000a 7A60     		str	r2, [r7, #4]	@ pos, pos
 568 000c 3B60     		str	r3, [r7]	@ whence, whence
 110:syscall.c     ****    serial_send('L');
 569              		.loc 1 110 0
 570 000e 4C20     		mov	r0, #76	@,
 571 0010 FFF7FEFF 		bl	serial_send	@
 111:syscall.c     ****    return ESPIPE;
 572              		.loc 1 111 0
 573 0014 1D23     		mov	r3, #29	@ D.4569,
ARM GAS  /tmp/ccuKfveS.s 			page 13


 112:syscall.c     **** }
 574              		.loc 1 112 0
 575 0016 181C     		mov	r0, r3	@, <retval>
 576 0018 BD46     		mov	sp, r7	@,
 577 001a 04B0     		add	sp, sp, #16	@,,
 578              		@ sp needed for prologue	@
 579 001c 80BD     		pop	{r7, pc}
 580              		.cfi_endproc
 581              	.LFE13:
 582              		.size	_lseek_r, .-_lseek_r
 583 001e C046     		.section	.text.open,"ax",%progbits
 584              		.align	2
 585              		.global	open
 586              		.code	16
 587              		.thumb_func
 588              		.type	open, %function
 589              	open:
 590              	.LFB14:
 113:syscall.c     **** 
 114:syscall.c     **** // open
 115:syscall.c     **** int open(const char *name, int flags, int mode)
 116:syscall.c     **** {
 591              		.loc 1 116 0
 592              		.cfi_startproc
 593 0000 80B5     		push	{r7, lr}	@
 594              	.LCFI40:
 595              		.cfi_def_cfa_offset 8
 596              		.cfi_offset 7, -8
 597              		.cfi_offset 14, -4
 598 0002 84B0     		sub	sp, sp, #16	@,,
 599              	.LCFI41:
 600              		.cfi_def_cfa_offset 24
 601 0004 00AF     		add	r7, sp, #0	@,,
 602              	.LCFI42:
 603              		.cfi_def_cfa_register 7
 604 0006 F860     		str	r0, [r7, #12]	@ name, name
 605 0008 B960     		str	r1, [r7, #8]	@ flags, flags
 606 000a 7A60     		str	r2, [r7, #4]	@ mode, mode
 117:syscall.c     ****    return 0;
 607              		.loc 1 117 0
 608 000c 0023     		mov	r3, #0	@ D.4567,
 118:syscall.c     **** }
 609              		.loc 1 118 0
 610 000e 181C     		mov	r0, r3	@, <retval>
 611 0010 BD46     		mov	sp, r7	@,
 612 0012 04B0     		add	sp, sp, #16	@,,
 613              		@ sp needed for prologue	@
 614 0014 80BD     		pop	{r7, pc}
 615              		.cfi_endproc
 616              	.LFE14:
 617              		.size	open, .-open
 618 0016 C046     		.section	.text._open_r,"ax",%progbits
 619              		.align	2
 620              		.global	_open_r
 621              		.code	16
 622              		.thumb_func
 623              		.type	_open_r, %function
ARM GAS  /tmp/ccuKfveS.s 			page 14


 624              	_open_r:
 625              	.LFB15:
 119:syscall.c     **** int _open_r(void *reent, const char *name, int flags, int mode)
 120:syscall.c     **** {
 626              		.loc 1 120 0
 627              		.cfi_startproc
 628 0000 80B5     		push	{r7, lr}	@
 629              	.LCFI43:
 630              		.cfi_def_cfa_offset 8
 631              		.cfi_offset 7, -8
 632              		.cfi_offset 14, -4
 633 0002 84B0     		sub	sp, sp, #16	@,,
 634              	.LCFI44:
 635              		.cfi_def_cfa_offset 24
 636 0004 00AF     		add	r7, sp, #0	@,,
 637              	.LCFI45:
 638              		.cfi_def_cfa_register 7
 639 0006 F860     		str	r0, [r7, #12]	@ reent, reent
 640 0008 B960     		str	r1, [r7, #8]	@ name, name
 641 000a 7A60     		str	r2, [r7, #4]	@ flags, flags
 642 000c 3B60     		str	r3, [r7]	@ mode, mode
 121:syscall.c     ****    return 0;
 643              		.loc 1 121 0
 644 000e 0023     		mov	r3, #0	@ D.4565,
 122:syscall.c     **** }
 645              		.loc 1 122 0
 646 0010 181C     		mov	r0, r3	@, <retval>
 647 0012 BD46     		mov	sp, r7	@,
 648 0014 04B0     		add	sp, sp, #16	@,,
 649              		@ sp needed for prologue	@
 650 0016 80BD     		pop	{r7, pc}
 651              		.cfi_endproc
 652              	.LFE15:
 653              		.size	_open_r, .-_open_r
 654              		.section	.text.read,"ax",%progbits
 655              		.align	2
 656              		.global	read
 657              		.code	16
 658              		.thumb_func
 659              		.type	read, %function
 660              	read:
 661              	.LFB16:
 123:syscall.c     **** 
 124:syscall.c     **** // read
 125:syscall.c     **** int read(int file, char *ptr, int len)
 126:syscall.c     **** {
 662              		.loc 1 126 0
 663              		.cfi_startproc
 664 0000 80B5     		push	{r7, lr}	@
 665              	.LCFI46:
 666              		.cfi_def_cfa_offset 8
 667              		.cfi_offset 7, -8
 668              		.cfi_offset 14, -4
 669 0002 84B0     		sub	sp, sp, #16	@,,
 670              	.LCFI47:
 671              		.cfi_def_cfa_offset 24
 672 0004 00AF     		add	r7, sp, #0	@,,
ARM GAS  /tmp/ccuKfveS.s 			page 15


 673              	.LCFI48:
 674              		.cfi_def_cfa_register 7
 675 0006 F860     		str	r0, [r7, #12]	@ file, file
 676 0008 B960     		str	r1, [r7, #8]	@ ptr, ptr
 677 000a 7A60     		str	r2, [r7, #4]	@ len, len
 127:syscall.c     ****    serial_send('R');
 678              		.loc 1 127 0
 679 000c 5220     		mov	r0, #82	@,
 680 000e FFF7FEFF 		bl	serial_send	@
 128:syscall.c     ****    return 0;
 681              		.loc 1 128 0
 682 0012 0023     		mov	r3, #0	@ D.4563,
 129:syscall.c     **** }
 683              		.loc 1 129 0
 684 0014 181C     		mov	r0, r3	@, <retval>
 685 0016 BD46     		mov	sp, r7	@,
 686 0018 04B0     		add	sp, sp, #16	@,,
 687              		@ sp needed for prologue	@
 688 001a 80BD     		pop	{r7, pc}
 689              		.cfi_endproc
 690              	.LFE16:
 691              		.size	read, .-read
 692              		.section	.text._read_r,"ax",%progbits
 693              		.align	2
 694              		.global	_read_r
 695              		.code	16
 696              		.thumb_func
 697              		.type	_read_r, %function
 698              	_read_r:
 699              	.LFB17:
 130:syscall.c     **** 
 131:syscall.c     **** long _read_r(void *reent, int fd, void *buf, size_t cnt)
 132:syscall.c     **** {
 700              		.loc 1 132 0
 701              		.cfi_startproc
 702 0000 80B5     		push	{r7, lr}	@
 703              	.LCFI49:
 704              		.cfi_def_cfa_offset 8
 705              		.cfi_offset 7, -8
 706              		.cfi_offset 14, -4
 707 0002 84B0     		sub	sp, sp, #16	@,,
 708              	.LCFI50:
 709              		.cfi_def_cfa_offset 24
 710 0004 00AF     		add	r7, sp, #0	@,,
 711              	.LCFI51:
 712              		.cfi_def_cfa_register 7
 713 0006 F860     		str	r0, [r7, #12]	@ reent, reent
 714 0008 B960     		str	r1, [r7, #8]	@ fd, fd
 715 000a 7A60     		str	r2, [r7, #4]	@ buf, buf
 716 000c 3B60     		str	r3, [r7]	@ cnt, cnt
 133:syscall.c     ****    return 0;
 717              		.loc 1 133 0
 718 000e 0023     		mov	r3, #0	@ D.4561,
 134:syscall.c     **** }
 719              		.loc 1 134 0
 720 0010 181C     		mov	r0, r3	@, <retval>
 721 0012 BD46     		mov	sp, r7	@,
ARM GAS  /tmp/ccuKfveS.s 			page 16


 722 0014 04B0     		add	sp, sp, #16	@,,
 723              		@ sp needed for prologue	@
 724 0016 80BD     		pop	{r7, pc}
 725              		.cfi_endproc
 726              	.LFE17:
 727              		.size	_read_r, .-_read_r
 728              		.section	.text.sbrk,"ax",%progbits
 729              		.align	2
 730              		.global	sbrk
 731              		.code	16
 732              		.thumb_func
 733              		.type	sbrk, %function
 734              	sbrk:
 735              	.LFB18:
 135:syscall.c     **** 
 136:syscall.c     **** // sbrk
 137:syscall.c     **** // Increase program data space.  As malloc and related functions depend on this, it is useful to ha
 138:syscall.c     **** // working implementation.  The following suffices for a standalone system.  It exploits the symbol
 139:syscall.c     **** // _end automatically defined by the GNU linker.
 140:syscall.c     **** 
 141:syscall.c     **** caddr_t sbrk(int incr)
 142:syscall.c     **** {
 736              		.loc 1 142 0
 737              		.cfi_startproc
 738 0000 80B5     		push	{r7, lr}	@
 739              	.LCFI52:
 740              		.cfi_def_cfa_offset 8
 741              		.cfi_offset 7, -8
 742              		.cfi_offset 14, -4
 743 0002 84B0     		sub	sp, sp, #16	@,,
 744              	.LCFI53:
 745              		.cfi_def_cfa_offset 24
 746 0004 00AF     		add	r7, sp, #0	@,,
 747              	.LCFI54:
 748              		.cfi_def_cfa_register 7
 749 0006 7860     		str	r0, [r7, #4]	@ incr, incr
 143:syscall.c     ****    extern char _end;       //Defined by the linker
 144:syscall.c     ****    static char *heap_end;
 145:syscall.c     ****    char *prev_heap_end;
 146:syscall.c     **** 
 147:syscall.c     ****    if (heap_end == 0)
 750              		.loc 1 147 0
 751 0008 0A4B     		ldr	r3, .L48	@ tmp140,
 752 000a 1B68     		ldr	r3, [r3]	@ heap_end.1, heap_end
 753 000c 002B     		cmp	r3, #0	@ heap_end.1,
 754 000e 02D1     		bne	.L46	@,
 148:syscall.c     ****    {
 149:syscall.c     ****       heap_end = &_end;
 755              		.loc 1 149 0
 756 0010 084B     		ldr	r3, .L48	@ tmp141,
 757 0012 094A     		ldr	r2, .L48+4	@ tmp142,
 758 0014 1A60     		str	r2, [r3]	@ tmp142, heap_end
 759              	.L46:
 150:syscall.c     ****    }
 151:syscall.c     ****    prev_heap_end = heap_end;
 760              		.loc 1 151 0
 761 0016 074B     		ldr	r3, .L48	@ tmp143,
ARM GAS  /tmp/ccuKfveS.s 			page 17


 762 0018 1B68     		ldr	r3, [r3]	@ tmp144, heap_end
 763 001a FB60     		str	r3, [r7, #12]	@ tmp144, prev_heap_end
 152:syscall.c     **** /*
 153:syscall.c     ****    if (heap_end + incr > _stack_ptr)
 154:syscall.c     ****    {
 155:syscall.c     ****       write (1, "Heap and stack collision\n", 25);
 156:syscall.c     ****       abort();
 157:syscall.c     ****    }
 158:syscall.c     **** */
 159:syscall.c     **** 
 160:syscall.c     ****    heap_end += incr;
 764              		.loc 1 160 0
 765 001c 054B     		ldr	r3, .L48	@ tmp145,
 766 001e 1A68     		ldr	r2, [r3]	@ heap_end.2, heap_end
 767 0020 7B68     		ldr	r3, [r7, #4]	@ incr.3, incr
 768 0022 D218     		add	r2, r2, r3	@ heap_end.4, heap_end.2, incr.3
 769 0024 034B     		ldr	r3, .L48	@ tmp146,
 770 0026 1A60     		str	r2, [r3]	@ heap_end.4, heap_end
 161:syscall.c     ****    return (caddr_t) prev_heap_end;
 771              		.loc 1 161 0
 772 0028 FB68     		ldr	r3, [r7, #12]	@ D.4559, prev_heap_end
 162:syscall.c     **** }
 773              		.loc 1 162 0
 774 002a 181C     		mov	r0, r3	@, <retval>
 775 002c BD46     		mov	sp, r7	@,
 776 002e 04B0     		add	sp, sp, #16	@,,
 777              		@ sp needed for prologue	@
 778 0030 80BD     		pop	{r7, pc}
 779              	.L49:
 780 0032 C046     		.align	2
 781              	.L48:
 782 0034 00000000 		.word	heap_end.4468
 783 0038 00000000 		.word	_end
 784              		.cfi_endproc
 785              	.LFE18:
 786              		.size	sbrk, .-sbrk
 787              		.section	.text._sbrk_r,"ax",%progbits
 788              		.align	2
 789              		.global	_sbrk_r
 790              		.code	16
 791              		.thumb_func
 792              		.type	_sbrk_r, %function
 793              	_sbrk_r:
 794              	.LFB19:
 163:syscall.c     **** 
 164:syscall.c     **** char *_sbrk_r(void *reent, size_t incr)
 165:syscall.c     **** {
 795              		.loc 1 165 0
 796              		.cfi_startproc
 797 0000 80B5     		push	{r7, lr}	@
 798              	.LCFI55:
 799              		.cfi_def_cfa_offset 8
 800              		.cfi_offset 7, -8
 801              		.cfi_offset 14, -4
 802 0002 82B0     		sub	sp, sp, #8	@,,
 803              	.LCFI56:
 804              		.cfi_def_cfa_offset 16
ARM GAS  /tmp/ccuKfveS.s 			page 18


 805 0004 00AF     		add	r7, sp, #0	@,,
 806              	.LCFI57:
 807              		.cfi_def_cfa_register 7
 808 0006 7860     		str	r0, [r7, #4]	@ reent, reent
 809 0008 3960     		str	r1, [r7]	@ incr, incr
 166:syscall.c     ****    return 0;
 810              		.loc 1 166 0
 811 000a 0023     		mov	r3, #0	@ D.4551,
 167:syscall.c     **** }
 812              		.loc 1 167 0
 813 000c 181C     		mov	r0, r3	@, <retval>
 814 000e BD46     		mov	sp, r7	@,
 815 0010 02B0     		add	sp, sp, #8	@,,
 816              		@ sp needed for prologue	@
 817 0012 80BD     		pop	{r7, pc}
 818              		.cfi_endproc
 819              	.LFE19:
 820              		.size	_sbrk_r, .-_sbrk_r
 821              		.section	.text.stat,"ax",%progbits
 822              		.align	2
 823              		.global	stat
 824              		.code	16
 825              		.thumb_func
 826              		.type	stat, %function
 827              	stat:
 828              	.LFB20:
 168:syscall.c     **** 
 169:syscall.c     **** #include <sys/stat.h>
 170:syscall.c     **** // stat
 171:syscall.c     **** int stat(const char *file, struct stat *st)
 172:syscall.c     **** {
 829              		.loc 1 172 0
 830              		.cfi_startproc
 831 0000 80B5     		push	{r7, lr}	@
 832              	.LCFI58:
 833              		.cfi_def_cfa_offset 8
 834              		.cfi_offset 7, -8
 835              		.cfi_offset 14, -4
 836 0002 82B0     		sub	sp, sp, #8	@,,
 837              	.LCFI59:
 838              		.cfi_def_cfa_offset 16
 839 0004 00AF     		add	r7, sp, #0	@,,
 840              	.LCFI60:
 841              		.cfi_def_cfa_register 7
 842 0006 7860     		str	r0, [r7, #4]	@ file, file
 843 0008 3960     		str	r1, [r7]	@ st, st
 173:syscall.c     ****    st->st_mode = S_IFCHR;
 844              		.loc 1 173 0
 845 000a 3B68     		ldr	r3, [r7]	@ tmp136, st
 846 000c 8022     		mov	r2, #128	@ tmp139,
 847 000e 9201     		lsl	r2, r2, #6	@ tmp137, tmp139,
 848 0010 5A60     		str	r2, [r3, #4]	@ tmp137, st_1(D)->st_mode
 174:syscall.c     ****    return 0;
 849              		.loc 1 174 0
 850 0012 0023     		mov	r3, #0	@ D.4549,
 175:syscall.c     **** }
 851              		.loc 1 175 0
ARM GAS  /tmp/ccuKfveS.s 			page 19


 852 0014 181C     		mov	r0, r3	@, <retval>
 853 0016 BD46     		mov	sp, r7	@,
 854 0018 02B0     		add	sp, sp, #8	@,,
 855              		@ sp needed for prologue	@
 856 001a 80BD     		pop	{r7, pc}
 857              		.cfi_endproc
 858              	.LFE20:
 859              		.size	stat, .-stat
 860              		.section	.text._stat_r,"ax",%progbits
 861              		.align	2
 862              		.global	_stat_r
 863              		.code	16
 864              		.thumb_func
 865              		.type	_stat_r, %function
 866              	_stat_r:
 867              	.LFB21:
 176:syscall.c     **** 
 177:syscall.c     **** int _stat_r(void *reent, const char *file, struct stat *pstat)
 178:syscall.c     **** {
 868              		.loc 1 178 0
 869              		.cfi_startproc
 870 0000 80B5     		push	{r7, lr}	@
 871              	.LCFI61:
 872              		.cfi_def_cfa_offset 8
 873              		.cfi_offset 7, -8
 874              		.cfi_offset 14, -4
 875 0002 84B0     		sub	sp, sp, #16	@,,
 876              	.LCFI62:
 877              		.cfi_def_cfa_offset 24
 878 0004 00AF     		add	r7, sp, #0	@,,
 879              	.LCFI63:
 880              		.cfi_def_cfa_register 7
 881 0006 F860     		str	r0, [r7, #12]	@ reent, reent
 882 0008 B960     		str	r1, [r7, #8]	@ file, file
 883 000a 7A60     		str	r2, [r7, #4]	@ pstat, pstat
 179:syscall.c     ****    return 0;
 884              		.loc 1 179 0
 885 000c 0023     		mov	r3, #0	@ D.4547,
 180:syscall.c     **** }
 886              		.loc 1 180 0
 887 000e 181C     		mov	r0, r3	@, <retval>
 888 0010 BD46     		mov	sp, r7	@,
 889 0012 04B0     		add	sp, sp, #16	@,,
 890              		@ sp needed for prologue	@
 891 0014 80BD     		pop	{r7, pc}
 892              		.cfi_endproc
 893              	.LFE21:
 894              		.size	_stat_r, .-_stat_r
 895 0016 C046     		.section	.text._fstat_r,"ax",%progbits
 896              		.align	2
 897              		.global	_fstat_r
 898              		.code	16
 899              		.thumb_func
 900              		.type	_fstat_r, %function
 901              	_fstat_r:
 902              	.LFB22:
 181:syscall.c     **** int _fstat_r(void *reent, int fd, struct stat *pstat)
ARM GAS  /tmp/ccuKfveS.s 			page 20


 182:syscall.c     **** {
 903              		.loc 1 182 0
 904              		.cfi_startproc
 905 0000 80B5     		push	{r7, lr}	@
 906              	.LCFI64:
 907              		.cfi_def_cfa_offset 8
 908              		.cfi_offset 7, -8
 909              		.cfi_offset 14, -4
 910 0002 84B0     		sub	sp, sp, #16	@,,
 911              	.LCFI65:
 912              		.cfi_def_cfa_offset 24
 913 0004 00AF     		add	r7, sp, #0	@,,
 914              	.LCFI66:
 915              		.cfi_def_cfa_register 7
 916 0006 F860     		str	r0, [r7, #12]	@ reent, reent
 917 0008 B960     		str	r1, [r7, #8]	@ fd, fd
 918 000a 7A60     		str	r2, [r7, #4]	@ pstat, pstat
 183:syscall.c     ****    return 0;
 919              		.loc 1 183 0
 920 000c 0023     		mov	r3, #0	@ D.4545,
 184:syscall.c     **** }
 921              		.loc 1 184 0
 922 000e 181C     		mov	r0, r3	@, <retval>
 923 0010 BD46     		mov	sp, r7	@,
 924 0012 04B0     		add	sp, sp, #16	@,,
 925              		@ sp needed for prologue	@
 926 0014 80BD     		pop	{r7, pc}
 927              		.cfi_endproc
 928              	.LFE22:
 929              		.size	_fstat_r, .-_fstat_r
 930 0016 C046     		.section	.text.times,"ax",%progbits
 931              		.align	2
 932              		.global	times
 933              		.code	16
 934              		.thumb_func
 935              		.type	times, %function
 936              	times:
 937              	.LFB23:
 185:syscall.c     **** 
 186:syscall.c     **** // times
 187:syscall.c     **** int times(struct tms *buf)
 188:syscall.c     **** {
 938              		.loc 1 188 0
 939              		.cfi_startproc
 940 0000 80B5     		push	{r7, lr}	@
 941              	.LCFI67:
 942              		.cfi_def_cfa_offset 8
 943              		.cfi_offset 7, -8
 944              		.cfi_offset 14, -4
 945 0002 82B0     		sub	sp, sp, #8	@,,
 946              	.LCFI68:
 947              		.cfi_def_cfa_offset 16
 948 0004 00AF     		add	r7, sp, #0	@,,
 949              	.LCFI69:
 950              		.cfi_def_cfa_register 7
 951 0006 7860     		str	r0, [r7, #4]	@ buf, buf
 189:syscall.c     ****    return -1;
ARM GAS  /tmp/ccuKfveS.s 			page 21


 952              		.loc 1 189 0
 953 0008 0123     		mov	r3, #1	@ tmp137,
 954 000a 5B42     		neg	r3, r3	@ D.4543, tmp137
 190:syscall.c     **** }
 955              		.loc 1 190 0
 956 000c 181C     		mov	r0, r3	@, <retval>
 957 000e BD46     		mov	sp, r7	@,
 958 0010 02B0     		add	sp, sp, #8	@,,
 959              		@ sp needed for prologue	@
 960 0012 80BD     		pop	{r7, pc}
 961              		.cfi_endproc
 962              	.LFE23:
 963              		.size	times, .-times
 964              		.section	.text.unlink,"ax",%progbits
 965              		.align	2
 966              		.global	unlink
 967              		.code	16
 968              		.thumb_func
 969              		.type	unlink, %function
 970              	unlink:
 971              	.LFB24:
 191:syscall.c     **** 
 192:syscall.c     **** // unlink
 193:syscall.c     **** #include <errno.h>
 194:syscall.c     **** #undef errno
 195:syscall.c     **** extern int errno;
 196:syscall.c     **** int unlink(char *name)
 197:syscall.c     **** {
 972              		.loc 1 197 0
 973              		.cfi_startproc
 974 0000 80B5     		push	{r7, lr}	@
 975              	.LCFI70:
 976              		.cfi_def_cfa_offset 8
 977              		.cfi_offset 7, -8
 978              		.cfi_offset 14, -4
 979 0002 82B0     		sub	sp, sp, #8	@,,
 980              	.LCFI71:
 981              		.cfi_def_cfa_offset 16
 982 0004 00AF     		add	r7, sp, #0	@,,
 983              	.LCFI72:
 984              		.cfi_def_cfa_register 7
 985 0006 7860     		str	r0, [r7, #4]	@ name, name
 198:syscall.c     ****    errno = ENOENT;
 986              		.loc 1 198 0
 987 0008 044B     		ldr	r3, .L62	@ tmp136,
 988 000a 0222     		mov	r2, #2	@ tmp137,
 989 000c 1A60     		str	r2, [r3]	@ tmp137, errno
 199:syscall.c     ****    return -1;
 990              		.loc 1 199 0
 991 000e 0123     		mov	r3, #1	@ tmp139,
 992 0010 5B42     		neg	r3, r3	@ D.4541, tmp139
 200:syscall.c     **** }
 993              		.loc 1 200 0
 994 0012 181C     		mov	r0, r3	@, <retval>
 995 0014 BD46     		mov	sp, r7	@,
 996 0016 02B0     		add	sp, sp, #8	@,,
 997              		@ sp needed for prologue	@
ARM GAS  /tmp/ccuKfveS.s 			page 22


 998 0018 80BD     		pop	{r7, pc}
 999              	.L63:
 1000 001a C046     		.align	2
 1001              	.L62:
 1002 001c 00000000 		.word	errno
 1003              		.cfi_endproc
 1004              	.LFE24:
 1005              		.size	unlink, .-unlink
 1006              		.section	.text._unlink_r,"ax",%progbits
 1007              		.align	2
 1008              		.global	_unlink_r
 1009              		.code	16
 1010              		.thumb_func
 1011              		.type	_unlink_r, %function
 1012              	_unlink_r:
 1013              	.LFB25:
 201:syscall.c     **** 
 202:syscall.c     **** int _unlink_r(void *reent, const char *file)
 203:syscall.c     **** {
 1014              		.loc 1 203 0
 1015              		.cfi_startproc
 1016 0000 80B5     		push	{r7, lr}	@
 1017              	.LCFI73:
 1018              		.cfi_def_cfa_offset 8
 1019              		.cfi_offset 7, -8
 1020              		.cfi_offset 14, -4
 1021 0002 82B0     		sub	sp, sp, #8	@,,
 1022              	.LCFI74:
 1023              		.cfi_def_cfa_offset 16
 1024 0004 00AF     		add	r7, sp, #0	@,,
 1025              	.LCFI75:
 1026              		.cfi_def_cfa_register 7
 1027 0006 7860     		str	r0, [r7, #4]	@ reent, reent
 1028 0008 3960     		str	r1, [r7]	@ file, file
 204:syscall.c     ****    return -1;
 1029              		.loc 1 204 0
 1030 000a 0123     		mov	r3, #1	@ tmp137,
 1031 000c 5B42     		neg	r3, r3	@ D.4539, tmp137
 205:syscall.c     **** }
 1032              		.loc 1 205 0
 1033 000e 181C     		mov	r0, r3	@, <retval>
 1034 0010 BD46     		mov	sp, r7	@,
 1035 0012 02B0     		add	sp, sp, #8	@,,
 1036              		@ sp needed for prologue	@
 1037 0014 80BD     		pop	{r7, pc}
 1038              		.cfi_endproc
 1039              	.LFE25:
 1040              		.size	_unlink_r, .-_unlink_r
 1041 0016 C046     		.section	.text.wait,"ax",%progbits
 1042              		.align	2
 1043              		.global	wait
 1044              		.code	16
 1045              		.thumb_func
 1046              		.type	wait, %function
 1047              	wait:
 1048              	.LFB26:
 206:syscall.c     **** 
ARM GAS  /tmp/ccuKfveS.s 			page 23


 207:syscall.c     **** // wait
 208:syscall.c     **** #include <errno.h>
 209:syscall.c     **** #undef errno
 210:syscall.c     **** extern int errno;
 211:syscall.c     **** int wait(int *status)
 212:syscall.c     **** {
 1049              		.loc 1 212 0
 1050              		.cfi_startproc
 1051 0000 80B5     		push	{r7, lr}	@
 1052              	.LCFI76:
 1053              		.cfi_def_cfa_offset 8
 1054              		.cfi_offset 7, -8
 1055              		.cfi_offset 14, -4
 1056 0002 82B0     		sub	sp, sp, #8	@,,
 1057              	.LCFI77:
 1058              		.cfi_def_cfa_offset 16
 1059 0004 00AF     		add	r7, sp, #0	@,,
 1060              	.LCFI78:
 1061              		.cfi_def_cfa_register 7
 1062 0006 7860     		str	r0, [r7, #4]	@ status, status
 213:syscall.c     ****    errno = ECHILD;
 1063              		.loc 1 213 0
 1064 0008 044B     		ldr	r3, .L68	@ tmp136,
 1065 000a 0A22     		mov	r2, #10	@ tmp137,
 1066 000c 1A60     		str	r2, [r3]	@ tmp137, errno
 214:syscall.c     ****    return -1;
 1067              		.loc 1 214 0
 1068 000e 0123     		mov	r3, #1	@ tmp139,
 1069 0010 5B42     		neg	r3, r3	@ D.4537, tmp139
 215:syscall.c     **** }
 1070              		.loc 1 215 0
 1071 0012 181C     		mov	r0, r3	@, <retval>
 1072 0014 BD46     		mov	sp, r7	@,
 1073 0016 02B0     		add	sp, sp, #8	@,,
 1074              		@ sp needed for prologue	@
 1075 0018 80BD     		pop	{r7, pc}
 1076              	.L69:
 1077 001a C046     		.align	2
 1078              	.L68:
 1079 001c 00000000 		.word	errno
 1080              		.cfi_endproc
 1081              	.LFE26:
 1082              		.size	wait, .-wait
 1083              		.section	.text._wait_r,"ax",%progbits
 1084              		.align	2
 1085              		.global	_wait_r
 1086              		.code	16
 1087              		.thumb_func
 1088              		.type	_wait_r, %function
 1089              	_wait_r:
 1090              	.LFB27:
 216:syscall.c     **** 
 217:syscall.c     **** int _wait_r(void *reent, int *status)
 218:syscall.c     **** {
 1091              		.loc 1 218 0
 1092              		.cfi_startproc
 1093 0000 80B5     		push	{r7, lr}	@
ARM GAS  /tmp/ccuKfveS.s 			page 24


 1094              	.LCFI79:
 1095              		.cfi_def_cfa_offset 8
 1096              		.cfi_offset 7, -8
 1097              		.cfi_offset 14, -4
 1098 0002 82B0     		sub	sp, sp, #8	@,,
 1099              	.LCFI80:
 1100              		.cfi_def_cfa_offset 16
 1101 0004 00AF     		add	r7, sp, #0	@,,
 1102              	.LCFI81:
 1103              		.cfi_def_cfa_register 7
 1104 0006 7860     		str	r0, [r7, #4]	@ reent, reent
 1105 0008 3960     		str	r1, [r7]	@ status, status
 219:syscall.c     ****    return -1;
 1106              		.loc 1 219 0
 1107 000a 0123     		mov	r3, #1	@ tmp137,
 1108 000c 5B42     		neg	r3, r3	@ D.4535, tmp137
 220:syscall.c     **** }
 1109              		.loc 1 220 0
 1110 000e 181C     		mov	r0, r3	@, <retval>
 1111 0010 BD46     		mov	sp, r7	@,
 1112 0012 02B0     		add	sp, sp, #8	@,,
 1113              		@ sp needed for prologue	@
 1114 0014 80BD     		pop	{r7, pc}
 1115              		.cfi_endproc
 1116              	.LFE27:
 1117              		.size	_wait_r, .-_wait_r
 1118 0016 C046     		.section	.text.write,"ax",%progbits
 1119              		.align	2
 1120              		.global	write
 1121              		.code	16
 1122              		.thumb_func
 1123              		.type	write, %function
 1124              	write:
 1125              	.LFB28:
 221:syscall.c     **** 
 222:syscall.c     **** // write
 223:syscall.c     **** // Write to a file.  libc subroutines will use this system routine for output to all files, includi
 224:syscall.c     **** // so if you need to generate any output, for example to a serial port for debugging, you should ma
 225:syscall.c     **** // minimal write capable of doing this.  The following minimal implementation is an incomplete exam
 226:syscall.c     **** // relies on a outbyte subroutine (not show, typically you must wrte the in assembler from examples
 227:syscall.c     **** // by your hardware manufacturer) to actually perform the output
 228:syscall.c     **** int write(int file, char *ptr, int len)
 229:syscall.c     **** {
 1126              		.loc 1 229 0
 1127              		.cfi_startproc
 1128 0000 80B5     		push	{r7, lr}	@
 1129              	.LCFI82:
 1130              		.cfi_def_cfa_offset 8
 1131              		.cfi_offset 7, -8
 1132              		.cfi_offset 14, -4
 1133 0002 86B0     		sub	sp, sp, #24	@,,
 1134              	.LCFI83:
 1135              		.cfi_def_cfa_offset 32
 1136 0004 00AF     		add	r7, sp, #0	@,,
 1137              	.LCFI84:
 1138              		.cfi_def_cfa_register 7
 1139 0006 F860     		str	r0, [r7, #12]	@ file, file
ARM GAS  /tmp/ccuKfveS.s 			page 25


 1140 0008 B960     		str	r1, [r7, #8]	@ ptr, ptr
 1141 000a 7A60     		str	r2, [r7, #4]	@ len, len
 230:syscall.c     ****    int todo;
 231:syscall.c     **** 
 232:syscall.c     ****    for (todo = 0; todo < len; todo++)
 1142              		.loc 1 232 0
 1143 000c 0023     		mov	r3, #0	@ tmp138,
 1144 000e 7B61     		str	r3, [r7, #20]	@ tmp138, todo
 1145 0010 0AE0     		b	.L73	@
 1146              	.L74:
 1147              	.LBB2:
 233:syscall.c     ****    {
 234:syscall.c     ****       // outbyte(*ptr++);
 235:syscall.c     ****       serial_send(*ptr++);
 1148              		.loc 1 235 0 discriminator 2
 1149 0012 BB68     		ldr	r3, [r7, #8]	@ tmp139, ptr
 1150 0014 1B78     		ldrb	r3, [r3]	@ D.4531, *ptr_1
 1151 0016 BA68     		ldr	r2, [r7, #8]	@ tmp141, ptr
 1152 0018 0132     		add	r2, r2, #1	@ tmp140,
 1153 001a BA60     		str	r2, [r7, #8]	@ tmp140, ptr
 1154 001c 181C     		mov	r0, r3	@, D.4532
 1155 001e FFF7FEFF 		bl	serial_send	@
 1156              	.LBE2:
 232:syscall.c     ****    for (todo = 0; todo < len; todo++)
 1157              		.loc 1 232 0 discriminator 2
 1158 0022 7B69     		ldr	r3, [r7, #20]	@ tmp143, todo
 1159 0024 0133     		add	r3, r3, #1	@ tmp142,
 1160 0026 7B61     		str	r3, [r7, #20]	@ tmp142, todo
 1161              	.L73:
 232:syscall.c     ****    for (todo = 0; todo < len; todo++)
 1162              		.loc 1 232 0 is_stmt 0 discriminator 1
 1163 0028 7A69     		ldr	r2, [r7, #20]	@ tmp144, todo
 1164 002a 7B68     		ldr	r3, [r7, #4]	@ tmp145, len
 1165 002c 9A42     		cmp	r2, r3	@ tmp144, tmp145
 1166 002e F0DB     		blt	.L74	@,
 236:syscall.c     ****    }
 237:syscall.c     ****    return len;
 1167              		.loc 1 237 0 is_stmt 1
 1168 0030 7B68     		ldr	r3, [r7, #4]	@ D.4533, len
 238:syscall.c     **** }
 1169              		.loc 1 238 0
 1170 0032 181C     		mov	r0, r3	@, <retval>
 1171 0034 BD46     		mov	sp, r7	@,
 1172 0036 06B0     		add	sp, sp, #24	@,,
 1173              		@ sp needed for prologue	@
 1174 0038 80BD     		pop	{r7, pc}
 1175              		.cfi_endproc
 1176              	.LFE28:
 1177              		.size	write, .-write
 1178 003a C046     		.section	.text._write_r,"ax",%progbits
 1179              		.align	2
 1180              		.global	_write_r
 1181              		.code	16
 1182              		.thumb_func
 1183              		.type	_write_r, %function
 1184              	_write_r:
 1185              	.LFB29:
ARM GAS  /tmp/ccuKfveS.s 			page 26


 239:syscall.c     **** 
 240:syscall.c     **** long _write_r(void *reent, int fd, const void *buf, size_t cnt)
 241:syscall.c     **** {
 1186              		.loc 1 241 0
 1187              		.cfi_startproc
 1188 0000 80B5     		push	{r7, lr}	@
 1189              	.LCFI85:
 1190              		.cfi_def_cfa_offset 8
 1191              		.cfi_offset 7, -8
 1192              		.cfi_offset 14, -4
 1193 0002 84B0     		sub	sp, sp, #16	@,,
 1194              	.LCFI86:
 1195              		.cfi_def_cfa_offset 24
 1196 0004 00AF     		add	r7, sp, #0	@,,
 1197              	.LCFI87:
 1198              		.cfi_def_cfa_register 7
 1199 0006 F860     		str	r0, [r7, #12]	@ reent, reent
 1200 0008 B960     		str	r1, [r7, #8]	@ fd, fd
 1201 000a 7A60     		str	r2, [r7, #4]	@ buf, buf
 1202 000c 3B60     		str	r3, [r7]	@ cnt, cnt
 242:syscall.c     ****    return write(fd, buf, cnt);
 1203              		.loc 1 242 0
 1204 000e 3B68     		ldr	r3, [r7]	@ cnt.0, cnt
 1205 0010 B968     		ldr	r1, [r7, #8]	@ tmp137, fd
 1206 0012 7A68     		ldr	r2, [r7, #4]	@ tmp138, buf
 1207 0014 081C     		mov	r0, r1	@, tmp137
 1208 0016 111C     		mov	r1, r2	@, tmp138
 1209 0018 1A1C     		mov	r2, r3	@, cnt.0
 1210 001a FFF7FEFF 		bl	write	@
 1211 001e 031C     		mov	r3, r0	@ D.4528,
 243:syscall.c     **** }
 1212              		.loc 1 243 0
 1213 0020 181C     		mov	r0, r3	@, <retval>
 1214 0022 BD46     		mov	sp, r7	@,
 1215 0024 04B0     		add	sp, sp, #16	@,,
 1216              		@ sp needed for prologue	@
 1217 0026 80BD     		pop	{r7, pc}
 1218              		.cfi_endproc
 1219              	.LFE29:
 1220              		.size	_write_r, .-_write_r
 1221              		.section	.bss.heap_end.4468,"aw",%nobits
 1222              		.align	2
 1223              		.type	heap_end.4468, %object
 1224              		.size	heap_end.4468, 4
 1225              	heap_end.4468:
 1226 0000 00000000 		.space	4
 1227              		.text
 1228              	.Letext0:
 1229              		.file 2 "/opt/gcc-arm-none-eabi-4_7-2013q2/bin/../lib/gcc/arm-none-eabi/4.7.4/../../../../arm-none
 1230              		.file 3 "/opt/gcc-arm-none-eabi-4_7-2013q2/bin/../lib/gcc/arm-none-eabi/4.7.4/include/stddef.h"
 1231              		.file 4 "/opt/gcc-arm-none-eabi-4_7-2013q2/bin/../lib/gcc/arm-none-eabi/4.7.4/../../../../arm-none
 1232              		.file 5 "/opt/gcc-arm-none-eabi-4_7-2013q2/bin/../lib/gcc/arm-none-eabi/4.7.4/../../../../arm-none
 1233              		.section	.debug_info,"",%progbits
 1234              	.Ldebug_info0:
 1235 0000 660A0000 		.4byte	0xa66
 1236 0004 0200     		.2byte	0x2
 1237 0006 00000000 		.4byte	.Ldebug_abbrev0
ARM GAS  /tmp/ccuKfveS.s 			page 27


 1238 000a 04       		.byte	0x4
 1239 000b 01       		.uleb128 0x1
 1240 000c A8040000 		.4byte	.LASF90
 1241 0010 01       		.byte	0x1
 1242 0011 A9340000 		.4byte	.LASF91
 1243 0015 1F2D0000 		.4byte	.LASF92
 1244 0019 00000000 		.4byte	.Ldebug_ranges0+0
 1245 001d 00000000 		.4byte	0
 1246 0021 00000000 		.4byte	0
 1247 0025 00000000 		.4byte	.Ldebug_line0
 1248 0029 00000000 		.4byte	.Ldebug_macro0
 1249 002d 02       		.uleb128 0x2
 1250 002e 04       		.byte	0x4
 1251 002f 05       		.byte	0x5
 1252 0030 696E7400 		.ascii	"int\000"
 1253 0034 03       		.uleb128 0x3
 1254 0035 01       		.byte	0x1
 1255 0036 06       		.byte	0x6
 1256 0037 570E0000 		.4byte	.LASF0
 1257 003b 03       		.uleb128 0x3
 1258 003c 01       		.byte	0x1
 1259 003d 08       		.byte	0x8
 1260 003e 4F000000 		.4byte	.LASF1
 1261 0042 03       		.uleb128 0x3
 1262 0043 02       		.byte	0x2
 1263 0044 05       		.byte	0x5
 1264 0045 9A3B0000 		.4byte	.LASF2
 1265 0049 03       		.uleb128 0x3
 1266 004a 02       		.byte	0x2
 1267 004b 07       		.byte	0x7
 1268 004c E71A0000 		.4byte	.LASF3
 1269 0050 03       		.uleb128 0x3
 1270 0051 04       		.byte	0x4
 1271 0052 07       		.byte	0x7
 1272 0053 B1280000 		.4byte	.LASF4
 1273 0057 03       		.uleb128 0x3
 1274 0058 08       		.byte	0x8
 1275 0059 05       		.byte	0x5
 1276 005a 85240000 		.4byte	.LASF5
 1277 005e 03       		.uleb128 0x3
 1278 005f 08       		.byte	0x8
 1279 0060 07       		.byte	0x7
 1280 0061 D4310000 		.4byte	.LASF6
 1281 0065 04       		.uleb128 0x4
 1282 0066 31410000 		.4byte	.LASF8
 1283 006a 02       		.byte	0x2
 1284 006b 10       		.byte	0x10
 1285 006c 70000000 		.4byte	0x70
 1286 0070 03       		.uleb128 0x3
 1287 0071 04       		.byte	0x4
 1288 0072 05       		.byte	0x5
 1289 0073 6B0A0000 		.4byte	.LASF7
 1290 0077 04       		.uleb128 0x4
 1291 0078 6F1A0000 		.4byte	.LASF9
 1292 007c 02       		.byte	0x2
 1293 007d 18       		.byte	0x18
 1294 007e 42000000 		.4byte	0x42
ARM GAS  /tmp/ccuKfveS.s 			page 28


 1295 0082 04       		.uleb128 0x4
 1296 0083 2D3F0000 		.4byte	.LASF10
 1297 0087 02       		.byte	0x2
 1298 0088 1D       		.byte	0x1d
 1299 0089 49000000 		.4byte	0x49
 1300 008d 04       		.uleb128 0x4
 1301 008e 173F0000 		.4byte	.LASF11
 1302 0092 02       		.byte	0x2
 1303 0093 20       		.byte	0x20
 1304 0094 49000000 		.4byte	0x49
 1305 0098 03       		.uleb128 0x3
 1306 0099 04       		.byte	0x4
 1307 009a 07       		.byte	0x7
 1308 009b 741C0000 		.4byte	.LASF12
 1309 009f 05       		.uleb128 0x5
 1310 00a0 04       		.byte	0x4
 1311 00a1 03       		.uleb128 0x3
 1312 00a2 04       		.byte	0x4
 1313 00a3 07       		.byte	0x7
 1314 00a4 3B1D0000 		.4byte	.LASF13
 1315 00a8 06       		.uleb128 0x6
 1316 00a9 04       		.byte	0x4
 1317 00aa AE000000 		.4byte	0xae
 1318 00ae 03       		.uleb128 0x3
 1319 00af 01       		.byte	0x1
 1320 00b0 08       		.byte	0x8
 1321 00b1 FE120000 		.4byte	.LASF14
 1322 00b5 06       		.uleb128 0x6
 1323 00b6 04       		.byte	0x4
 1324 00b7 BB000000 		.4byte	0xbb
 1325 00bb 07       		.uleb128 0x7
 1326 00bc AE000000 		.4byte	0xae
 1327 00c0 04       		.uleb128 0x4
 1328 00c1 D1000000 		.4byte	.LASF15
 1329 00c5 03       		.byte	0x3
 1330 00c6 D5       		.byte	0xd5
 1331 00c7 50000000 		.4byte	0x50
 1332 00cb 04       		.uleb128 0x4
 1333 00cc 9C040000 		.4byte	.LASF16
 1334 00d0 04       		.byte	0x4
 1335 00d1 6D       		.byte	0x6d
 1336 00d2 70000000 		.4byte	0x70
 1337 00d6 04       		.uleb128 0x4
 1338 00d7 33290000 		.4byte	.LASF17
 1339 00db 04       		.byte	0x4
 1340 00dc 7E       		.byte	0x7e
 1341 00dd A8000000 		.4byte	0xa8
 1342 00e1 04       		.uleb128 0x4
 1343 00e2 A91C0000 		.4byte	.LASF18
 1344 00e6 04       		.byte	0x4
 1345 00e7 85       		.byte	0x85
 1346 00e8 49000000 		.4byte	0x49
 1347 00ec 04       		.uleb128 0x4
 1348 00ed 022E0000 		.4byte	.LASF19
 1349 00f1 04       		.byte	0x4
 1350 00f2 A2       		.byte	0xa2
 1351 00f3 65000000 		.4byte	0x65
ARM GAS  /tmp/ccuKfveS.s 			page 29


 1352 00f7 04       		.uleb128 0x4
 1353 00f8 00040000 		.4byte	.LASF20
 1354 00fc 04       		.byte	0x4
 1355 00fd A3       		.byte	0xa3
 1356 00fe 77000000 		.4byte	0x77
 1357 0102 04       		.uleb128 0x4
 1358 0103 AE080000 		.4byte	.LASF21
 1359 0107 04       		.byte	0x4
 1360 0108 A4       		.byte	0xa4
 1361 0109 82000000 		.4byte	0x82
 1362 010d 04       		.uleb128 0x4
 1363 010e 1F3F0000 		.4byte	.LASF22
 1364 0112 04       		.byte	0x4
 1365 0113 A5       		.byte	0xa5
 1366 0114 8D000000 		.4byte	0x8d
 1367 0118 04       		.uleb128 0x4
 1368 0119 082E0000 		.4byte	.LASF23
 1369 011d 04       		.byte	0x4
 1370 011e C3       		.byte	0xc3
 1371 011f 50000000 		.4byte	0x50
 1372 0123 04       		.uleb128 0x4
 1373 0124 06040000 		.4byte	.LASF24
 1374 0128 04       		.byte	0x4
 1375 0129 C8       		.byte	0xc8
 1376 012a 49000000 		.4byte	0x49
 1377 012e 08       		.uleb128 0x8
 1378 012f AD060000 		.4byte	.LASF73
 1379 0133 3C       		.byte	0x3c
 1380 0134 05       		.byte	0x5
 1381 0135 19       		.byte	0x19
 1382 0136 29020000 		.4byte	0x229
 1383 013a 09       		.uleb128 0x9
 1384 013b 3D1E0000 		.4byte	.LASF25
 1385 013f 05       		.byte	0x5
 1386 0140 1B       		.byte	0x1b
 1387 0141 F7000000 		.4byte	0xf7
 1388 0145 02       		.byte	0x2
 1389 0146 23       		.byte	0x23
 1390 0147 00       		.uleb128 0
 1391 0148 09       		.uleb128 0x9
 1392 0149 3E430000 		.4byte	.LASF26
 1393 014d 05       		.byte	0x5
 1394 014e 1C       		.byte	0x1c
 1395 014f E1000000 		.4byte	0xe1
 1396 0153 02       		.byte	0x2
 1397 0154 23       		.byte	0x23
 1398 0155 02       		.uleb128 0x2
 1399 0156 09       		.uleb128 0x9
 1400 0157 253F0000 		.4byte	.LASF27
 1401 015b 05       		.byte	0x5
 1402 015c 1D       		.byte	0x1d
 1403 015d 18010000 		.4byte	0x118
 1404 0161 02       		.byte	0x2
 1405 0162 23       		.byte	0x23
 1406 0163 04       		.uleb128 0x4
 1407 0164 09       		.uleb128 0x9
 1408 0165 F92D0000 		.4byte	.LASF28
ARM GAS  /tmp/ccuKfveS.s 			page 30


 1409 0169 05       		.byte	0x5
 1410 016a 1E       		.byte	0x1e
 1411 016b 23010000 		.4byte	0x123
 1412 016f 02       		.byte	0x2
 1413 0170 23       		.byte	0x23
 1414 0171 08       		.uleb128 0x8
 1415 0172 09       		.uleb128 0x9
 1416 0173 720D0000 		.4byte	.LASF29
 1417 0177 05       		.byte	0x5
 1418 0178 1F       		.byte	0x1f
 1419 0179 02010000 		.4byte	0x102
 1420 017d 02       		.byte	0x2
 1421 017e 23       		.byte	0x23
 1422 017f 0A       		.uleb128 0xa
 1423 0180 09       		.uleb128 0x9
 1424 0181 C71B0000 		.4byte	.LASF30
 1425 0185 05       		.byte	0x5
 1426 0186 20       		.byte	0x20
 1427 0187 0D010000 		.4byte	0x10d
 1428 018b 02       		.byte	0x2
 1429 018c 23       		.byte	0x23
 1430 018d 0C       		.uleb128 0xc
 1431 018e 09       		.uleb128 0x9
 1432 018f A1100000 		.4byte	.LASF31
 1433 0193 05       		.byte	0x5
 1434 0194 21       		.byte	0x21
 1435 0195 F7000000 		.4byte	0xf7
 1436 0199 02       		.byte	0x2
 1437 019a 23       		.byte	0x23
 1438 019b 0E       		.uleb128 0xe
 1439 019c 09       		.uleb128 0x9
 1440 019d A00A0000 		.4byte	.LASF32
 1441 01a1 05       		.byte	0x5
 1442 01a2 22       		.byte	0x22
 1443 01a3 EC000000 		.4byte	0xec
 1444 01a7 02       		.byte	0x2
 1445 01a8 23       		.byte	0x23
 1446 01a9 10       		.uleb128 0x10
 1447 01aa 09       		.uleb128 0x9
 1448 01ab 5D2F0000 		.4byte	.LASF33
 1449 01af 05       		.byte	0x5
 1450 01b0 30       		.byte	0x30
 1451 01b1 CB000000 		.4byte	0xcb
 1452 01b5 02       		.byte	0x2
 1453 01b6 23       		.byte	0x23
 1454 01b7 14       		.uleb128 0x14
 1455 01b8 09       		.uleb128 0x9
 1456 01b9 CE0E0000 		.4byte	.LASF34
 1457 01bd 05       		.byte	0x5
 1458 01be 31       		.byte	0x31
 1459 01bf 70000000 		.4byte	0x70
 1460 01c3 02       		.byte	0x2
 1461 01c4 23       		.byte	0x23
 1462 01c5 18       		.uleb128 0x18
 1463 01c6 09       		.uleb128 0x9
 1464 01c7 DB380000 		.4byte	.LASF35
 1465 01cb 05       		.byte	0x5
ARM GAS  /tmp/ccuKfveS.s 			page 31


 1466 01cc 32       		.byte	0x32
 1467 01cd CB000000 		.4byte	0xcb
 1468 01d1 02       		.byte	0x2
 1469 01d2 23       		.byte	0x23
 1470 01d3 1C       		.uleb128 0x1c
 1471 01d4 09       		.uleb128 0x9
 1472 01d5 D80E0000 		.4byte	.LASF36
 1473 01d9 05       		.byte	0x5
 1474 01da 33       		.byte	0x33
 1475 01db 70000000 		.4byte	0x70
 1476 01df 02       		.byte	0x2
 1477 01e0 23       		.byte	0x23
 1478 01e1 20       		.uleb128 0x20
 1479 01e2 09       		.uleb128 0x9
 1480 01e3 0B180000 		.4byte	.LASF37
 1481 01e7 05       		.byte	0x5
 1482 01e8 34       		.byte	0x34
 1483 01e9 CB000000 		.4byte	0xcb
 1484 01ed 02       		.byte	0x2
 1485 01ee 23       		.byte	0x23
 1486 01ef 24       		.uleb128 0x24
 1487 01f0 09       		.uleb128 0x9
 1488 01f1 A21F0000 		.4byte	.LASF38
 1489 01f5 05       		.byte	0x5
 1490 01f6 35       		.byte	0x35
 1491 01f7 70000000 		.4byte	0x70
 1492 01fb 02       		.byte	0x2
 1493 01fc 23       		.byte	0x23
 1494 01fd 28       		.uleb128 0x28
 1495 01fe 09       		.uleb128 0x9
 1496 01ff BF010000 		.4byte	.LASF39
 1497 0203 05       		.byte	0x5
 1498 0204 36       		.byte	0x36
 1499 0205 70000000 		.4byte	0x70
 1500 0209 02       		.byte	0x2
 1501 020a 23       		.byte	0x23
 1502 020b 2C       		.uleb128 0x2c
 1503 020c 09       		.uleb128 0x9
 1504 020d EA010000 		.4byte	.LASF40
 1505 0211 05       		.byte	0x5
 1506 0212 37       		.byte	0x37
 1507 0213 70000000 		.4byte	0x70
 1508 0217 02       		.byte	0x2
 1509 0218 23       		.byte	0x23
 1510 0219 30       		.uleb128 0x30
 1511 021a 09       		.uleb128 0x9
 1512 021b AC1F0000 		.4byte	.LASF41
 1513 021f 05       		.byte	0x5
 1514 0220 38       		.byte	0x38
 1515 0221 29020000 		.4byte	0x229
 1516 0225 02       		.byte	0x2
 1517 0226 23       		.byte	0x23
 1518 0227 34       		.uleb128 0x34
 1519 0228 00       		.byte	0
 1520 0229 0A       		.uleb128 0xa
 1521 022a 70000000 		.4byte	0x70
 1522 022e 39020000 		.4byte	0x239
ARM GAS  /tmp/ccuKfveS.s 			page 32


 1523 0232 0B       		.uleb128 0xb
 1524 0233 98000000 		.4byte	0x98
 1525 0237 01       		.byte	0x1
 1526 0238 00       		.byte	0
 1527 0239 0C       		.uleb128 0xc
 1528 023a 01       		.byte	0x1
 1529 023b F0430000 		.4byte	.LASF42
 1530 023f 01       		.byte	0x1
 1531 0240 0A       		.byte	0xa
 1532 0241 01       		.byte	0x1
 1533 0242 2D000000 		.4byte	0x2d
 1534 0246 00000000 		.4byte	.LFB0
 1535 024a 18000000 		.4byte	.LFE0
 1536 024e 00000000 		.4byte	.LLST0
 1537 0252 01       		.byte	0x1
 1538 0253 75020000 		.4byte	0x275
 1539 0257 0D       		.uleb128 0xd
 1540 0258 73180000 		.4byte	.LASF44
 1541 025c 01       		.byte	0x1
 1542 025d 0A       		.byte	0xa
 1543 025e 2D000000 		.4byte	0x2d
 1544 0262 02       		.byte	0x2
 1545 0263 91       		.byte	0x91
 1546 0264 74       		.sleb128 -12
 1547 0265 0E       		.uleb128 0xe
 1548 0266 01       		.byte	0x1
 1549 0267 28000000 		.4byte	.LASF51
 1550 026b 01       		.byte	0x1
 1551 026c 0C       		.byte	0xc
 1552 026d 2D000000 		.4byte	0x2d
 1553 0271 01       		.byte	0x1
 1554 0272 0F       		.uleb128 0xf
 1555 0273 00       		.byte	0
 1556 0274 00       		.byte	0
 1557 0275 10       		.uleb128 0x10
 1558 0276 01       		.byte	0x1
 1559 0277 60200000 		.4byte	.LASF43
 1560 027b 01       		.byte	0x1
 1561 027c 10       		.byte	0x10
 1562 027d 01       		.byte	0x1
 1563 027e 2D000000 		.4byte	0x2d
 1564 0282 00000000 		.4byte	.LFB1
 1565 0286 14000000 		.4byte	.LFE1
 1566 028a 38000000 		.4byte	.LLST1
 1567 028e 01       		.byte	0x1
 1568 028f B0020000 		.4byte	0x2b0
 1569 0293 0D       		.uleb128 0xd
 1570 0294 E0220000 		.4byte	.LASF45
 1571 0298 01       		.byte	0x1
 1572 0299 10       		.byte	0x10
 1573 029a 9F000000 		.4byte	0x9f
 1574 029e 02       		.byte	0x2
 1575 029f 91       		.byte	0x91
 1576 02a0 74       		.sleb128 -12
 1577 02a1 0D       		.uleb128 0xd
 1578 02a2 73180000 		.4byte	.LASF44
 1579 02a6 01       		.byte	0x1
ARM GAS  /tmp/ccuKfveS.s 			page 33


 1580 02a7 10       		.byte	0x10
 1581 02a8 2D000000 		.4byte	0x2d
 1582 02ac 02       		.byte	0x2
 1583 02ad 91       		.byte	0x91
 1584 02ae 70       		.sleb128 -16
 1585 02af 00       		.byte	0
 1586 02b0 10       		.uleb128 0x10
 1587 02b1 01       		.byte	0x1
 1588 02b2 0E250000 		.4byte	.LASF46
 1589 02b6 01       		.byte	0x1
 1590 02b7 1D       		.byte	0x1d
 1591 02b8 01       		.byte	0x1
 1592 02b9 2D000000 		.4byte	0x2d
 1593 02bd 00000000 		.4byte	.LFB2
 1594 02c1 24000000 		.4byte	.LFE2
 1595 02c5 70000000 		.4byte	.LLST2
 1596 02c9 01       		.byte	0x1
 1597 02ca F9020000 		.4byte	0x2f9
 1598 02ce 0D       		.uleb128 0xd
 1599 02cf 1F3A0000 		.4byte	.LASF47
 1600 02d3 01       		.byte	0x1
 1601 02d4 1D       		.byte	0x1d
 1602 02d5 A8000000 		.4byte	0xa8
 1603 02d9 02       		.byte	0x2
 1604 02da 91       		.byte	0x91
 1605 02db 74       		.sleb128 -12
 1606 02dc 0D       		.uleb128 0xd
 1607 02dd BD220000 		.4byte	.LASF48
 1608 02e1 01       		.byte	0x1
 1609 02e2 1D       		.byte	0x1d
 1610 02e3 F9020000 		.4byte	0x2f9
 1611 02e7 02       		.byte	0x2
 1612 02e8 91       		.byte	0x91
 1613 02e9 70       		.sleb128 -16
 1614 02ea 11       		.uleb128 0x11
 1615 02eb 656E7600 		.ascii	"env\000"
 1616 02ef 01       		.byte	0x1
 1617 02f0 1D       		.byte	0x1d
 1618 02f1 F9020000 		.4byte	0x2f9
 1619 02f5 02       		.byte	0x2
 1620 02f6 91       		.byte	0x91
 1621 02f7 6C       		.sleb128 -20
 1622 02f8 00       		.byte	0
 1623 02f9 06       		.uleb128 0x6
 1624 02fa 04       		.byte	0x4
 1625 02fb A8000000 		.4byte	0xa8
 1626 02ff 12       		.uleb128 0x12
 1627 0300 01       		.byte	0x1
 1628 0301 61360000 		.4byte	.LASF52
 1629 0305 01       		.byte	0x1
 1630 0306 27       		.byte	0x27
 1631 0307 01       		.byte	0x1
 1632 0308 2D000000 		.4byte	0x2d
 1633 030c 00000000 		.4byte	.LFB3
 1634 0310 18000000 		.4byte	.LFE3
 1635 0314 A8000000 		.4byte	.LLST3
 1636 0318 01       		.byte	0x1
ARM GAS  /tmp/ccuKfveS.s 			page 34


 1637 0319 10       		.uleb128 0x10
 1638 031a 01       		.byte	0x1
 1639 031b EF340000 		.4byte	.LASF49
 1640 031f 01       		.byte	0x1
 1641 0320 2D       		.byte	0x2d
 1642 0321 01       		.byte	0x1
 1643 0322 2D000000 		.4byte	0x2d
 1644 0326 00000000 		.4byte	.LFB4
 1645 032a 14000000 		.4byte	.LFE4
 1646 032e D4000000 		.4byte	.LLST4
 1647 0332 01       		.byte	0x1
 1648 0333 46030000 		.4byte	0x346
 1649 0337 0D       		.uleb128 0xd
 1650 0338 E0220000 		.4byte	.LASF45
 1651 033c 01       		.byte	0x1
 1652 033d 2D       		.byte	0x2d
 1653 033e 9F000000 		.4byte	0x9f
 1654 0342 02       		.byte	0x2
 1655 0343 91       		.byte	0x91
 1656 0344 74       		.sleb128 -12
 1657 0345 00       		.byte	0
 1658 0346 0C       		.uleb128 0xc
 1659 0347 01       		.byte	0x1
 1660 0348 F03C0000 		.4byte	.LASF50
 1661 034c 05       		.byte	0x5
 1662 034d 93       		.byte	0x93
 1663 034e 01       		.byte	0x1
 1664 034f 2D000000 		.4byte	0x2d
 1665 0353 00000000 		.4byte	.LFB5
 1666 0357 22000000 		.4byte	.LFE5
 1667 035b 0C010000 		.4byte	.LLST5
 1668 035f 01       		.byte	0x1
 1669 0360 8F030000 		.4byte	0x38f
 1670 0364 0D       		.uleb128 0xd
 1671 0365 73180000 		.4byte	.LASF44
 1672 0369 01       		.byte	0x1
 1673 036a 34       		.byte	0x34
 1674 036b 2D000000 		.4byte	0x2d
 1675 036f 02       		.byte	0x2
 1676 0370 91       		.byte	0x91
 1677 0371 74       		.sleb128 -12
 1678 0372 11       		.uleb128 0x11
 1679 0373 737400   		.ascii	"st\000"
 1680 0376 01       		.byte	0x1
 1681 0377 34       		.byte	0x34
 1682 0378 8F030000 		.4byte	0x38f
 1683 037c 02       		.byte	0x2
 1684 037d 91       		.byte	0x91
 1685 037e 70       		.sleb128 -16
 1686 037f 0E       		.uleb128 0xe
 1687 0380 01       		.byte	0x1
 1688 0381 28000000 		.4byte	.LASF51
 1689 0385 01       		.byte	0x1
 1690 0386 0C       		.byte	0xc
 1691 0387 2D000000 		.4byte	0x2d
 1692 038b 01       		.byte	0x1
 1693 038c 0F       		.uleb128 0xf
ARM GAS  /tmp/ccuKfveS.s 			page 35


 1694 038d 00       		.byte	0
 1695 038e 00       		.byte	0
 1696 038f 06       		.uleb128 0x6
 1697 0390 04       		.byte	0x4
 1698 0391 2E010000 		.4byte	0x12e
 1699 0395 12       		.uleb128 0x12
 1700 0396 01       		.byte	0x1
 1701 0397 E51F0000 		.4byte	.LASF53
 1702 039b 01       		.byte	0x1
 1703 039c 3C       		.byte	0x3c
 1704 039d 01       		.byte	0x1
 1705 039e 2D000000 		.4byte	0x2d
 1706 03a2 00000000 		.4byte	.LFB6
 1707 03a6 0C000000 		.4byte	.LFE6
 1708 03aa 44010000 		.4byte	.LLST6
 1709 03ae 01       		.byte	0x1
 1710 03af 0C       		.uleb128 0xc
 1711 03b0 01       		.byte	0x1
 1712 03b1 8A1D0000 		.4byte	.LASF54
 1713 03b5 01       		.byte	0x1
 1714 03b6 42       		.byte	0x42
 1715 03b7 01       		.byte	0x1
 1716 03b8 2D000000 		.4byte	0x2d
 1717 03bc 00000000 		.4byte	.LFB7
 1718 03c0 18000000 		.4byte	.LFE7
 1719 03c4 70010000 		.4byte	.LLST7
 1720 03c8 01       		.byte	0x1
 1721 03c9 EB030000 		.4byte	0x3eb
 1722 03cd 0D       		.uleb128 0xd
 1723 03ce 73180000 		.4byte	.LASF44
 1724 03d2 01       		.byte	0x1
 1725 03d3 42       		.byte	0x42
 1726 03d4 2D000000 		.4byte	0x2d
 1727 03d8 02       		.byte	0x2
 1728 03d9 91       		.byte	0x91
 1729 03da 74       		.sleb128 -12
 1730 03db 0E       		.uleb128 0xe
 1731 03dc 01       		.byte	0x1
 1732 03dd 28000000 		.4byte	.LASF51
 1733 03e1 01       		.byte	0x1
 1734 03e2 0C       		.byte	0xc
 1735 03e3 2D000000 		.4byte	0x2d
 1736 03e7 01       		.byte	0x1
 1737 03e8 0F       		.uleb128 0xf
 1738 03e9 00       		.byte	0
 1739 03ea 00       		.byte	0
 1740 03eb 10       		.uleb128 0x10
 1741 03ec 01       		.byte	0x1
 1742 03ed A1150000 		.4byte	.LASF55
 1743 03f1 01       		.byte	0x1
 1744 03f2 48       		.byte	0x48
 1745 03f3 01       		.byte	0x1
 1746 03f4 2D000000 		.4byte	0x2d
 1747 03f8 00000000 		.4byte	.LFB8
 1748 03fc 14000000 		.4byte	.LFE8
 1749 0400 A8010000 		.4byte	.LLST8
 1750 0404 01       		.byte	0x1
ARM GAS  /tmp/ccuKfveS.s 			page 36


 1751 0405 25040000 		.4byte	0x425
 1752 0409 0D       		.uleb128 0xd
 1753 040a E0220000 		.4byte	.LASF45
 1754 040e 01       		.byte	0x1
 1755 040f 48       		.byte	0x48
 1756 0410 9F000000 		.4byte	0x9f
 1757 0414 02       		.byte	0x2
 1758 0415 91       		.byte	0x91
 1759 0416 74       		.sleb128 -12
 1760 0417 11       		.uleb128 0x11
 1761 0418 666400   		.ascii	"fd\000"
 1762 041b 01       		.byte	0x1
 1763 041c 48       		.byte	0x48
 1764 041d 2D000000 		.4byte	0x2d
 1765 0421 02       		.byte	0x2
 1766 0422 91       		.byte	0x91
 1767 0423 70       		.sleb128 -16
 1768 0424 00       		.byte	0
 1769 0425 10       		.uleb128 0x10
 1770 0426 01       		.byte	0x1
 1771 0427 833E0000 		.4byte	.LASF56
 1772 042b 01       		.byte	0x1
 1773 042c 51       		.byte	0x51
 1774 042d 01       		.byte	0x1
 1775 042e 2D000000 		.4byte	0x2d
 1776 0432 00000000 		.4byte	.LFB9
 1777 0436 20000000 		.4byte	.LFE9
 1778 043a E0010000 		.4byte	.LLST9
 1779 043e 01       		.byte	0x1
 1780 043f 60040000 		.4byte	0x460
 1781 0443 11       		.uleb128 0x11
 1782 0444 70696400 		.ascii	"pid\000"
 1783 0448 01       		.byte	0x1
 1784 0449 51       		.byte	0x51
 1785 044a 2D000000 		.4byte	0x2d
 1786 044e 02       		.byte	0x2
 1787 044f 91       		.byte	0x91
 1788 0450 74       		.sleb128 -12
 1789 0451 11       		.uleb128 0x11
 1790 0452 73696700 		.ascii	"sig\000"
 1791 0456 01       		.byte	0x1
 1792 0457 51       		.byte	0x51
 1793 0458 2D000000 		.4byte	0x2d
 1794 045c 02       		.byte	0x2
 1795 045d 91       		.byte	0x91
 1796 045e 70       		.sleb128 -16
 1797 045f 00       		.byte	0
 1798 0460 10       		.uleb128 0x10
 1799 0461 01       		.byte	0x1
 1800 0462 9C1E0000 		.4byte	.LASF57
 1801 0466 01       		.byte	0x1
 1802 0467 5B       		.byte	0x5b
 1803 0468 01       		.byte	0x1
 1804 0469 2D000000 		.4byte	0x2d
 1805 046d 00000000 		.4byte	.LFB10
 1806 0471 20000000 		.4byte	.LFE10
 1807 0475 18020000 		.4byte	.LLST10
ARM GAS  /tmp/ccuKfveS.s 			page 37


 1808 0479 01       		.byte	0x1
 1809 047a 9B040000 		.4byte	0x49b
 1810 047e 11       		.uleb128 0x11
 1811 047f 6F6C6400 		.ascii	"old\000"
 1812 0483 01       		.byte	0x1
 1813 0484 5B       		.byte	0x5b
 1814 0485 A8000000 		.4byte	0xa8
 1815 0489 02       		.byte	0x2
 1816 048a 91       		.byte	0x91
 1817 048b 74       		.sleb128 -12
 1818 048c 11       		.uleb128 0x11
 1819 048d 6E657700 		.ascii	"new\000"
 1820 0491 01       		.byte	0x1
 1821 0492 5B       		.byte	0x5b
 1822 0493 A8000000 		.4byte	0xa8
 1823 0497 02       		.byte	0x2
 1824 0498 91       		.byte	0x91
 1825 0499 70       		.sleb128 -16
 1826 049a 00       		.byte	0
 1827 049b 10       		.uleb128 0x10
 1828 049c 01       		.byte	0x1
 1829 049d D3430000 		.4byte	.LASF58
 1830 04a1 01       		.byte	0x1
 1831 04a2 61       		.byte	0x61
 1832 04a3 01       		.byte	0x1
 1833 04a4 2D000000 		.4byte	0x2d
 1834 04a8 00000000 		.4byte	.LFB11
 1835 04ac 18000000 		.4byte	.LFE11
 1836 04b0 50020000 		.4byte	.LLST11
 1837 04b4 01       		.byte	0x1
 1838 04b5 E4040000 		.4byte	0x4e4
 1839 04b9 0D       		.uleb128 0xd
 1840 04ba E0220000 		.4byte	.LASF45
 1841 04be 01       		.byte	0x1
 1842 04bf 61       		.byte	0x61
 1843 04c0 9F000000 		.4byte	0x9f
 1844 04c4 02       		.byte	0x2
 1845 04c5 91       		.byte	0x91
 1846 04c6 74       		.sleb128 -12
 1847 04c7 11       		.uleb128 0x11
 1848 04c8 6F6C6400 		.ascii	"old\000"
 1849 04cc 01       		.byte	0x1
 1850 04cd 61       		.byte	0x61
 1851 04ce B5000000 		.4byte	0xb5
 1852 04d2 02       		.byte	0x2
 1853 04d3 91       		.byte	0x91
 1854 04d4 70       		.sleb128 -16
 1855 04d5 11       		.uleb128 0x11
 1856 04d6 6E657700 		.ascii	"new\000"
 1857 04da 01       		.byte	0x1
 1858 04db 61       		.byte	0x61
 1859 04dc B5000000 		.4byte	0xb5
 1860 04e0 02       		.byte	0x2
 1861 04e1 91       		.byte	0x91
 1862 04e2 6C       		.sleb128 -20
 1863 04e3 00       		.byte	0
 1864 04e4 10       		.uleb128 0x10
ARM GAS  /tmp/ccuKfveS.s 			page 38


 1865 04e5 01       		.byte	0x1
 1866 04e6 CC0D0000 		.4byte	.LASF59
 1867 04ea 01       		.byte	0x1
 1868 04eb 67       		.byte	0x67
 1869 04ec 01       		.byte	0x1
 1870 04ed 2D000000 		.4byte	0x2d
 1871 04f1 00000000 		.4byte	.LFB12
 1872 04f5 16000000 		.4byte	.LFE12
 1873 04f9 88020000 		.4byte	.LLST12
 1874 04fd 01       		.byte	0x1
 1875 04fe 2D050000 		.4byte	0x52d
 1876 0502 0D       		.uleb128 0xd
 1877 0503 73180000 		.4byte	.LASF44
 1878 0507 01       		.byte	0x1
 1879 0508 67       		.byte	0x67
 1880 0509 2D000000 		.4byte	0x2d
 1881 050d 02       		.byte	0x2
 1882 050e 91       		.byte	0x91
 1883 050f 74       		.sleb128 -12
 1884 0510 11       		.uleb128 0x11
 1885 0511 70747200 		.ascii	"ptr\000"
 1886 0515 01       		.byte	0x1
 1887 0516 67       		.byte	0x67
 1888 0517 2D000000 		.4byte	0x2d
 1889 051b 02       		.byte	0x2
 1890 051c 91       		.byte	0x91
 1891 051d 70       		.sleb128 -16
 1892 051e 11       		.uleb128 0x11
 1893 051f 64697200 		.ascii	"dir\000"
 1894 0523 01       		.byte	0x1
 1895 0524 67       		.byte	0x67
 1896 0525 2D000000 		.4byte	0x2d
 1897 0529 02       		.byte	0x2
 1898 052a 91       		.byte	0x91
 1899 052b 6C       		.sleb128 -20
 1900 052c 00       		.byte	0
 1901 052d 0C       		.uleb128 0xc
 1902 052e 01       		.byte	0x1
 1903 052f 0E3F0000 		.4byte	.LASF60
 1904 0533 01       		.byte	0x1
 1905 0534 6C       		.byte	0x6c
 1906 0535 01       		.byte	0x1
 1907 0536 2D000000 		.4byte	0x2d
 1908 053a 00000000 		.4byte	.LFB13
 1909 053e 1E000000 		.4byte	.LFE13
 1910 0542 C0020000 		.4byte	.LLST13
 1911 0546 01       		.byte	0x1
 1912 0547 92050000 		.4byte	0x592
 1913 054b 0D       		.uleb128 0xd
 1914 054c E0220000 		.4byte	.LASF45
 1915 0550 01       		.byte	0x1
 1916 0551 6C       		.byte	0x6c
 1917 0552 9F000000 		.4byte	0x9f
 1918 0556 02       		.byte	0x2
 1919 0557 91       		.byte	0x91
 1920 0558 74       		.sleb128 -12
 1921 0559 11       		.uleb128 0x11
ARM GAS  /tmp/ccuKfveS.s 			page 39


 1922 055a 666400   		.ascii	"fd\000"
 1923 055d 01       		.byte	0x1
 1924 055e 6C       		.byte	0x6c
 1925 055f 2D000000 		.4byte	0x2d
 1926 0563 02       		.byte	0x2
 1927 0564 91       		.byte	0x91
 1928 0565 70       		.sleb128 -16
 1929 0566 11       		.uleb128 0x11
 1930 0567 706F7300 		.ascii	"pos\000"
 1931 056b 01       		.byte	0x1
 1932 056c 6C       		.byte	0x6c
 1933 056d EC000000 		.4byte	0xec
 1934 0571 02       		.byte	0x2
 1935 0572 91       		.byte	0x91
 1936 0573 6C       		.sleb128 -20
 1937 0574 0D       		.uleb128 0xd
 1938 0575 29140000 		.4byte	.LASF61
 1939 0579 01       		.byte	0x1
 1940 057a 6C       		.byte	0x6c
 1941 057b 2D000000 		.4byte	0x2d
 1942 057f 02       		.byte	0x2
 1943 0580 91       		.byte	0x91
 1944 0581 68       		.sleb128 -24
 1945 0582 0E       		.uleb128 0xe
 1946 0583 01       		.byte	0x1
 1947 0584 28000000 		.4byte	.LASF51
 1948 0588 01       		.byte	0x1
 1949 0589 0C       		.byte	0xc
 1950 058a 2D000000 		.4byte	0x2d
 1951 058e 01       		.byte	0x1
 1952 058f 0F       		.uleb128 0xf
 1953 0590 00       		.byte	0
 1954 0591 00       		.byte	0
 1955 0592 10       		.uleb128 0x10
 1956 0593 01       		.byte	0x1
 1957 0594 4D050000 		.4byte	.LASF62
 1958 0598 01       		.byte	0x1
 1959 0599 73       		.byte	0x73
 1960 059a 01       		.byte	0x1
 1961 059b 2D000000 		.4byte	0x2d
 1962 059f 00000000 		.4byte	.LFB14
 1963 05a3 16000000 		.4byte	.LFE14
 1964 05a7 F8020000 		.4byte	.LLST14
 1965 05ab 01       		.byte	0x1
 1966 05ac DB050000 		.4byte	0x5db
 1967 05b0 0D       		.uleb128 0xd
 1968 05b1 1F3A0000 		.4byte	.LASF47
 1969 05b5 01       		.byte	0x1
 1970 05b6 73       		.byte	0x73
 1971 05b7 B5000000 		.4byte	0xb5
 1972 05bb 02       		.byte	0x2
 1973 05bc 91       		.byte	0x91
 1974 05bd 74       		.sleb128 -12
 1975 05be 0D       		.uleb128 0xd
 1976 05bf 9B150000 		.4byte	.LASF63
 1977 05c3 01       		.byte	0x1
 1978 05c4 73       		.byte	0x73
ARM GAS  /tmp/ccuKfveS.s 			page 40


 1979 05c5 2D000000 		.4byte	0x2d
 1980 05c9 02       		.byte	0x2
 1981 05ca 91       		.byte	0x91
 1982 05cb 70       		.sleb128 -16
 1983 05cc 0D       		.uleb128 0xd
 1984 05cd F73B0000 		.4byte	.LASF64
 1985 05d1 01       		.byte	0x1
 1986 05d2 73       		.byte	0x73
 1987 05d3 2D000000 		.4byte	0x2d
 1988 05d7 02       		.byte	0x2
 1989 05d8 91       		.byte	0x91
 1990 05d9 6C       		.sleb128 -20
 1991 05da 00       		.byte	0
 1992 05db 10       		.uleb128 0x10
 1993 05dc 01       		.byte	0x1
 1994 05dd 75410000 		.4byte	.LASF65
 1995 05e1 01       		.byte	0x1
 1996 05e2 77       		.byte	0x77
 1997 05e3 01       		.byte	0x1
 1998 05e4 2D000000 		.4byte	0x2d
 1999 05e8 00000000 		.4byte	.LFB15
 2000 05ec 18000000 		.4byte	.LFE15
 2001 05f0 30030000 		.4byte	.LLST15
 2002 05f4 01       		.byte	0x1
 2003 05f5 32060000 		.4byte	0x632
 2004 05f9 0D       		.uleb128 0xd
 2005 05fa E0220000 		.4byte	.LASF45
 2006 05fe 01       		.byte	0x1
 2007 05ff 77       		.byte	0x77
 2008 0600 9F000000 		.4byte	0x9f
 2009 0604 02       		.byte	0x2
 2010 0605 91       		.byte	0x91
 2011 0606 74       		.sleb128 -12
 2012 0607 0D       		.uleb128 0xd
 2013 0608 1F3A0000 		.4byte	.LASF47
 2014 060c 01       		.byte	0x1
 2015 060d 77       		.byte	0x77
 2016 060e B5000000 		.4byte	0xb5
 2017 0612 02       		.byte	0x2
 2018 0613 91       		.byte	0x91
 2019 0614 70       		.sleb128 -16
 2020 0615 0D       		.uleb128 0xd
 2021 0616 9B150000 		.4byte	.LASF63
 2022 061a 01       		.byte	0x1
 2023 061b 77       		.byte	0x77
 2024 061c 2D000000 		.4byte	0x2d
 2025 0620 02       		.byte	0x2
 2026 0621 91       		.byte	0x91
 2027 0622 6C       		.sleb128 -20
 2028 0623 0D       		.uleb128 0xd
 2029 0624 F73B0000 		.4byte	.LASF64
 2030 0628 01       		.byte	0x1
 2031 0629 77       		.byte	0x77
 2032 062a 2D000000 		.4byte	0x2d
 2033 062e 02       		.byte	0x2
 2034 062f 91       		.byte	0x91
 2035 0630 68       		.sleb128 -24
ARM GAS  /tmp/ccuKfveS.s 			page 41


 2036 0631 00       		.byte	0
 2037 0632 0C       		.uleb128 0xc
 2038 0633 01       		.byte	0x1
 2039 0634 5E280000 		.4byte	.LASF66
 2040 0638 01       		.byte	0x1
 2041 0639 7D       		.byte	0x7d
 2042 063a 01       		.byte	0x1
 2043 063b 2D000000 		.4byte	0x2d
 2044 063f 00000000 		.4byte	.LFB16
 2045 0643 1C000000 		.4byte	.LFE16
 2046 0647 68030000 		.4byte	.LLST16
 2047 064b 01       		.byte	0x1
 2048 064c 8A060000 		.4byte	0x68a
 2049 0650 0D       		.uleb128 0xd
 2050 0651 73180000 		.4byte	.LASF44
 2051 0655 01       		.byte	0x1
 2052 0656 7D       		.byte	0x7d
 2053 0657 2D000000 		.4byte	0x2d
 2054 065b 02       		.byte	0x2
 2055 065c 91       		.byte	0x91
 2056 065d 74       		.sleb128 -12
 2057 065e 11       		.uleb128 0x11
 2058 065f 70747200 		.ascii	"ptr\000"
 2059 0663 01       		.byte	0x1
 2060 0664 7D       		.byte	0x7d
 2061 0665 A8000000 		.4byte	0xa8
 2062 0669 02       		.byte	0x2
 2063 066a 91       		.byte	0x91
 2064 066b 70       		.sleb128 -16
 2065 066c 11       		.uleb128 0x11
 2066 066d 6C656E00 		.ascii	"len\000"
 2067 0671 01       		.byte	0x1
 2068 0672 7D       		.byte	0x7d
 2069 0673 2D000000 		.4byte	0x2d
 2070 0677 02       		.byte	0x2
 2071 0678 91       		.byte	0x91
 2072 0679 6C       		.sleb128 -20
 2073 067a 0E       		.uleb128 0xe
 2074 067b 01       		.byte	0x1
 2075 067c 28000000 		.4byte	.LASF51
 2076 0680 01       		.byte	0x1
 2077 0681 0C       		.byte	0xc
 2078 0682 2D000000 		.4byte	0x2d
 2079 0686 01       		.byte	0x1
 2080 0687 0F       		.uleb128 0xf
 2081 0688 00       		.byte	0
 2082 0689 00       		.byte	0
 2083 068a 10       		.uleb128 0x10
 2084 068b 01       		.byte	0x1
 2085 068c 0A430000 		.4byte	.LASF67
 2086 0690 01       		.byte	0x1
 2087 0691 83       		.byte	0x83
 2088 0692 01       		.byte	0x1
 2089 0693 70000000 		.4byte	0x70
 2090 0697 00000000 		.4byte	.LFB17
 2091 069b 18000000 		.4byte	.LFE17
 2092 069f A0030000 		.4byte	.LLST17
ARM GAS  /tmp/ccuKfveS.s 			page 42


 2093 06a3 01       		.byte	0x1
 2094 06a4 E0060000 		.4byte	0x6e0
 2095 06a8 0D       		.uleb128 0xd
 2096 06a9 E0220000 		.4byte	.LASF45
 2097 06ad 01       		.byte	0x1
 2098 06ae 83       		.byte	0x83
 2099 06af 9F000000 		.4byte	0x9f
 2100 06b3 02       		.byte	0x2
 2101 06b4 91       		.byte	0x91
 2102 06b5 74       		.sleb128 -12
 2103 06b6 11       		.uleb128 0x11
 2104 06b7 666400   		.ascii	"fd\000"
 2105 06ba 01       		.byte	0x1
 2106 06bb 83       		.byte	0x83
 2107 06bc 2D000000 		.4byte	0x2d
 2108 06c0 02       		.byte	0x2
 2109 06c1 91       		.byte	0x91
 2110 06c2 70       		.sleb128 -16
 2111 06c3 11       		.uleb128 0x11
 2112 06c4 62756600 		.ascii	"buf\000"
 2113 06c8 01       		.byte	0x1
 2114 06c9 83       		.byte	0x83
 2115 06ca 9F000000 		.4byte	0x9f
 2116 06ce 02       		.byte	0x2
 2117 06cf 91       		.byte	0x91
 2118 06d0 6C       		.sleb128 -20
 2119 06d1 11       		.uleb128 0x11
 2120 06d2 636E7400 		.ascii	"cnt\000"
 2121 06d6 01       		.byte	0x1
 2122 06d7 83       		.byte	0x83
 2123 06d8 C0000000 		.4byte	0xc0
 2124 06dc 02       		.byte	0x2
 2125 06dd 91       		.byte	0x91
 2126 06de 68       		.sleb128 -24
 2127 06df 00       		.byte	0
 2128 06e0 10       		.uleb128 0x10
 2129 06e1 01       		.byte	0x1
 2130 06e2 AC140000 		.4byte	.LASF68
 2131 06e6 01       		.byte	0x1
 2132 06e7 8D       		.byte	0x8d
 2133 06e8 01       		.byte	0x1
 2134 06e9 D6000000 		.4byte	0xd6
 2135 06ed 00000000 		.4byte	.LFB18
 2136 06f1 3C000000 		.4byte	.LFE18
 2137 06f5 D8030000 		.4byte	.LLST18
 2138 06f9 01       		.byte	0x1
 2139 06fa 39070000 		.4byte	0x739
 2140 06fe 0D       		.uleb128 0xd
 2141 06ff B7290000 		.4byte	.LASF69
 2142 0703 01       		.byte	0x1
 2143 0704 8D       		.byte	0x8d
 2144 0705 2D000000 		.4byte	0x2d
 2145 0709 02       		.byte	0x2
 2146 070a 91       		.byte	0x91
 2147 070b 6C       		.sleb128 -20
 2148 070c 13       		.uleb128 0x13
 2149 070d A3040000 		.4byte	.LASF86
ARM GAS  /tmp/ccuKfveS.s 			page 43


 2150 0711 01       		.byte	0x1
 2151 0712 8F       		.byte	0x8f
 2152 0713 AE000000 		.4byte	0xae
 2153 0717 01       		.byte	0x1
 2154 0718 01       		.byte	0x1
 2155 0719 14       		.uleb128 0x14
 2156 071a 1C070000 		.4byte	.LASF70
 2157 071e 01       		.byte	0x1
 2158 071f 90       		.byte	0x90
 2159 0720 A8000000 		.4byte	0xa8
 2160 0724 05       		.byte	0x5
 2161 0725 03       		.byte	0x3
 2162 0726 00000000 		.4byte	heap_end.4468
 2163 072a 14       		.uleb128 0x14
 2164 072b FC3D0000 		.4byte	.LASF71
 2165 072f 01       		.byte	0x1
 2166 0730 91       		.byte	0x91
 2167 0731 A8000000 		.4byte	0xa8
 2168 0735 02       		.byte	0x2
 2169 0736 91       		.byte	0x91
 2170 0737 74       		.sleb128 -12
 2171 0738 00       		.byte	0
 2172 0739 10       		.uleb128 0x10
 2173 073a 01       		.byte	0x1
 2174 073b 19030000 		.4byte	.LASF72
 2175 073f 01       		.byte	0x1
 2176 0740 A4       		.byte	0xa4
 2177 0741 01       		.byte	0x1
 2178 0742 A8000000 		.4byte	0xa8
 2179 0746 00000000 		.4byte	.LFB19
 2180 074a 14000000 		.4byte	.LFE19
 2181 074e 10040000 		.4byte	.LLST19
 2182 0752 01       		.byte	0x1
 2183 0753 74070000 		.4byte	0x774
 2184 0757 0D       		.uleb128 0xd
 2185 0758 E0220000 		.4byte	.LASF45
 2186 075c 01       		.byte	0x1
 2187 075d A4       		.byte	0xa4
 2188 075e 9F000000 		.4byte	0x9f
 2189 0762 02       		.byte	0x2
 2190 0763 91       		.byte	0x91
 2191 0764 74       		.sleb128 -12
 2192 0765 0D       		.uleb128 0xd
 2193 0766 B7290000 		.4byte	.LASF69
 2194 076a 01       		.byte	0x1
 2195 076b A4       		.byte	0xa4
 2196 076c C0000000 		.4byte	0xc0
 2197 0770 02       		.byte	0x2
 2198 0771 91       		.byte	0x91
 2199 0772 70       		.sleb128 -16
 2200 0773 00       		.byte	0
 2201 0774 10       		.uleb128 0x10
 2202 0775 01       		.byte	0x1
 2203 0776 AD060000 		.4byte	.LASF73
 2204 077a 05       		.byte	0x5
 2205 077b 96       		.byte	0x96
 2206 077c 01       		.byte	0x1
ARM GAS  /tmp/ccuKfveS.s 			page 44


 2207 077d 2D000000 		.4byte	0x2d
 2208 0781 00000000 		.4byte	.LFB20
 2209 0785 1C000000 		.4byte	.LFE20
 2210 0789 48040000 		.4byte	.LLST20
 2211 078d 01       		.byte	0x1
 2212 078e AE070000 		.4byte	0x7ae
 2213 0792 0D       		.uleb128 0xd
 2214 0793 73180000 		.4byte	.LASF44
 2215 0797 01       		.byte	0x1
 2216 0798 AB       		.byte	0xab
 2217 0799 B5000000 		.4byte	0xb5
 2218 079d 02       		.byte	0x2
 2219 079e 91       		.byte	0x91
 2220 079f 74       		.sleb128 -12
 2221 07a0 11       		.uleb128 0x11
 2222 07a1 737400   		.ascii	"st\000"
 2223 07a4 01       		.byte	0x1
 2224 07a5 AB       		.byte	0xab
 2225 07a6 8F030000 		.4byte	0x38f
 2226 07aa 02       		.byte	0x2
 2227 07ab 91       		.byte	0x91
 2228 07ac 70       		.sleb128 -16
 2229 07ad 00       		.byte	0
 2230 07ae 10       		.uleb128 0x10
 2231 07af 01       		.byte	0x1
 2232 07b0 0D230000 		.4byte	.LASF74
 2233 07b4 01       		.byte	0x1
 2234 07b5 B1       		.byte	0xb1
 2235 07b6 01       		.byte	0x1
 2236 07b7 2D000000 		.4byte	0x2d
 2237 07bb 00000000 		.4byte	.LFB21
 2238 07bf 16000000 		.4byte	.LFE21
 2239 07c3 80040000 		.4byte	.LLST21
 2240 07c7 01       		.byte	0x1
 2241 07c8 F7070000 		.4byte	0x7f7
 2242 07cc 0D       		.uleb128 0xd
 2243 07cd E0220000 		.4byte	.LASF45
 2244 07d1 01       		.byte	0x1
 2245 07d2 B1       		.byte	0xb1
 2246 07d3 9F000000 		.4byte	0x9f
 2247 07d7 02       		.byte	0x2
 2248 07d8 91       		.byte	0x91
 2249 07d9 74       		.sleb128 -12
 2250 07da 0D       		.uleb128 0xd
 2251 07db 73180000 		.4byte	.LASF44
 2252 07df 01       		.byte	0x1
 2253 07e0 B1       		.byte	0xb1
 2254 07e1 B5000000 		.4byte	0xb5
 2255 07e5 02       		.byte	0x2
 2256 07e6 91       		.byte	0x91
 2257 07e7 70       		.sleb128 -16
 2258 07e8 0D       		.uleb128 0xd
 2259 07e9 61410000 		.4byte	.LASF75
 2260 07ed 01       		.byte	0x1
 2261 07ee B1       		.byte	0xb1
 2262 07ef 8F030000 		.4byte	0x38f
 2263 07f3 02       		.byte	0x2
ARM GAS  /tmp/ccuKfveS.s 			page 45


 2264 07f4 91       		.byte	0x91
 2265 07f5 6C       		.sleb128 -20
 2266 07f6 00       		.byte	0
 2267 07f7 10       		.uleb128 0x10
 2268 07f8 01       		.byte	0x1
 2269 07f9 B9420000 		.4byte	.LASF76
 2270 07fd 01       		.byte	0x1
 2271 07fe B5       		.byte	0xb5
 2272 07ff 01       		.byte	0x1
 2273 0800 2D000000 		.4byte	0x2d
 2274 0804 00000000 		.4byte	.LFB22
 2275 0808 16000000 		.4byte	.LFE22
 2276 080c B8040000 		.4byte	.LLST22
 2277 0810 01       		.byte	0x1
 2278 0811 3F080000 		.4byte	0x83f
 2279 0815 0D       		.uleb128 0xd
 2280 0816 E0220000 		.4byte	.LASF45
 2281 081a 01       		.byte	0x1
 2282 081b B5       		.byte	0xb5
 2283 081c 9F000000 		.4byte	0x9f
 2284 0820 02       		.byte	0x2
 2285 0821 91       		.byte	0x91
 2286 0822 74       		.sleb128 -12
 2287 0823 11       		.uleb128 0x11
 2288 0824 666400   		.ascii	"fd\000"
 2289 0827 01       		.byte	0x1
 2290 0828 B5       		.byte	0xb5
 2291 0829 2D000000 		.4byte	0x2d
 2292 082d 02       		.byte	0x2
 2293 082e 91       		.byte	0x91
 2294 082f 70       		.sleb128 -16
 2295 0830 0D       		.uleb128 0xd
 2296 0831 61410000 		.4byte	.LASF75
 2297 0835 01       		.byte	0x1
 2298 0836 B5       		.byte	0xb5
 2299 0837 8F030000 		.4byte	0x38f
 2300 083b 02       		.byte	0x2
 2301 083c 91       		.byte	0x91
 2302 083d 6C       		.sleb128 -20
 2303 083e 00       		.byte	0
 2304 083f 10       		.uleb128 0x10
 2305 0840 01       		.byte	0x1
 2306 0841 22000000 		.4byte	.LASF77
 2307 0845 01       		.byte	0x1
 2308 0846 BB       		.byte	0xbb
 2309 0847 01       		.byte	0x1
 2310 0848 2D000000 		.4byte	0x2d
 2311 084c 00000000 		.4byte	.LFB23
 2312 0850 14000000 		.4byte	.LFE23
 2313 0854 F0040000 		.4byte	.LLST23
 2314 0858 01       		.byte	0x1
 2315 0859 72080000 		.4byte	0x872
 2316 085d 15       		.uleb128 0x15
 2317 085e 746D7300 		.ascii	"tms\000"
 2318 0862 01       		.byte	0x1
 2319 0863 11       		.uleb128 0x11
 2320 0864 62756600 		.ascii	"buf\000"
ARM GAS  /tmp/ccuKfveS.s 			page 46


 2321 0868 01       		.byte	0x1
 2322 0869 BB       		.byte	0xbb
 2323 086a 72080000 		.4byte	0x872
 2324 086e 02       		.byte	0x2
 2325 086f 91       		.byte	0x91
 2326 0870 74       		.sleb128 -12
 2327 0871 00       		.byte	0
 2328 0872 06       		.uleb128 0x6
 2329 0873 04       		.byte	0x4
 2330 0874 5D080000 		.4byte	0x85d
 2331 0878 10       		.uleb128 0x10
 2332 0879 01       		.byte	0x1
 2333 087a D8000000 		.4byte	.LASF78
 2334 087e 01       		.byte	0x1
 2335 087f C4       		.byte	0xc4
 2336 0880 01       		.byte	0x1
 2337 0881 2D000000 		.4byte	0x2d
 2338 0885 00000000 		.4byte	.LFB24
 2339 0889 20000000 		.4byte	.LFE24
 2340 088d 28050000 		.4byte	.LLST24
 2341 0891 01       		.byte	0x1
 2342 0892 A5080000 		.4byte	0x8a5
 2343 0896 0D       		.uleb128 0xd
 2344 0897 1F3A0000 		.4byte	.LASF47
 2345 089b 01       		.byte	0x1
 2346 089c C4       		.byte	0xc4
 2347 089d A8000000 		.4byte	0xa8
 2348 08a1 02       		.byte	0x2
 2349 08a2 91       		.byte	0x91
 2350 08a3 74       		.sleb128 -12
 2351 08a4 00       		.byte	0
 2352 08a5 10       		.uleb128 0x10
 2353 08a6 01       		.byte	0x1
 2354 08a7 942D0000 		.4byte	.LASF79
 2355 08ab 01       		.byte	0x1
 2356 08ac CA       		.byte	0xca
 2357 08ad 01       		.byte	0x1
 2358 08ae 2D000000 		.4byte	0x2d
 2359 08b2 00000000 		.4byte	.LFB25
 2360 08b6 16000000 		.4byte	.LFE25
 2361 08ba 60050000 		.4byte	.LLST25
 2362 08be 01       		.byte	0x1
 2363 08bf E0080000 		.4byte	0x8e0
 2364 08c3 0D       		.uleb128 0xd
 2365 08c4 E0220000 		.4byte	.LASF45
 2366 08c8 01       		.byte	0x1
 2367 08c9 CA       		.byte	0xca
 2368 08ca 9F000000 		.4byte	0x9f
 2369 08ce 02       		.byte	0x2
 2370 08cf 91       		.byte	0x91
 2371 08d0 74       		.sleb128 -12
 2372 08d1 0D       		.uleb128 0xd
 2373 08d2 73180000 		.4byte	.LASF44
 2374 08d6 01       		.byte	0x1
 2375 08d7 CA       		.byte	0xca
 2376 08d8 B5000000 		.4byte	0xb5
 2377 08dc 02       		.byte	0x2
ARM GAS  /tmp/ccuKfveS.s 			page 47


 2378 08dd 91       		.byte	0x91
 2379 08de 70       		.sleb128 -16
 2380 08df 00       		.byte	0
 2381 08e0 10       		.uleb128 0x10
 2382 08e1 01       		.byte	0x1
 2383 08e2 75150000 		.4byte	.LASF80
 2384 08e6 01       		.byte	0x1
 2385 08e7 D3       		.byte	0xd3
 2386 08e8 01       		.byte	0x1
 2387 08e9 2D000000 		.4byte	0x2d
 2388 08ed 00000000 		.4byte	.LFB26
 2389 08f1 20000000 		.4byte	.LFE26
 2390 08f5 98050000 		.4byte	.LLST26
 2391 08f9 01       		.byte	0x1
 2392 08fa 0D090000 		.4byte	0x90d
 2393 08fe 0D       		.uleb128 0xd
 2394 08ff 9E1D0000 		.4byte	.LASF81
 2395 0903 01       		.byte	0x1
 2396 0904 D3       		.byte	0xd3
 2397 0905 0D090000 		.4byte	0x90d
 2398 0909 02       		.byte	0x2
 2399 090a 91       		.byte	0x91
 2400 090b 74       		.sleb128 -12
 2401 090c 00       		.byte	0
 2402 090d 06       		.uleb128 0x6
 2403 090e 04       		.byte	0x4
 2404 090f 2D000000 		.4byte	0x2d
 2405 0913 10       		.uleb128 0x10
 2406 0914 01       		.byte	0x1
 2407 0915 FE110000 		.4byte	.LASF82
 2408 0919 01       		.byte	0x1
 2409 091a D9       		.byte	0xd9
 2410 091b 01       		.byte	0x1
 2411 091c 2D000000 		.4byte	0x2d
 2412 0920 00000000 		.4byte	.LFB27
 2413 0924 16000000 		.4byte	.LFE27
 2414 0928 D0050000 		.4byte	.LLST27
 2415 092c 01       		.byte	0x1
 2416 092d 4E090000 		.4byte	0x94e
 2417 0931 0D       		.uleb128 0xd
 2418 0932 E0220000 		.4byte	.LASF45
 2419 0936 01       		.byte	0x1
 2420 0937 D9       		.byte	0xd9
 2421 0938 9F000000 		.4byte	0x9f
 2422 093c 02       		.byte	0x2
 2423 093d 91       		.byte	0x91
 2424 093e 74       		.sleb128 -12
 2425 093f 0D       		.uleb128 0xd
 2426 0940 9E1D0000 		.4byte	.LASF81
 2427 0944 01       		.byte	0x1
 2428 0945 D9       		.byte	0xd9
 2429 0946 0D090000 		.4byte	0x90d
 2430 094a 02       		.byte	0x2
 2431 094b 91       		.byte	0x91
 2432 094c 70       		.sleb128 -16
 2433 094d 00       		.byte	0
 2434 094e 0C       		.uleb128 0xc
ARM GAS  /tmp/ccuKfveS.s 			page 48


 2435 094f 01       		.byte	0x1
 2436 0950 5A040000 		.4byte	.LASF83
 2437 0954 01       		.byte	0x1
 2438 0955 E4       		.byte	0xe4
 2439 0956 01       		.byte	0x1
 2440 0957 2D000000 		.4byte	0x2d
 2441 095b 00000000 		.4byte	.LFB28
 2442 095f 3A000000 		.4byte	.LFE28
 2443 0963 08060000 		.4byte	.LLST28
 2444 0967 01       		.byte	0x1
 2445 0968 BE090000 		.4byte	0x9be
 2446 096c 0D       		.uleb128 0xd
 2447 096d 73180000 		.4byte	.LASF44
 2448 0971 01       		.byte	0x1
 2449 0972 E4       		.byte	0xe4
 2450 0973 2D000000 		.4byte	0x2d
 2451 0977 02       		.byte	0x2
 2452 0978 91       		.byte	0x91
 2453 0979 6C       		.sleb128 -20
 2454 097a 11       		.uleb128 0x11
 2455 097b 70747200 		.ascii	"ptr\000"
 2456 097f 01       		.byte	0x1
 2457 0980 E4       		.byte	0xe4
 2458 0981 A8000000 		.4byte	0xa8
 2459 0985 02       		.byte	0x2
 2460 0986 91       		.byte	0x91
 2461 0987 68       		.sleb128 -24
 2462 0988 11       		.uleb128 0x11
 2463 0989 6C656E00 		.ascii	"len\000"
 2464 098d 01       		.byte	0x1
 2465 098e E4       		.byte	0xe4
 2466 098f 2D000000 		.4byte	0x2d
 2467 0993 02       		.byte	0x2
 2468 0994 91       		.byte	0x91
 2469 0995 64       		.sleb128 -28
 2470 0996 14       		.uleb128 0x14
 2471 0997 91310000 		.4byte	.LASF84
 2472 099b 01       		.byte	0x1
 2473 099c E6       		.byte	0xe6
 2474 099d 2D000000 		.4byte	0x2d
 2475 09a1 02       		.byte	0x2
 2476 09a2 91       		.byte	0x91
 2477 09a3 74       		.sleb128 -12
 2478 09a4 16       		.uleb128 0x16
 2479 09a5 12000000 		.4byte	.LBB2
 2480 09a9 22000000 		.4byte	.LBE2
 2481 09ad 0E       		.uleb128 0xe
 2482 09ae 01       		.byte	0x1
 2483 09af 28000000 		.4byte	.LASF51
 2484 09b3 01       		.byte	0x1
 2485 09b4 0C       		.byte	0xc
 2486 09b5 2D000000 		.4byte	0x2d
 2487 09b9 01       		.byte	0x1
 2488 09ba 0F       		.uleb128 0xf
 2489 09bb 00       		.byte	0
 2490 09bc 00       		.byte	0
 2491 09bd 00       		.byte	0
ARM GAS  /tmp/ccuKfveS.s 			page 49


 2492 09be 0C       		.uleb128 0xc
 2493 09bf 01       		.byte	0x1
 2494 09c0 DB280000 		.4byte	.LASF85
 2495 09c4 01       		.byte	0x1
 2496 09c5 F0       		.byte	0xf0
 2497 09c6 01       		.byte	0x1
 2498 09c7 70000000 		.4byte	0x70
 2499 09cb 00000000 		.4byte	.LFB29
 2500 09cf 28000000 		.4byte	.LFE29
 2501 09d3 40060000 		.4byte	.LLST29
 2502 09d7 01       		.byte	0x1
 2503 09d8 140A0000 		.4byte	0xa14
 2504 09dc 0D       		.uleb128 0xd
 2505 09dd E0220000 		.4byte	.LASF45
 2506 09e1 01       		.byte	0x1
 2507 09e2 F0       		.byte	0xf0
 2508 09e3 9F000000 		.4byte	0x9f
 2509 09e7 02       		.byte	0x2
 2510 09e8 91       		.byte	0x91
 2511 09e9 74       		.sleb128 -12
 2512 09ea 11       		.uleb128 0x11
 2513 09eb 666400   		.ascii	"fd\000"
 2514 09ee 01       		.byte	0x1
 2515 09ef F0       		.byte	0xf0
 2516 09f0 2D000000 		.4byte	0x2d
 2517 09f4 02       		.byte	0x2
 2518 09f5 91       		.byte	0x91
 2519 09f6 70       		.sleb128 -16
 2520 09f7 11       		.uleb128 0x11
 2521 09f8 62756600 		.ascii	"buf\000"
 2522 09fc 01       		.byte	0x1
 2523 09fd F0       		.byte	0xf0
 2524 09fe 140A0000 		.4byte	0xa14
 2525 0a02 02       		.byte	0x2
 2526 0a03 91       		.byte	0x91
 2527 0a04 6C       		.sleb128 -20
 2528 0a05 11       		.uleb128 0x11
 2529 0a06 636E7400 		.ascii	"cnt\000"
 2530 0a0a 01       		.byte	0x1
 2531 0a0b F0       		.byte	0xf0
 2532 0a0c C0000000 		.4byte	0xc0
 2533 0a10 02       		.byte	0x2
 2534 0a11 91       		.byte	0x91
 2535 0a12 68       		.sleb128 -24
 2536 0a13 00       		.byte	0
 2537 0a14 06       		.uleb128 0x6
 2538 0a15 04       		.byte	0x4
 2539 0a16 1A0A0000 		.4byte	0xa1a
 2540 0a1a 17       		.uleb128 0x17
 2541 0a1b 0A       		.uleb128 0xa
 2542 0a1c A8000000 		.4byte	0xa8
 2543 0a20 2B0A0000 		.4byte	0xa2b
 2544 0a24 0B       		.uleb128 0xb
 2545 0a25 98000000 		.4byte	0x98
 2546 0a29 00       		.byte	0
 2547 0a2a 00       		.byte	0
 2548 0a2b 18       		.uleb128 0x18
ARM GAS  /tmp/ccuKfveS.s 			page 50


 2549 0a2c 283E0000 		.4byte	.LASF87
 2550 0a30 01       		.byte	0x1
 2551 0a31 16       		.byte	0x16
 2552 0a32 1B0A0000 		.4byte	0xa1b
 2553 0a36 01       		.byte	0x1
 2554 0a37 05       		.byte	0x5
 2555 0a38 03       		.byte	0x3
 2556 0a39 00000000 		.4byte	__env
 2557 0a3d 18       		.uleb128 0x18
 2558 0a3e FF0F0000 		.4byte	.LASF88
 2559 0a42 01       		.byte	0x1
 2560 0a43 17       		.byte	0x17
 2561 0a44 F9020000 		.4byte	0x2f9
 2562 0a48 01       		.byte	0x1
 2563 0a49 05       		.byte	0x5
 2564 0a4a 03       		.byte	0x3
 2565 0a4b 00000000 		.4byte	environ
 2566 0a4f 13       		.uleb128 0x13
 2567 0a50 350A0000 		.4byte	.LASF89
 2568 0a54 01       		.byte	0x1
 2569 0a55 D2       		.byte	0xd2
 2570 0a56 2D000000 		.4byte	0x2d
 2571 0a5a 01       		.byte	0x1
 2572 0a5b 01       		.byte	0x1
 2573 0a5c 13       		.uleb128 0x13
 2574 0a5d A3040000 		.4byte	.LASF86
 2575 0a61 01       		.byte	0x1
 2576 0a62 8F       		.byte	0x8f
 2577 0a63 AE000000 		.4byte	0xae
 2578 0a67 01       		.byte	0x1
 2579 0a68 01       		.byte	0x1
 2580 0a69 00       		.byte	0
 2581              		.section	.debug_abbrev,"",%progbits
 2582              	.Ldebug_abbrev0:
 2583 0000 01       		.uleb128 0x1
 2584 0001 11       		.uleb128 0x11
 2585 0002 01       		.byte	0x1
 2586 0003 25       		.uleb128 0x25
 2587 0004 0E       		.uleb128 0xe
 2588 0005 13       		.uleb128 0x13
 2589 0006 0B       		.uleb128 0xb
 2590 0007 03       		.uleb128 0x3
 2591 0008 0E       		.uleb128 0xe
 2592 0009 1B       		.uleb128 0x1b
 2593 000a 0E       		.uleb128 0xe
 2594 000b 55       		.uleb128 0x55
 2595 000c 06       		.uleb128 0x6
 2596 000d 11       		.uleb128 0x11
 2597 000e 01       		.uleb128 0x1
 2598 000f 52       		.uleb128 0x52
 2599 0010 01       		.uleb128 0x1
 2600 0011 10       		.uleb128 0x10
 2601 0012 06       		.uleb128 0x6
 2602 0013 9942     		.uleb128 0x2119
 2603 0015 06       		.uleb128 0x6
 2604 0016 00       		.byte	0
 2605 0017 00       		.byte	0
ARM GAS  /tmp/ccuKfveS.s 			page 51


 2606 0018 02       		.uleb128 0x2
 2607 0019 24       		.uleb128 0x24
 2608 001a 00       		.byte	0
 2609 001b 0B       		.uleb128 0xb
 2610 001c 0B       		.uleb128 0xb
 2611 001d 3E       		.uleb128 0x3e
 2612 001e 0B       		.uleb128 0xb
 2613 001f 03       		.uleb128 0x3
 2614 0020 08       		.uleb128 0x8
 2615 0021 00       		.byte	0
 2616 0022 00       		.byte	0
 2617 0023 03       		.uleb128 0x3
 2618 0024 24       		.uleb128 0x24
 2619 0025 00       		.byte	0
 2620 0026 0B       		.uleb128 0xb
 2621 0027 0B       		.uleb128 0xb
 2622 0028 3E       		.uleb128 0x3e
 2623 0029 0B       		.uleb128 0xb
 2624 002a 03       		.uleb128 0x3
 2625 002b 0E       		.uleb128 0xe
 2626 002c 00       		.byte	0
 2627 002d 00       		.byte	0
 2628 002e 04       		.uleb128 0x4
 2629 002f 16       		.uleb128 0x16
 2630 0030 00       		.byte	0
 2631 0031 03       		.uleb128 0x3
 2632 0032 0E       		.uleb128 0xe
 2633 0033 3A       		.uleb128 0x3a
 2634 0034 0B       		.uleb128 0xb
 2635 0035 3B       		.uleb128 0x3b
 2636 0036 0B       		.uleb128 0xb
 2637 0037 49       		.uleb128 0x49
 2638 0038 13       		.uleb128 0x13
 2639 0039 00       		.byte	0
 2640 003a 00       		.byte	0
 2641 003b 05       		.uleb128 0x5
 2642 003c 0F       		.uleb128 0xf
 2643 003d 00       		.byte	0
 2644 003e 0B       		.uleb128 0xb
 2645 003f 0B       		.uleb128 0xb
 2646 0040 00       		.byte	0
 2647 0041 00       		.byte	0
 2648 0042 06       		.uleb128 0x6
 2649 0043 0F       		.uleb128 0xf
 2650 0044 00       		.byte	0
 2651 0045 0B       		.uleb128 0xb
 2652 0046 0B       		.uleb128 0xb
 2653 0047 49       		.uleb128 0x49
 2654 0048 13       		.uleb128 0x13
 2655 0049 00       		.byte	0
 2656 004a 00       		.byte	0
 2657 004b 07       		.uleb128 0x7
 2658 004c 26       		.uleb128 0x26
 2659 004d 00       		.byte	0
 2660 004e 49       		.uleb128 0x49
 2661 004f 13       		.uleb128 0x13
 2662 0050 00       		.byte	0
ARM GAS  /tmp/ccuKfveS.s 			page 52


 2663 0051 00       		.byte	0
 2664 0052 08       		.uleb128 0x8
 2665 0053 13       		.uleb128 0x13
 2666 0054 01       		.byte	0x1
 2667 0055 03       		.uleb128 0x3
 2668 0056 0E       		.uleb128 0xe
 2669 0057 0B       		.uleb128 0xb
 2670 0058 0B       		.uleb128 0xb
 2671 0059 3A       		.uleb128 0x3a
 2672 005a 0B       		.uleb128 0xb
 2673 005b 3B       		.uleb128 0x3b
 2674 005c 0B       		.uleb128 0xb
 2675 005d 01       		.uleb128 0x1
 2676 005e 13       		.uleb128 0x13
 2677 005f 00       		.byte	0
 2678 0060 00       		.byte	0
 2679 0061 09       		.uleb128 0x9
 2680 0062 0D       		.uleb128 0xd
 2681 0063 00       		.byte	0
 2682 0064 03       		.uleb128 0x3
 2683 0065 0E       		.uleb128 0xe
 2684 0066 3A       		.uleb128 0x3a
 2685 0067 0B       		.uleb128 0xb
 2686 0068 3B       		.uleb128 0x3b
 2687 0069 0B       		.uleb128 0xb
 2688 006a 49       		.uleb128 0x49
 2689 006b 13       		.uleb128 0x13
 2690 006c 38       		.uleb128 0x38
 2691 006d 0A       		.uleb128 0xa
 2692 006e 00       		.byte	0
 2693 006f 00       		.byte	0
 2694 0070 0A       		.uleb128 0xa
 2695 0071 01       		.uleb128 0x1
 2696 0072 01       		.byte	0x1
 2697 0073 49       		.uleb128 0x49
 2698 0074 13       		.uleb128 0x13
 2699 0075 01       		.uleb128 0x1
 2700 0076 13       		.uleb128 0x13
 2701 0077 00       		.byte	0
 2702 0078 00       		.byte	0
 2703 0079 0B       		.uleb128 0xb
 2704 007a 21       		.uleb128 0x21
 2705 007b 00       		.byte	0
 2706 007c 49       		.uleb128 0x49
 2707 007d 13       		.uleb128 0x13
 2708 007e 2F       		.uleb128 0x2f
 2709 007f 0B       		.uleb128 0xb
 2710 0080 00       		.byte	0
 2711 0081 00       		.byte	0
 2712 0082 0C       		.uleb128 0xc
 2713 0083 2E       		.uleb128 0x2e
 2714 0084 01       		.byte	0x1
 2715 0085 3F       		.uleb128 0x3f
 2716 0086 0C       		.uleb128 0xc
 2717 0087 03       		.uleb128 0x3
 2718 0088 0E       		.uleb128 0xe
 2719 0089 3A       		.uleb128 0x3a
ARM GAS  /tmp/ccuKfveS.s 			page 53


 2720 008a 0B       		.uleb128 0xb
 2721 008b 3B       		.uleb128 0x3b
 2722 008c 0B       		.uleb128 0xb
 2723 008d 27       		.uleb128 0x27
 2724 008e 0C       		.uleb128 0xc
 2725 008f 49       		.uleb128 0x49
 2726 0090 13       		.uleb128 0x13
 2727 0091 11       		.uleb128 0x11
 2728 0092 01       		.uleb128 0x1
 2729 0093 12       		.uleb128 0x12
 2730 0094 01       		.uleb128 0x1
 2731 0095 40       		.uleb128 0x40
 2732 0096 06       		.uleb128 0x6
 2733 0097 9642     		.uleb128 0x2116
 2734 0099 0C       		.uleb128 0xc
 2735 009a 01       		.uleb128 0x1
 2736 009b 13       		.uleb128 0x13
 2737 009c 00       		.byte	0
 2738 009d 00       		.byte	0
 2739 009e 0D       		.uleb128 0xd
 2740 009f 05       		.uleb128 0x5
 2741 00a0 00       		.byte	0
 2742 00a1 03       		.uleb128 0x3
 2743 00a2 0E       		.uleb128 0xe
 2744 00a3 3A       		.uleb128 0x3a
 2745 00a4 0B       		.uleb128 0xb
 2746 00a5 3B       		.uleb128 0x3b
 2747 00a6 0B       		.uleb128 0xb
 2748 00a7 49       		.uleb128 0x49
 2749 00a8 13       		.uleb128 0x13
 2750 00a9 02       		.uleb128 0x2
 2751 00aa 0A       		.uleb128 0xa
 2752 00ab 00       		.byte	0
 2753 00ac 00       		.byte	0
 2754 00ad 0E       		.uleb128 0xe
 2755 00ae 2E       		.uleb128 0x2e
 2756 00af 01       		.byte	0x1
 2757 00b0 3F       		.uleb128 0x3f
 2758 00b1 0C       		.uleb128 0xc
 2759 00b2 03       		.uleb128 0x3
 2760 00b3 0E       		.uleb128 0xe
 2761 00b4 3A       		.uleb128 0x3a
 2762 00b5 0B       		.uleb128 0xb
 2763 00b6 3B       		.uleb128 0x3b
 2764 00b7 0B       		.uleb128 0xb
 2765 00b8 49       		.uleb128 0x49
 2766 00b9 13       		.uleb128 0x13
 2767 00ba 3C       		.uleb128 0x3c
 2768 00bb 0C       		.uleb128 0xc
 2769 00bc 00       		.byte	0
 2770 00bd 00       		.byte	0
 2771 00be 0F       		.uleb128 0xf
 2772 00bf 18       		.uleb128 0x18
 2773 00c0 00       		.byte	0
 2774 00c1 00       		.byte	0
 2775 00c2 00       		.byte	0
 2776 00c3 10       		.uleb128 0x10
ARM GAS  /tmp/ccuKfveS.s 			page 54


 2777 00c4 2E       		.uleb128 0x2e
 2778 00c5 01       		.byte	0x1
 2779 00c6 3F       		.uleb128 0x3f
 2780 00c7 0C       		.uleb128 0xc
 2781 00c8 03       		.uleb128 0x3
 2782 00c9 0E       		.uleb128 0xe
 2783 00ca 3A       		.uleb128 0x3a
 2784 00cb 0B       		.uleb128 0xb
 2785 00cc 3B       		.uleb128 0x3b
 2786 00cd 0B       		.uleb128 0xb
 2787 00ce 27       		.uleb128 0x27
 2788 00cf 0C       		.uleb128 0xc
 2789 00d0 49       		.uleb128 0x49
 2790 00d1 13       		.uleb128 0x13
 2791 00d2 11       		.uleb128 0x11
 2792 00d3 01       		.uleb128 0x1
 2793 00d4 12       		.uleb128 0x12
 2794 00d5 01       		.uleb128 0x1
 2795 00d6 40       		.uleb128 0x40
 2796 00d7 06       		.uleb128 0x6
 2797 00d8 9742     		.uleb128 0x2117
 2798 00da 0C       		.uleb128 0xc
 2799 00db 01       		.uleb128 0x1
 2800 00dc 13       		.uleb128 0x13
 2801 00dd 00       		.byte	0
 2802 00de 00       		.byte	0
 2803 00df 11       		.uleb128 0x11
 2804 00e0 05       		.uleb128 0x5
 2805 00e1 00       		.byte	0
 2806 00e2 03       		.uleb128 0x3
 2807 00e3 08       		.uleb128 0x8
 2808 00e4 3A       		.uleb128 0x3a
 2809 00e5 0B       		.uleb128 0xb
 2810 00e6 3B       		.uleb128 0x3b
 2811 00e7 0B       		.uleb128 0xb
 2812 00e8 49       		.uleb128 0x49
 2813 00e9 13       		.uleb128 0x13
 2814 00ea 02       		.uleb128 0x2
 2815 00eb 0A       		.uleb128 0xa
 2816 00ec 00       		.byte	0
 2817 00ed 00       		.byte	0
 2818 00ee 12       		.uleb128 0x12
 2819 00ef 2E       		.uleb128 0x2e
 2820 00f0 00       		.byte	0
 2821 00f1 3F       		.uleb128 0x3f
 2822 00f2 0C       		.uleb128 0xc
 2823 00f3 03       		.uleb128 0x3
 2824 00f4 0E       		.uleb128 0xe
 2825 00f5 3A       		.uleb128 0x3a
 2826 00f6 0B       		.uleb128 0xb
 2827 00f7 3B       		.uleb128 0x3b
 2828 00f8 0B       		.uleb128 0xb
 2829 00f9 27       		.uleb128 0x27
 2830 00fa 0C       		.uleb128 0xc
 2831 00fb 49       		.uleb128 0x49
 2832 00fc 13       		.uleb128 0x13
 2833 00fd 11       		.uleb128 0x11
ARM GAS  /tmp/ccuKfveS.s 			page 55


 2834 00fe 01       		.uleb128 0x1
 2835 00ff 12       		.uleb128 0x12
 2836 0100 01       		.uleb128 0x1
 2837 0101 40       		.uleb128 0x40
 2838 0102 06       		.uleb128 0x6
 2839 0103 9742     		.uleb128 0x2117
 2840 0105 0C       		.uleb128 0xc
 2841 0106 00       		.byte	0
 2842 0107 00       		.byte	0
 2843 0108 13       		.uleb128 0x13
 2844 0109 34       		.uleb128 0x34
 2845 010a 00       		.byte	0
 2846 010b 03       		.uleb128 0x3
 2847 010c 0E       		.uleb128 0xe
 2848 010d 3A       		.uleb128 0x3a
 2849 010e 0B       		.uleb128 0xb
 2850 010f 3B       		.uleb128 0x3b
 2851 0110 0B       		.uleb128 0xb
 2852 0111 49       		.uleb128 0x49
 2853 0112 13       		.uleb128 0x13
 2854 0113 3F       		.uleb128 0x3f
 2855 0114 0C       		.uleb128 0xc
 2856 0115 3C       		.uleb128 0x3c
 2857 0116 0C       		.uleb128 0xc
 2858 0117 00       		.byte	0
 2859 0118 00       		.byte	0
 2860 0119 14       		.uleb128 0x14
 2861 011a 34       		.uleb128 0x34
 2862 011b 00       		.byte	0
 2863 011c 03       		.uleb128 0x3
 2864 011d 0E       		.uleb128 0xe
 2865 011e 3A       		.uleb128 0x3a
 2866 011f 0B       		.uleb128 0xb
 2867 0120 3B       		.uleb128 0x3b
 2868 0121 0B       		.uleb128 0xb
 2869 0122 49       		.uleb128 0x49
 2870 0123 13       		.uleb128 0x13
 2871 0124 02       		.uleb128 0x2
 2872 0125 0A       		.uleb128 0xa
 2873 0126 00       		.byte	0
 2874 0127 00       		.byte	0
 2875 0128 15       		.uleb128 0x15
 2876 0129 13       		.uleb128 0x13
 2877 012a 00       		.byte	0
 2878 012b 03       		.uleb128 0x3
 2879 012c 08       		.uleb128 0x8
 2880 012d 3C       		.uleb128 0x3c
 2881 012e 0C       		.uleb128 0xc
 2882 012f 00       		.byte	0
 2883 0130 00       		.byte	0
 2884 0131 16       		.uleb128 0x16
 2885 0132 0B       		.uleb128 0xb
 2886 0133 01       		.byte	0x1
 2887 0134 11       		.uleb128 0x11
 2888 0135 01       		.uleb128 0x1
 2889 0136 12       		.uleb128 0x12
 2890 0137 01       		.uleb128 0x1
ARM GAS  /tmp/ccuKfveS.s 			page 56


 2891 0138 00       		.byte	0
 2892 0139 00       		.byte	0
 2893 013a 17       		.uleb128 0x17
 2894 013b 26       		.uleb128 0x26
 2895 013c 00       		.byte	0
 2896 013d 00       		.byte	0
 2897 013e 00       		.byte	0
 2898 013f 18       		.uleb128 0x18
 2899 0140 34       		.uleb128 0x34
 2900 0141 00       		.byte	0
 2901 0142 03       		.uleb128 0x3
 2902 0143 0E       		.uleb128 0xe
 2903 0144 3A       		.uleb128 0x3a
 2904 0145 0B       		.uleb128 0xb
 2905 0146 3B       		.uleb128 0x3b
 2906 0147 0B       		.uleb128 0xb
 2907 0148 49       		.uleb128 0x49
 2908 0149 13       		.uleb128 0x13
 2909 014a 3F       		.uleb128 0x3f
 2910 014b 0C       		.uleb128 0xc
 2911 014c 02       		.uleb128 0x2
 2912 014d 0A       		.uleb128 0xa
 2913 014e 00       		.byte	0
 2914 014f 00       		.byte	0
 2915 0150 00       		.byte	0
 2916              		.section	.debug_loc,"",%progbits
 2917              	.Ldebug_loc0:
 2918              	.LLST0:
 2919 0000 00000000 		.4byte	.LFB0
 2920 0004 02000000 		.4byte	.LCFI0
 2921 0008 0200     		.2byte	0x2
 2922 000a 7D       		.byte	0x7d
 2923 000b 00       		.sleb128 0
 2924 000c 02000000 		.4byte	.LCFI0
 2925 0010 04000000 		.4byte	.LCFI1
 2926 0014 0200     		.2byte	0x2
 2927 0016 7D       		.byte	0x7d
 2928 0017 08       		.sleb128 8
 2929 0018 04000000 		.4byte	.LCFI1
 2930 001c 06000000 		.4byte	.LCFI2
 2931 0020 0200     		.2byte	0x2
 2932 0022 7D       		.byte	0x7d
 2933 0023 10       		.sleb128 16
 2934 0024 06000000 		.4byte	.LCFI2
 2935 0028 18000000 		.4byte	.LFE0
 2936 002c 0200     		.2byte	0x2
 2937 002e 77       		.byte	0x77
 2938 002f 10       		.sleb128 16
 2939 0030 00000000 		.4byte	0
 2940 0034 00000000 		.4byte	0
 2941              	.LLST1:
 2942 0038 00000000 		.4byte	.LFB1
 2943 003c 02000000 		.4byte	.LCFI3
 2944 0040 0200     		.2byte	0x2
 2945 0042 7D       		.byte	0x7d
 2946 0043 00       		.sleb128 0
 2947 0044 02000000 		.4byte	.LCFI3
ARM GAS  /tmp/ccuKfveS.s 			page 57


 2948 0048 04000000 		.4byte	.LCFI4
 2949 004c 0200     		.2byte	0x2
 2950 004e 7D       		.byte	0x7d
 2951 004f 08       		.sleb128 8
 2952 0050 04000000 		.4byte	.LCFI4
 2953 0054 06000000 		.4byte	.LCFI5
 2954 0058 0200     		.2byte	0x2
 2955 005a 7D       		.byte	0x7d
 2956 005b 10       		.sleb128 16
 2957 005c 06000000 		.4byte	.LCFI5
 2958 0060 14000000 		.4byte	.LFE1
 2959 0064 0200     		.2byte	0x2
 2960 0066 77       		.byte	0x77
 2961 0067 10       		.sleb128 16
 2962 0068 00000000 		.4byte	0
 2963 006c 00000000 		.4byte	0
 2964              	.LLST2:
 2965 0070 00000000 		.4byte	.LFB2
 2966 0074 02000000 		.4byte	.LCFI6
 2967 0078 0200     		.2byte	0x2
 2968 007a 7D       		.byte	0x7d
 2969 007b 00       		.sleb128 0
 2970 007c 02000000 		.4byte	.LCFI6
 2971 0080 04000000 		.4byte	.LCFI7
 2972 0084 0200     		.2byte	0x2
 2973 0086 7D       		.byte	0x7d
 2974 0087 08       		.sleb128 8
 2975 0088 04000000 		.4byte	.LCFI7
 2976 008c 06000000 		.4byte	.LCFI8
 2977 0090 0200     		.2byte	0x2
 2978 0092 7D       		.byte	0x7d
 2979 0093 18       		.sleb128 24
 2980 0094 06000000 		.4byte	.LCFI8
 2981 0098 24000000 		.4byte	.LFE2
 2982 009c 0200     		.2byte	0x2
 2983 009e 77       		.byte	0x77
 2984 009f 18       		.sleb128 24
 2985 00a0 00000000 		.4byte	0
 2986 00a4 00000000 		.4byte	0
 2987              	.LLST3:
 2988 00a8 00000000 		.4byte	.LFB3
 2989 00ac 02000000 		.4byte	.LCFI9
 2990 00b0 0200     		.2byte	0x2
 2991 00b2 7D       		.byte	0x7d
 2992 00b3 00       		.sleb128 0
 2993 00b4 02000000 		.4byte	.LCFI9
 2994 00b8 04000000 		.4byte	.LCFI10
 2995 00bc 0200     		.2byte	0x2
 2996 00be 7D       		.byte	0x7d
 2997 00bf 08       		.sleb128 8
 2998 00c0 04000000 		.4byte	.LCFI10
 2999 00c4 18000000 		.4byte	.LFE3
 3000 00c8 0200     		.2byte	0x2
 3001 00ca 77       		.byte	0x77
 3002 00cb 08       		.sleb128 8
 3003 00cc 00000000 		.4byte	0
 3004 00d0 00000000 		.4byte	0
ARM GAS  /tmp/ccuKfveS.s 			page 58


 3005              	.LLST4:
 3006 00d4 00000000 		.4byte	.LFB4
 3007 00d8 02000000 		.4byte	.LCFI11
 3008 00dc 0200     		.2byte	0x2
 3009 00de 7D       		.byte	0x7d
 3010 00df 00       		.sleb128 0
 3011 00e0 02000000 		.4byte	.LCFI11
 3012 00e4 04000000 		.4byte	.LCFI12
 3013 00e8 0200     		.2byte	0x2
 3014 00ea 7D       		.byte	0x7d
 3015 00eb 08       		.sleb128 8
 3016 00ec 04000000 		.4byte	.LCFI12
 3017 00f0 06000000 		.4byte	.LCFI13
 3018 00f4 0200     		.2byte	0x2
 3019 00f6 7D       		.byte	0x7d
 3020 00f7 10       		.sleb128 16
 3021 00f8 06000000 		.4byte	.LCFI13
 3022 00fc 14000000 		.4byte	.LFE4
 3023 0100 0200     		.2byte	0x2
 3024 0102 77       		.byte	0x77
 3025 0103 10       		.sleb128 16
 3026 0104 00000000 		.4byte	0
 3027 0108 00000000 		.4byte	0
 3028              	.LLST5:
 3029 010c 00000000 		.4byte	.LFB5
 3030 0110 02000000 		.4byte	.LCFI14
 3031 0114 0200     		.2byte	0x2
 3032 0116 7D       		.byte	0x7d
 3033 0117 00       		.sleb128 0
 3034 0118 02000000 		.4byte	.LCFI14
 3035 011c 04000000 		.4byte	.LCFI15
 3036 0120 0200     		.2byte	0x2
 3037 0122 7D       		.byte	0x7d
 3038 0123 08       		.sleb128 8
 3039 0124 04000000 		.4byte	.LCFI15
 3040 0128 06000000 		.4byte	.LCFI16
 3041 012c 0200     		.2byte	0x2
 3042 012e 7D       		.byte	0x7d
 3043 012f 10       		.sleb128 16
 3044 0130 06000000 		.4byte	.LCFI16
 3045 0134 22000000 		.4byte	.LFE5
 3046 0138 0200     		.2byte	0x2
 3047 013a 77       		.byte	0x77
 3048 013b 10       		.sleb128 16
 3049 013c 00000000 		.4byte	0
 3050 0140 00000000 		.4byte	0
 3051              	.LLST6:
 3052 0144 00000000 		.4byte	.LFB6
 3053 0148 02000000 		.4byte	.LCFI17
 3054 014c 0200     		.2byte	0x2
 3055 014e 7D       		.byte	0x7d
 3056 014f 00       		.sleb128 0
 3057 0150 02000000 		.4byte	.LCFI17
 3058 0154 04000000 		.4byte	.LCFI18
 3059 0158 0200     		.2byte	0x2
 3060 015a 7D       		.byte	0x7d
 3061 015b 08       		.sleb128 8
ARM GAS  /tmp/ccuKfveS.s 			page 59


 3062 015c 04000000 		.4byte	.LCFI18
 3063 0160 0C000000 		.4byte	.LFE6
 3064 0164 0200     		.2byte	0x2
 3065 0166 77       		.byte	0x77
 3066 0167 08       		.sleb128 8
 3067 0168 00000000 		.4byte	0
 3068 016c 00000000 		.4byte	0
 3069              	.LLST7:
 3070 0170 00000000 		.4byte	.LFB7
 3071 0174 02000000 		.4byte	.LCFI19
 3072 0178 0200     		.2byte	0x2
 3073 017a 7D       		.byte	0x7d
 3074 017b 00       		.sleb128 0
 3075 017c 02000000 		.4byte	.LCFI19
 3076 0180 04000000 		.4byte	.LCFI20
 3077 0184 0200     		.2byte	0x2
 3078 0186 7D       		.byte	0x7d
 3079 0187 08       		.sleb128 8
 3080 0188 04000000 		.4byte	.LCFI20
 3081 018c 06000000 		.4byte	.LCFI21
 3082 0190 0200     		.2byte	0x2
 3083 0192 7D       		.byte	0x7d
 3084 0193 10       		.sleb128 16
 3085 0194 06000000 		.4byte	.LCFI21
 3086 0198 18000000 		.4byte	.LFE7
 3087 019c 0200     		.2byte	0x2
 3088 019e 77       		.byte	0x77
 3089 019f 10       		.sleb128 16
 3090 01a0 00000000 		.4byte	0
 3091 01a4 00000000 		.4byte	0
 3092              	.LLST8:
 3093 01a8 00000000 		.4byte	.LFB8
 3094 01ac 02000000 		.4byte	.LCFI22
 3095 01b0 0200     		.2byte	0x2
 3096 01b2 7D       		.byte	0x7d
 3097 01b3 00       		.sleb128 0
 3098 01b4 02000000 		.4byte	.LCFI22
 3099 01b8 04000000 		.4byte	.LCFI23
 3100 01bc 0200     		.2byte	0x2
 3101 01be 7D       		.byte	0x7d
 3102 01bf 08       		.sleb128 8
 3103 01c0 04000000 		.4byte	.LCFI23
 3104 01c4 06000000 		.4byte	.LCFI24
 3105 01c8 0200     		.2byte	0x2
 3106 01ca 7D       		.byte	0x7d
 3107 01cb 10       		.sleb128 16
 3108 01cc 06000000 		.4byte	.LCFI24
 3109 01d0 14000000 		.4byte	.LFE8
 3110 01d4 0200     		.2byte	0x2
 3111 01d6 77       		.byte	0x77
 3112 01d7 10       		.sleb128 16
 3113 01d8 00000000 		.4byte	0
 3114 01dc 00000000 		.4byte	0
 3115              	.LLST9:
 3116 01e0 00000000 		.4byte	.LFB9
 3117 01e4 02000000 		.4byte	.LCFI25
 3118 01e8 0200     		.2byte	0x2
ARM GAS  /tmp/ccuKfveS.s 			page 60


 3119 01ea 7D       		.byte	0x7d
 3120 01eb 00       		.sleb128 0
 3121 01ec 02000000 		.4byte	.LCFI25
 3122 01f0 04000000 		.4byte	.LCFI26
 3123 01f4 0200     		.2byte	0x2
 3124 01f6 7D       		.byte	0x7d
 3125 01f7 08       		.sleb128 8
 3126 01f8 04000000 		.4byte	.LCFI26
 3127 01fc 06000000 		.4byte	.LCFI27
 3128 0200 0200     		.2byte	0x2
 3129 0202 7D       		.byte	0x7d
 3130 0203 10       		.sleb128 16
 3131 0204 06000000 		.4byte	.LCFI27
 3132 0208 20000000 		.4byte	.LFE9
 3133 020c 0200     		.2byte	0x2
 3134 020e 77       		.byte	0x77
 3135 020f 10       		.sleb128 16
 3136 0210 00000000 		.4byte	0
 3137 0214 00000000 		.4byte	0
 3138              	.LLST10:
 3139 0218 00000000 		.4byte	.LFB10
 3140 021c 02000000 		.4byte	.LCFI28
 3141 0220 0200     		.2byte	0x2
 3142 0222 7D       		.byte	0x7d
 3143 0223 00       		.sleb128 0
 3144 0224 02000000 		.4byte	.LCFI28
 3145 0228 04000000 		.4byte	.LCFI29
 3146 022c 0200     		.2byte	0x2
 3147 022e 7D       		.byte	0x7d
 3148 022f 08       		.sleb128 8
 3149 0230 04000000 		.4byte	.LCFI29
 3150 0234 06000000 		.4byte	.LCFI30
 3151 0238 0200     		.2byte	0x2
 3152 023a 7D       		.byte	0x7d
 3153 023b 10       		.sleb128 16
 3154 023c 06000000 		.4byte	.LCFI30
 3155 0240 20000000 		.4byte	.LFE10
 3156 0244 0200     		.2byte	0x2
 3157 0246 77       		.byte	0x77
 3158 0247 10       		.sleb128 16
 3159 0248 00000000 		.4byte	0
 3160 024c 00000000 		.4byte	0
 3161              	.LLST11:
 3162 0250 00000000 		.4byte	.LFB11
 3163 0254 02000000 		.4byte	.LCFI31
 3164 0258 0200     		.2byte	0x2
 3165 025a 7D       		.byte	0x7d
 3166 025b 00       		.sleb128 0
 3167 025c 02000000 		.4byte	.LCFI31
 3168 0260 04000000 		.4byte	.LCFI32
 3169 0264 0200     		.2byte	0x2
 3170 0266 7D       		.byte	0x7d
 3171 0267 08       		.sleb128 8
 3172 0268 04000000 		.4byte	.LCFI32
 3173 026c 06000000 		.4byte	.LCFI33
 3174 0270 0200     		.2byte	0x2
 3175 0272 7D       		.byte	0x7d
ARM GAS  /tmp/ccuKfveS.s 			page 61


 3176 0273 18       		.sleb128 24
 3177 0274 06000000 		.4byte	.LCFI33
 3178 0278 18000000 		.4byte	.LFE11
 3179 027c 0200     		.2byte	0x2
 3180 027e 77       		.byte	0x77
 3181 027f 18       		.sleb128 24
 3182 0280 00000000 		.4byte	0
 3183 0284 00000000 		.4byte	0
 3184              	.LLST12:
 3185 0288 00000000 		.4byte	.LFB12
 3186 028c 02000000 		.4byte	.LCFI34
 3187 0290 0200     		.2byte	0x2
 3188 0292 7D       		.byte	0x7d
 3189 0293 00       		.sleb128 0
 3190 0294 02000000 		.4byte	.LCFI34
 3191 0298 04000000 		.4byte	.LCFI35
 3192 029c 0200     		.2byte	0x2
 3193 029e 7D       		.byte	0x7d
 3194 029f 08       		.sleb128 8
 3195 02a0 04000000 		.4byte	.LCFI35
 3196 02a4 06000000 		.4byte	.LCFI36
 3197 02a8 0200     		.2byte	0x2
 3198 02aa 7D       		.byte	0x7d
 3199 02ab 18       		.sleb128 24
 3200 02ac 06000000 		.4byte	.LCFI36
 3201 02b0 16000000 		.4byte	.LFE12
 3202 02b4 0200     		.2byte	0x2
 3203 02b6 77       		.byte	0x77
 3204 02b7 18       		.sleb128 24
 3205 02b8 00000000 		.4byte	0
 3206 02bc 00000000 		.4byte	0
 3207              	.LLST13:
 3208 02c0 00000000 		.4byte	.LFB13
 3209 02c4 02000000 		.4byte	.LCFI37
 3210 02c8 0200     		.2byte	0x2
 3211 02ca 7D       		.byte	0x7d
 3212 02cb 00       		.sleb128 0
 3213 02cc 02000000 		.4byte	.LCFI37
 3214 02d0 04000000 		.4byte	.LCFI38
 3215 02d4 0200     		.2byte	0x2
 3216 02d6 7D       		.byte	0x7d
 3217 02d7 08       		.sleb128 8
 3218 02d8 04000000 		.4byte	.LCFI38
 3219 02dc 06000000 		.4byte	.LCFI39
 3220 02e0 0200     		.2byte	0x2
 3221 02e2 7D       		.byte	0x7d
 3222 02e3 18       		.sleb128 24
 3223 02e4 06000000 		.4byte	.LCFI39
 3224 02e8 1E000000 		.4byte	.LFE13
 3225 02ec 0200     		.2byte	0x2
 3226 02ee 77       		.byte	0x77
 3227 02ef 18       		.sleb128 24
 3228 02f0 00000000 		.4byte	0
 3229 02f4 00000000 		.4byte	0
 3230              	.LLST14:
 3231 02f8 00000000 		.4byte	.LFB14
 3232 02fc 02000000 		.4byte	.LCFI40
ARM GAS  /tmp/ccuKfveS.s 			page 62


 3233 0300 0200     		.2byte	0x2
 3234 0302 7D       		.byte	0x7d
 3235 0303 00       		.sleb128 0
 3236 0304 02000000 		.4byte	.LCFI40
 3237 0308 04000000 		.4byte	.LCFI41
 3238 030c 0200     		.2byte	0x2
 3239 030e 7D       		.byte	0x7d
 3240 030f 08       		.sleb128 8
 3241 0310 04000000 		.4byte	.LCFI41
 3242 0314 06000000 		.4byte	.LCFI42
 3243 0318 0200     		.2byte	0x2
 3244 031a 7D       		.byte	0x7d
 3245 031b 18       		.sleb128 24
 3246 031c 06000000 		.4byte	.LCFI42
 3247 0320 16000000 		.4byte	.LFE14
 3248 0324 0200     		.2byte	0x2
 3249 0326 77       		.byte	0x77
 3250 0327 18       		.sleb128 24
 3251 0328 00000000 		.4byte	0
 3252 032c 00000000 		.4byte	0
 3253              	.LLST15:
 3254 0330 00000000 		.4byte	.LFB15
 3255 0334 02000000 		.4byte	.LCFI43
 3256 0338 0200     		.2byte	0x2
 3257 033a 7D       		.byte	0x7d
 3258 033b 00       		.sleb128 0
 3259 033c 02000000 		.4byte	.LCFI43
 3260 0340 04000000 		.4byte	.LCFI44
 3261 0344 0200     		.2byte	0x2
 3262 0346 7D       		.byte	0x7d
 3263 0347 08       		.sleb128 8
 3264 0348 04000000 		.4byte	.LCFI44
 3265 034c 06000000 		.4byte	.LCFI45
 3266 0350 0200     		.2byte	0x2
 3267 0352 7D       		.byte	0x7d
 3268 0353 18       		.sleb128 24
 3269 0354 06000000 		.4byte	.LCFI45
 3270 0358 18000000 		.4byte	.LFE15
 3271 035c 0200     		.2byte	0x2
 3272 035e 77       		.byte	0x77
 3273 035f 18       		.sleb128 24
 3274 0360 00000000 		.4byte	0
 3275 0364 00000000 		.4byte	0
 3276              	.LLST16:
 3277 0368 00000000 		.4byte	.LFB16
 3278 036c 02000000 		.4byte	.LCFI46
 3279 0370 0200     		.2byte	0x2
 3280 0372 7D       		.byte	0x7d
 3281 0373 00       		.sleb128 0
 3282 0374 02000000 		.4byte	.LCFI46
 3283 0378 04000000 		.4byte	.LCFI47
 3284 037c 0200     		.2byte	0x2
 3285 037e 7D       		.byte	0x7d
 3286 037f 08       		.sleb128 8
 3287 0380 04000000 		.4byte	.LCFI47
 3288 0384 06000000 		.4byte	.LCFI48
 3289 0388 0200     		.2byte	0x2
ARM GAS  /tmp/ccuKfveS.s 			page 63


 3290 038a 7D       		.byte	0x7d
 3291 038b 18       		.sleb128 24
 3292 038c 06000000 		.4byte	.LCFI48
 3293 0390 1C000000 		.4byte	.LFE16
 3294 0394 0200     		.2byte	0x2
 3295 0396 77       		.byte	0x77
 3296 0397 18       		.sleb128 24
 3297 0398 00000000 		.4byte	0
 3298 039c 00000000 		.4byte	0
 3299              	.LLST17:
 3300 03a0 00000000 		.4byte	.LFB17
 3301 03a4 02000000 		.4byte	.LCFI49
 3302 03a8 0200     		.2byte	0x2
 3303 03aa 7D       		.byte	0x7d
 3304 03ab 00       		.sleb128 0
 3305 03ac 02000000 		.4byte	.LCFI49
 3306 03b0 04000000 		.4byte	.LCFI50
 3307 03b4 0200     		.2byte	0x2
 3308 03b6 7D       		.byte	0x7d
 3309 03b7 08       		.sleb128 8
 3310 03b8 04000000 		.4byte	.LCFI50
 3311 03bc 06000000 		.4byte	.LCFI51
 3312 03c0 0200     		.2byte	0x2
 3313 03c2 7D       		.byte	0x7d
 3314 03c3 18       		.sleb128 24
 3315 03c4 06000000 		.4byte	.LCFI51
 3316 03c8 18000000 		.4byte	.LFE17
 3317 03cc 0200     		.2byte	0x2
 3318 03ce 77       		.byte	0x77
 3319 03cf 18       		.sleb128 24
 3320 03d0 00000000 		.4byte	0
 3321 03d4 00000000 		.4byte	0
 3322              	.LLST18:
 3323 03d8 00000000 		.4byte	.LFB18
 3324 03dc 02000000 		.4byte	.LCFI52
 3325 03e0 0200     		.2byte	0x2
 3326 03e2 7D       		.byte	0x7d
 3327 03e3 00       		.sleb128 0
 3328 03e4 02000000 		.4byte	.LCFI52
 3329 03e8 04000000 		.4byte	.LCFI53
 3330 03ec 0200     		.2byte	0x2
 3331 03ee 7D       		.byte	0x7d
 3332 03ef 08       		.sleb128 8
 3333 03f0 04000000 		.4byte	.LCFI53
 3334 03f4 06000000 		.4byte	.LCFI54
 3335 03f8 0200     		.2byte	0x2
 3336 03fa 7D       		.byte	0x7d
 3337 03fb 18       		.sleb128 24
 3338 03fc 06000000 		.4byte	.LCFI54
 3339 0400 3C000000 		.4byte	.LFE18
 3340 0404 0200     		.2byte	0x2
 3341 0406 77       		.byte	0x77
 3342 0407 18       		.sleb128 24
 3343 0408 00000000 		.4byte	0
 3344 040c 00000000 		.4byte	0
 3345              	.LLST19:
 3346 0410 00000000 		.4byte	.LFB19
ARM GAS  /tmp/ccuKfveS.s 			page 64


 3347 0414 02000000 		.4byte	.LCFI55
 3348 0418 0200     		.2byte	0x2
 3349 041a 7D       		.byte	0x7d
 3350 041b 00       		.sleb128 0
 3351 041c 02000000 		.4byte	.LCFI55
 3352 0420 04000000 		.4byte	.LCFI56
 3353 0424 0200     		.2byte	0x2
 3354 0426 7D       		.byte	0x7d
 3355 0427 08       		.sleb128 8
 3356 0428 04000000 		.4byte	.LCFI56
 3357 042c 06000000 		.4byte	.LCFI57
 3358 0430 0200     		.2byte	0x2
 3359 0432 7D       		.byte	0x7d
 3360 0433 10       		.sleb128 16
 3361 0434 06000000 		.4byte	.LCFI57
 3362 0438 14000000 		.4byte	.LFE19
 3363 043c 0200     		.2byte	0x2
 3364 043e 77       		.byte	0x77
 3365 043f 10       		.sleb128 16
 3366 0440 00000000 		.4byte	0
 3367 0444 00000000 		.4byte	0
 3368              	.LLST20:
 3369 0448 00000000 		.4byte	.LFB20
 3370 044c 02000000 		.4byte	.LCFI58
 3371 0450 0200     		.2byte	0x2
 3372 0452 7D       		.byte	0x7d
 3373 0453 00       		.sleb128 0
 3374 0454 02000000 		.4byte	.LCFI58
 3375 0458 04000000 		.4byte	.LCFI59
 3376 045c 0200     		.2byte	0x2
 3377 045e 7D       		.byte	0x7d
 3378 045f 08       		.sleb128 8
 3379 0460 04000000 		.4byte	.LCFI59
 3380 0464 06000000 		.4byte	.LCFI60
 3381 0468 0200     		.2byte	0x2
 3382 046a 7D       		.byte	0x7d
 3383 046b 10       		.sleb128 16
 3384 046c 06000000 		.4byte	.LCFI60
 3385 0470 1C000000 		.4byte	.LFE20
 3386 0474 0200     		.2byte	0x2
 3387 0476 77       		.byte	0x77
 3388 0477 10       		.sleb128 16
 3389 0478 00000000 		.4byte	0
 3390 047c 00000000 		.4byte	0
 3391              	.LLST21:
 3392 0480 00000000 		.4byte	.LFB21
 3393 0484 02000000 		.4byte	.LCFI61
 3394 0488 0200     		.2byte	0x2
 3395 048a 7D       		.byte	0x7d
 3396 048b 00       		.sleb128 0
 3397 048c 02000000 		.4byte	.LCFI61
 3398 0490 04000000 		.4byte	.LCFI62
 3399 0494 0200     		.2byte	0x2
 3400 0496 7D       		.byte	0x7d
 3401 0497 08       		.sleb128 8
 3402 0498 04000000 		.4byte	.LCFI62
 3403 049c 06000000 		.4byte	.LCFI63
ARM GAS  /tmp/ccuKfveS.s 			page 65


 3404 04a0 0200     		.2byte	0x2
 3405 04a2 7D       		.byte	0x7d
 3406 04a3 18       		.sleb128 24
 3407 04a4 06000000 		.4byte	.LCFI63
 3408 04a8 16000000 		.4byte	.LFE21
 3409 04ac 0200     		.2byte	0x2
 3410 04ae 77       		.byte	0x77
 3411 04af 18       		.sleb128 24
 3412 04b0 00000000 		.4byte	0
 3413 04b4 00000000 		.4byte	0
 3414              	.LLST22:
 3415 04b8 00000000 		.4byte	.LFB22
 3416 04bc 02000000 		.4byte	.LCFI64
 3417 04c0 0200     		.2byte	0x2
 3418 04c2 7D       		.byte	0x7d
 3419 04c3 00       		.sleb128 0
 3420 04c4 02000000 		.4byte	.LCFI64
 3421 04c8 04000000 		.4byte	.LCFI65
 3422 04cc 0200     		.2byte	0x2
 3423 04ce 7D       		.byte	0x7d
 3424 04cf 08       		.sleb128 8
 3425 04d0 04000000 		.4byte	.LCFI65
 3426 04d4 06000000 		.4byte	.LCFI66
 3427 04d8 0200     		.2byte	0x2
 3428 04da 7D       		.byte	0x7d
 3429 04db 18       		.sleb128 24
 3430 04dc 06000000 		.4byte	.LCFI66
 3431 04e0 16000000 		.4byte	.LFE22
 3432 04e4 0200     		.2byte	0x2
 3433 04e6 77       		.byte	0x77
 3434 04e7 18       		.sleb128 24
 3435 04e8 00000000 		.4byte	0
 3436 04ec 00000000 		.4byte	0
 3437              	.LLST23:
 3438 04f0 00000000 		.4byte	.LFB23
 3439 04f4 02000000 		.4byte	.LCFI67
 3440 04f8 0200     		.2byte	0x2
 3441 04fa 7D       		.byte	0x7d
 3442 04fb 00       		.sleb128 0
 3443 04fc 02000000 		.4byte	.LCFI67
 3444 0500 04000000 		.4byte	.LCFI68
 3445 0504 0200     		.2byte	0x2
 3446 0506 7D       		.byte	0x7d
 3447 0507 08       		.sleb128 8
 3448 0508 04000000 		.4byte	.LCFI68
 3449 050c 06000000 		.4byte	.LCFI69
 3450 0510 0200     		.2byte	0x2
 3451 0512 7D       		.byte	0x7d
 3452 0513 10       		.sleb128 16
 3453 0514 06000000 		.4byte	.LCFI69
 3454 0518 14000000 		.4byte	.LFE23
 3455 051c 0200     		.2byte	0x2
 3456 051e 77       		.byte	0x77
 3457 051f 10       		.sleb128 16
 3458 0520 00000000 		.4byte	0
 3459 0524 00000000 		.4byte	0
 3460              	.LLST24:
ARM GAS  /tmp/ccuKfveS.s 			page 66


 3461 0528 00000000 		.4byte	.LFB24
 3462 052c 02000000 		.4byte	.LCFI70
 3463 0530 0200     		.2byte	0x2
 3464 0532 7D       		.byte	0x7d
 3465 0533 00       		.sleb128 0
 3466 0534 02000000 		.4byte	.LCFI70
 3467 0538 04000000 		.4byte	.LCFI71
 3468 053c 0200     		.2byte	0x2
 3469 053e 7D       		.byte	0x7d
 3470 053f 08       		.sleb128 8
 3471 0540 04000000 		.4byte	.LCFI71
 3472 0544 06000000 		.4byte	.LCFI72
 3473 0548 0200     		.2byte	0x2
 3474 054a 7D       		.byte	0x7d
 3475 054b 10       		.sleb128 16
 3476 054c 06000000 		.4byte	.LCFI72
 3477 0550 20000000 		.4byte	.LFE24
 3478 0554 0200     		.2byte	0x2
 3479 0556 77       		.byte	0x77
 3480 0557 10       		.sleb128 16
 3481 0558 00000000 		.4byte	0
 3482 055c 00000000 		.4byte	0
 3483              	.LLST25:
 3484 0560 00000000 		.4byte	.LFB25
 3485 0564 02000000 		.4byte	.LCFI73
 3486 0568 0200     		.2byte	0x2
 3487 056a 7D       		.byte	0x7d
 3488 056b 00       		.sleb128 0
 3489 056c 02000000 		.4byte	.LCFI73
 3490 0570 04000000 		.4byte	.LCFI74
 3491 0574 0200     		.2byte	0x2
 3492 0576 7D       		.byte	0x7d
 3493 0577 08       		.sleb128 8
 3494 0578 04000000 		.4byte	.LCFI74
 3495 057c 06000000 		.4byte	.LCFI75
 3496 0580 0200     		.2byte	0x2
 3497 0582 7D       		.byte	0x7d
 3498 0583 10       		.sleb128 16
 3499 0584 06000000 		.4byte	.LCFI75
 3500 0588 16000000 		.4byte	.LFE25
 3501 058c 0200     		.2byte	0x2
 3502 058e 77       		.byte	0x77
 3503 058f 10       		.sleb128 16
 3504 0590 00000000 		.4byte	0
 3505 0594 00000000 		.4byte	0
 3506              	.LLST26:
 3507 0598 00000000 		.4byte	.LFB26
 3508 059c 02000000 		.4byte	.LCFI76
 3509 05a0 0200     		.2byte	0x2
 3510 05a2 7D       		.byte	0x7d
 3511 05a3 00       		.sleb128 0
 3512 05a4 02000000 		.4byte	.LCFI76
 3513 05a8 04000000 		.4byte	.LCFI77
 3514 05ac 0200     		.2byte	0x2
 3515 05ae 7D       		.byte	0x7d
 3516 05af 08       		.sleb128 8
 3517 05b0 04000000 		.4byte	.LCFI77
ARM GAS  /tmp/ccuKfveS.s 			page 67


 3518 05b4 06000000 		.4byte	.LCFI78
 3519 05b8 0200     		.2byte	0x2
 3520 05ba 7D       		.byte	0x7d
 3521 05bb 10       		.sleb128 16
 3522 05bc 06000000 		.4byte	.LCFI78
 3523 05c0 20000000 		.4byte	.LFE26
 3524 05c4 0200     		.2byte	0x2
 3525 05c6 77       		.byte	0x77
 3526 05c7 10       		.sleb128 16
 3527 05c8 00000000 		.4byte	0
 3528 05cc 00000000 		.4byte	0
 3529              	.LLST27:
 3530 05d0 00000000 		.4byte	.LFB27
 3531 05d4 02000000 		.4byte	.LCFI79
 3532 05d8 0200     		.2byte	0x2
 3533 05da 7D       		.byte	0x7d
 3534 05db 00       		.sleb128 0
 3535 05dc 02000000 		.4byte	.LCFI79
 3536 05e0 04000000 		.4byte	.LCFI80
 3537 05e4 0200     		.2byte	0x2
 3538 05e6 7D       		.byte	0x7d
 3539 05e7 08       		.sleb128 8
 3540 05e8 04000000 		.4byte	.LCFI80
 3541 05ec 06000000 		.4byte	.LCFI81
 3542 05f0 0200     		.2byte	0x2
 3543 05f2 7D       		.byte	0x7d
 3544 05f3 10       		.sleb128 16
 3545 05f4 06000000 		.4byte	.LCFI81
 3546 05f8 16000000 		.4byte	.LFE27
 3547 05fc 0200     		.2byte	0x2
 3548 05fe 77       		.byte	0x77
 3549 05ff 10       		.sleb128 16
 3550 0600 00000000 		.4byte	0
 3551 0604 00000000 		.4byte	0
 3552              	.LLST28:
 3553 0608 00000000 		.4byte	.LFB28
 3554 060c 02000000 		.4byte	.LCFI82
 3555 0610 0200     		.2byte	0x2
 3556 0612 7D       		.byte	0x7d
 3557 0613 00       		.sleb128 0
 3558 0614 02000000 		.4byte	.LCFI82
 3559 0618 04000000 		.4byte	.LCFI83
 3560 061c 0200     		.2byte	0x2
 3561 061e 7D       		.byte	0x7d
 3562 061f 08       		.sleb128 8
 3563 0620 04000000 		.4byte	.LCFI83
 3564 0624 06000000 		.4byte	.LCFI84
 3565 0628 0200     		.2byte	0x2
 3566 062a 7D       		.byte	0x7d
 3567 062b 20       		.sleb128 32
 3568 062c 06000000 		.4byte	.LCFI84
 3569 0630 3A000000 		.4byte	.LFE28
 3570 0634 0200     		.2byte	0x2
 3571 0636 77       		.byte	0x77
 3572 0637 20       		.sleb128 32
 3573 0638 00000000 		.4byte	0
 3574 063c 00000000 		.4byte	0
ARM GAS  /tmp/ccuKfveS.s 			page 68


 3575              	.LLST29:
 3576 0640 00000000 		.4byte	.LFB29
 3577 0644 02000000 		.4byte	.LCFI85
 3578 0648 0200     		.2byte	0x2
 3579 064a 7D       		.byte	0x7d
 3580 064b 00       		.sleb128 0
 3581 064c 02000000 		.4byte	.LCFI85
 3582 0650 04000000 		.4byte	.LCFI86
 3583 0654 0200     		.2byte	0x2
 3584 0656 7D       		.byte	0x7d
 3585 0657 08       		.sleb128 8
 3586 0658 04000000 		.4byte	.LCFI86
 3587 065c 06000000 		.4byte	.LCFI87
 3588 0660 0200     		.2byte	0x2
 3589 0662 7D       		.byte	0x7d
 3590 0663 18       		.sleb128 24
 3591 0664 06000000 		.4byte	.LCFI87
 3592 0668 28000000 		.4byte	.LFE29
 3593 066c 0200     		.2byte	0x2
 3594 066e 77       		.byte	0x77
 3595 066f 18       		.sleb128 24
 3596 0670 00000000 		.4byte	0
 3597 0674 00000000 		.4byte	0
 3598              		.section	.debug_aranges,"",%progbits
 3599 0000 04010000 		.4byte	0x104
 3600 0004 0200     		.2byte	0x2
 3601 0006 00000000 		.4byte	.Ldebug_info0
 3602 000a 04       		.byte	0x4
 3603 000b 00       		.byte	0
 3604 000c 0000     		.2byte	0
 3605 000e 0000     		.2byte	0
 3606 0010 00000000 		.4byte	.LFB0
 3607 0014 18000000 		.4byte	.LFE0-.LFB0
 3608 0018 00000000 		.4byte	.LFB1
 3609 001c 14000000 		.4byte	.LFE1-.LFB1
 3610 0020 00000000 		.4byte	.LFB2
 3611 0024 24000000 		.4byte	.LFE2-.LFB2
 3612 0028 00000000 		.4byte	.LFB3
 3613 002c 18000000 		.4byte	.LFE3-.LFB3
 3614 0030 00000000 		.4byte	.LFB4
 3615 0034 14000000 		.4byte	.LFE4-.LFB4
 3616 0038 00000000 		.4byte	.LFB5
 3617 003c 22000000 		.4byte	.LFE5-.LFB5
 3618 0040 00000000 		.4byte	.LFB6
 3619 0044 0C000000 		.4byte	.LFE6-.LFB6
 3620 0048 00000000 		.4byte	.LFB7
 3621 004c 18000000 		.4byte	.LFE7-.LFB7
 3622 0050 00000000 		.4byte	.LFB8
 3623 0054 14000000 		.4byte	.LFE8-.LFB8
 3624 0058 00000000 		.4byte	.LFB9
 3625 005c 20000000 		.4byte	.LFE9-.LFB9
 3626 0060 00000000 		.4byte	.LFB10
 3627 0064 20000000 		.4byte	.LFE10-.LFB10
 3628 0068 00000000 		.4byte	.LFB11
 3629 006c 18000000 		.4byte	.LFE11-.LFB11
 3630 0070 00000000 		.4byte	.LFB12
 3631 0074 16000000 		.4byte	.LFE12-.LFB12
ARM GAS  /tmp/ccuKfveS.s 			page 69


 3632 0078 00000000 		.4byte	.LFB13
 3633 007c 1E000000 		.4byte	.LFE13-.LFB13
 3634 0080 00000000 		.4byte	.LFB14
 3635 0084 16000000 		.4byte	.LFE14-.LFB14
 3636 0088 00000000 		.4byte	.LFB15
 3637 008c 18000000 		.4byte	.LFE15-.LFB15
 3638 0090 00000000 		.4byte	.LFB16
 3639 0094 1C000000 		.4byte	.LFE16-.LFB16
 3640 0098 00000000 		.4byte	.LFB17
 3641 009c 18000000 		.4byte	.LFE17-.LFB17
 3642 00a0 00000000 		.4byte	.LFB18
 3643 00a4 3C000000 		.4byte	.LFE18-.LFB18
 3644 00a8 00000000 		.4byte	.LFB19
 3645 00ac 14000000 		.4byte	.LFE19-.LFB19
 3646 00b0 00000000 		.4byte	.LFB20
 3647 00b4 1C000000 		.4byte	.LFE20-.LFB20
 3648 00b8 00000000 		.4byte	.LFB21
 3649 00bc 16000000 		.4byte	.LFE21-.LFB21
 3650 00c0 00000000 		.4byte	.LFB22
 3651 00c4 16000000 		.4byte	.LFE22-.LFB22
 3652 00c8 00000000 		.4byte	.LFB23
 3653 00cc 14000000 		.4byte	.LFE23-.LFB23
 3654 00d0 00000000 		.4byte	.LFB24
 3655 00d4 20000000 		.4byte	.LFE24-.LFB24
 3656 00d8 00000000 		.4byte	.LFB25
 3657 00dc 16000000 		.4byte	.LFE25-.LFB25
 3658 00e0 00000000 		.4byte	.LFB26
 3659 00e4 20000000 		.4byte	.LFE26-.LFB26
 3660 00e8 00000000 		.4byte	.LFB27
 3661 00ec 16000000 		.4byte	.LFE27-.LFB27
 3662 00f0 00000000 		.4byte	.LFB28
 3663 00f4 3A000000 		.4byte	.LFE28-.LFB28
 3664 00f8 00000000 		.4byte	.LFB29
 3665 00fc 28000000 		.4byte	.LFE29-.LFB29
 3666 0100 00000000 		.4byte	0
 3667 0104 00000000 		.4byte	0
 3668              		.section	.debug_ranges,"",%progbits
 3669              	.Ldebug_ranges0:
 3670 0000 00000000 		.4byte	.LFB0
 3671 0004 18000000 		.4byte	.LFE0
 3672 0008 00000000 		.4byte	.LFB1
 3673 000c 14000000 		.4byte	.LFE1
 3674 0010 00000000 		.4byte	.LFB2
 3675 0014 24000000 		.4byte	.LFE2
 3676 0018 00000000 		.4byte	.LFB3
 3677 001c 18000000 		.4byte	.LFE3
 3678 0020 00000000 		.4byte	.LFB4
 3679 0024 14000000 		.4byte	.LFE4
 3680 0028 00000000 		.4byte	.LFB5
 3681 002c 22000000 		.4byte	.LFE5
 3682 0030 00000000 		.4byte	.LFB6
 3683 0034 0C000000 		.4byte	.LFE6
 3684 0038 00000000 		.4byte	.LFB7
 3685 003c 18000000 		.4byte	.LFE7
 3686 0040 00000000 		.4byte	.LFB8
 3687 0044 14000000 		.4byte	.LFE8
 3688 0048 00000000 		.4byte	.LFB9
ARM GAS  /tmp/ccuKfveS.s 			page 70


 3689 004c 20000000 		.4byte	.LFE9
 3690 0050 00000000 		.4byte	.LFB10
 3691 0054 20000000 		.4byte	.LFE10
 3692 0058 00000000 		.4byte	.LFB11
 3693 005c 18000000 		.4byte	.LFE11
 3694 0060 00000000 		.4byte	.LFB12
 3695 0064 16000000 		.4byte	.LFE12
 3696 0068 00000000 		.4byte	.LFB13
 3697 006c 1E000000 		.4byte	.LFE13
 3698 0070 00000000 		.4byte	.LFB14
 3699 0074 16000000 		.4byte	.LFE14
 3700 0078 00000000 		.4byte	.LFB15
 3701 007c 18000000 		.4byte	.LFE15
 3702 0080 00000000 		.4byte	.LFB16
 3703 0084 1C000000 		.4byte	.LFE16
 3704 0088 00000000 		.4byte	.LFB17
 3705 008c 18000000 		.4byte	.LFE17
 3706 0090 00000000 		.4byte	.LFB18
 3707 0094 3C000000 		.4byte	.LFE18
 3708 0098 00000000 		.4byte	.LFB19
 3709 009c 14000000 		.4byte	.LFE19
 3710 00a0 00000000 		.4byte	.LFB20
 3711 00a4 1C000000 		.4byte	.LFE20
 3712 00a8 00000000 		.4byte	.LFB21
 3713 00ac 16000000 		.4byte	.LFE21
 3714 00b0 00000000 		.4byte	.LFB22
 3715 00b4 16000000 		.4byte	.LFE22
 3716 00b8 00000000 		.4byte	.LFB23
 3717 00bc 14000000 		.4byte	.LFE23
 3718 00c0 00000000 		.4byte	.LFB24
 3719 00c4 20000000 		.4byte	.LFE24
 3720 00c8 00000000 		.4byte	.LFB25
 3721 00cc 16000000 		.4byte	.LFE25
 3722 00d0 00000000 		.4byte	.LFB26
 3723 00d4 20000000 		.4byte	.LFE26
 3724 00d8 00000000 		.4byte	.LFB27
 3725 00dc 16000000 		.4byte	.LFE27
 3726 00e0 00000000 		.4byte	.LFB28
 3727 00e4 3A000000 		.4byte	.LFE28
 3728 00e8 00000000 		.4byte	.LFB29
 3729 00ec 28000000 		.4byte	.LFE29
 3730 00f0 00000000 		.4byte	0
 3731 00f4 00000000 		.4byte	0
 3732              		.section	.debug_macro,"",%progbits
 3733              	.Ldebug_macro0:
 3734 0000 0400     		.2byte	0x4
 3735 0002 02       		.byte	0x2
 3736 0003 00000000 		.4byte	.Ldebug_line0
 3737 0007 07       		.byte	0x7
 3738 0008 00000000 		.4byte	.Ldebug_macro1
 3739 000c 03       		.byte	0x3
 3740 000d 00       		.uleb128 0
 3741 000e 01       		.uleb128 0x1
 3742              		.file 6 "/opt/gcc-arm-none-eabi-4_7-2013q2/bin/../lib/gcc/arm-none-eabi/4.7.4/../../../../arm-none
 3743 000f 03       		.byte	0x3
 3744 0010 1A       		.uleb128 0x1a
 3745 0011 06       		.uleb128 0x6
ARM GAS  /tmp/ccuKfveS.s 			page 71


 3746 0012 07       		.byte	0x7
 3747 0013 00000000 		.4byte	.Ldebug_macro2
 3748              		.file 7 "/opt/gcc-arm-none-eabi-4_7-2013q2/bin/../lib/gcc/arm-none-eabi/4.7.4/../../../../arm-none
 3749 0017 03       		.byte	0x3
 3750 0018 09       		.uleb128 0x9
 3751 0019 07       		.uleb128 0x7
 3752 001a 05       		.byte	0x5
 3753 001b 09       		.uleb128 0x9
 3754 001c 65130000 		.4byte	.LASF93
 3755              		.file 8 "/opt/gcc-arm-none-eabi-4_7-2013q2/bin/../lib/gcc/arm-none-eabi/4.7.4/../../../../arm-none
 3756 0020 03       		.byte	0x3
 3757 0021 0B       		.uleb128 0xb
 3758 0022 08       		.uleb128 0x8
 3759 0023 05       		.byte	0x5
 3760 0024 0B       		.uleb128 0xb
 3761 0025 BC290000 		.4byte	.LASF94
 3762              		.file 9 "/opt/gcc-arm-none-eabi-4_7-2013q2/bin/../lib/gcc/arm-none-eabi/4.7.4/../../../../arm-none
 3763 0029 03       		.byte	0x3
 3764 002a 0D       		.uleb128 0xd
 3765 002b 09       		.uleb128 0x9
 3766 002c 05       		.byte	0x5
 3767 002d 0D       		.uleb128 0xd
 3768 002e ED270000 		.4byte	.LASF95
 3769              		.file 10 "/opt/gcc-arm-none-eabi-4_7-2013q2/bin/../lib/gcc/arm-none-eabi/4.7.4/../../../../arm-non
 3770 0032 03       		.byte	0x3
 3771 0033 0F       		.uleb128 0xf
 3772 0034 0A       		.uleb128 0xa
 3773 0035 07       		.byte	0x7
 3774 0036 00000000 		.4byte	.Ldebug_macro3
 3775 003a 04       		.byte	0x4
 3776              		.file 11 "/opt/gcc-arm-none-eabi-4_7-2013q2/bin/../lib/gcc/arm-none-eabi/4.7.4/../../../../arm-non
 3777 003b 03       		.byte	0x3
 3778 003c 10       		.uleb128 0x10
 3779 003d 0B       		.uleb128 0xb
 3780 003e 05       		.byte	0x5
 3781 003f 02       		.uleb128 0x2
 3782 0040 8C250000 		.4byte	.LASF96
 3783              		.file 12 "/opt/gcc-arm-none-eabi-4_7-2013q2/bin/../lib/gcc/arm-none-eabi/4.7.4/../../../../arm-non
 3784 0044 03       		.byte	0x3
 3785 0045 04       		.uleb128 0x4
 3786 0046 0C       		.uleb128 0xc
 3787 0047 05       		.byte	0x5
 3788 0048 3C       		.uleb128 0x3c
 3789 0049 B02C0000 		.4byte	.LASF97
 3790 004d 04       		.byte	0x4
 3791              		.file 13 "/opt/gcc-arm-none-eabi-4_7-2013q2/bin/../lib/gcc/arm-none-eabi/4.7.4/../../../../arm-non
 3792 004e 03       		.byte	0x3
 3793 004f 05       		.uleb128 0x5
 3794 0050 0D       		.uleb128 0xd
 3795 0051 07       		.byte	0x7
 3796 0052 00000000 		.4byte	.Ldebug_macro4
 3797 0056 04       		.byte	0x4
 3798 0057 07       		.byte	0x7
 3799 0058 00000000 		.4byte	.Ldebug_macro5
 3800 005c 04       		.byte	0x4
 3801 005d 07       		.byte	0x7
 3802 005e 00000000 		.4byte	.Ldebug_macro6
ARM GAS  /tmp/ccuKfveS.s 			page 72


 3803 0062 04       		.byte	0x4
 3804 0063 03       		.byte	0x3
 3805 0064 0E       		.uleb128 0xe
 3806 0065 02       		.uleb128 0x2
 3807 0066 05       		.byte	0x5
 3808 0067 0A       		.uleb128 0xa
 3809 0068 64180000 		.4byte	.LASF98
 3810              		.file 14 "/opt/gcc-arm-none-eabi-4_7-2013q2/bin/../lib/gcc/arm-none-eabi/4.7.4/../../../../arm-non
 3811 006c 03       		.byte	0x3
 3812 006d 0C       		.uleb128 0xc
 3813 006e 0E       		.uleb128 0xe
 3814 006f 05       		.byte	0x5
 3815 0070 06       		.uleb128 0x6
 3816 0071 7C2C0000 		.4byte	.LASF99
 3817              		.file 15 "/opt/gcc-arm-none-eabi-4_7-2013q2/bin/../lib/gcc/arm-none-eabi/4.7.4/../../../../arm-non
 3818 0075 03       		.byte	0x3
 3819 0076 07       		.uleb128 0x7
 3820 0077 0F       		.uleb128 0xf
 3821 0078 07       		.byte	0x7
 3822 0079 00000000 		.4byte	.Ldebug_macro7
 3823 007d 04       		.byte	0x4
 3824 007e 04       		.byte	0x4
 3825              		.file 16 "/opt/gcc-arm-none-eabi-4_7-2013q2/bin/../lib/gcc/arm-none-eabi/4.7.4/../../../../arm-non
 3826 007f 03       		.byte	0x3
 3827 0080 0D       		.uleb128 0xd
 3828 0081 10       		.uleb128 0x10
 3829 0082 07       		.byte	0x7
 3830 0083 00000000 		.4byte	.Ldebug_macro8
 3831 0087 04       		.byte	0x4
 3832 0088 05       		.byte	0x5
 3833 0089 3E       		.uleb128 0x3e
 3834 008a C8400000 		.4byte	.LASF100
 3835 008e 03       		.byte	0x3
 3836 008f 3F       		.uleb128 0x3f
 3837 0090 03       		.uleb128 0x3
 3838 0091 07       		.byte	0x7
 3839 0092 00000000 		.4byte	.Ldebug_macro9
 3840 0096 04       		.byte	0x4
 3841 0097 04       		.byte	0x4
 3842 0098 07       		.byte	0x7
 3843 0099 00000000 		.4byte	.Ldebug_macro10
 3844 009d 04       		.byte	0x4
 3845 009e 07       		.byte	0x7
 3846 009f 00000000 		.4byte	.Ldebug_macro11
 3847 00a3 04       		.byte	0x4
 3848 00a4 04       		.byte	0x4
 3849 00a5 06       		.byte	0x6
 3850 00a6 1B       		.uleb128 0x1b
 3851 00a7 350A0000 		.4byte	.LASF89
 3852 00ab 06       		.byte	0x6
 3853 00ac 25       		.uleb128 0x25
 3854 00ad 350A0000 		.4byte	.LASF89
 3855 00b1 03       		.byte	0x3
 3856 00b2 33       		.uleb128 0x33
 3857 00b3 05       		.uleb128 0x5
 3858 00b4 05       		.byte	0x5
 3859 00b5 02       		.uleb128 0x2
ARM GAS  /tmp/ccuKfveS.s 			page 73


 3860 00b6 DC4D0000 		.4byte	.LASF101
 3861              		.file 17 "/opt/gcc-arm-none-eabi-4_7-2013q2/bin/../lib/gcc/arm-none-eabi/4.7.4/../../../../arm-non
 3862 00ba 03       		.byte	0x3
 3863 00bb 09       		.uleb128 0x9
 3864 00bc 11       		.uleb128 0x11
 3865 00bd 05       		.byte	0x5
 3866 00be 08       		.uleb128 0x8
 3867 00bf E31C0000 		.4byte	.LASF102
 3868 00c3 03       		.byte	0x3
 3869 00c4 0A       		.uleb128 0xa
 3870 00c5 09       		.uleb128 0x9
 3871 00c6 04       		.byte	0x4
 3872 00c7 05       		.byte	0x5
 3873 00c8 0E       		.uleb128 0xe
 3874 00c9 F1040000 		.4byte	.LASF103
 3875              		.file 18 "/opt/gcc-arm-none-eabi-4_7-2013q2/bin/../lib/gcc/arm-none-eabi/4.7.4/../../../../arm-non
 3876 00cd 03       		.byte	0x3
 3877 00ce 12       		.uleb128 0x12
 3878 00cf 12       		.uleb128 0x12
 3879 00d0 07       		.byte	0x7
 3880 00d1 00000000 		.4byte	.Ldebug_macro12
 3881 00d5 04       		.byte	0x4
 3882 00d6 07       		.byte	0x7
 3883 00d7 00000000 		.4byte	.Ldebug_macro13
 3884 00db 03       		.byte	0x3
 3885 00dc 1B       		.uleb128 0x1b
 3886 00dd 03       		.uleb128 0x3
 3887 00de 07       		.byte	0x7
 3888 00df 00000000 		.4byte	.Ldebug_macro14
 3889 00e3 04       		.byte	0x4
 3890 00e4 03       		.byte	0x3
 3891 00e5 1D       		.uleb128 0x1d
 3892 00e6 04       		.uleb128 0x4
 3893 00e7 07       		.byte	0x7
 3894 00e8 00000000 		.4byte	.Ldebug_macro15
 3895 00ec 03       		.byte	0x3
 3896 00ed 45       		.uleb128 0x45
 3897 00ee 03       		.uleb128 0x3
 3898 00ef 07       		.byte	0x7
 3899 00f0 00000000 		.4byte	.Ldebug_macro16
 3900 00f4 04       		.byte	0x4
 3901              		.file 19 "/opt/gcc-arm-none-eabi-4_7-2013q2/bin/../lib/gcc/arm-none-eabi/4.7.4/../../../../arm-non
 3902 00f5 03       		.byte	0x3
 3903 00f6 46       		.uleb128 0x46
 3904 00f7 13       		.uleb128 0x13
 3905 00f8 07       		.byte	0x7
 3906 00f9 00000000 		.4byte	.Ldebug_macro17
 3907 00fd 04       		.byte	0x4
 3908 00fe 07       		.byte	0x7
 3909 00ff 00000000 		.4byte	.Ldebug_macro18
 3910 0103 04       		.byte	0x4
 3911 0104 07       		.byte	0x7
 3912 0105 00000000 		.4byte	.Ldebug_macro19
 3913 0109 04       		.byte	0x4
 3914 010a 07       		.byte	0x7
 3915 010b 00000000 		.4byte	.Ldebug_macro20
 3916 010f 04       		.byte	0x4
ARM GAS  /tmp/ccuKfveS.s 			page 74


 3917 0110 06       		.byte	0x6
 3918 0111 4F       		.uleb128 0x4f
 3919 0112 350A0000 		.4byte	.LASF89
 3920 0116 06       		.byte	0x6
 3921 0117 59       		.uleb128 0x59
 3922 0118 350A0000 		.4byte	.LASF89
 3923 011c 06       		.byte	0x6
 3924 011d C201     		.uleb128 0xc2
 3925 011f 350A0000 		.4byte	.LASF89
 3926 0123 06       		.byte	0x6
 3927 0124 D101     		.uleb128 0xd1
 3928 0126 350A0000 		.4byte	.LASF89
 3929 012a 04       		.byte	0x4
 3930 012b 00       		.byte	0
 3931              		.section	.debug_macro,"G",%progbits,wm4.1.f1278402288c5169f387e8af663aceac,comdat
 3932              	.Ldebug_macro1:
 3933 0000 0400     		.2byte	0x4
 3934 0002 00       		.byte	0
 3935 0003 05       		.byte	0x5
 3936 0004 01       		.uleb128 0x1
 3937 0005 913E0000 		.4byte	.LASF104
 3938 0009 05       		.byte	0x5
 3939 000a 01       		.uleb128 0x1
 3940 000b 25070000 		.4byte	.LASF105
 3941 000f 05       		.byte	0x5
 3942 0010 01       		.uleb128 0x1
 3943 0011 552A0000 		.4byte	.LASF106
 3944 0015 05       		.byte	0x5
 3945 0016 01       		.uleb128 0x1
 3946 0017 3A100000 		.4byte	.LASF107
 3947 001b 05       		.byte	0x5
 3948 001c 01       		.uleb128 0x1
 3949 001d 26050000 		.4byte	.LASF108
 3950 0021 05       		.byte	0x5
 3951 0022 01       		.uleb128 0x1
 3952 0023 5C1D0000 		.4byte	.LASF109
 3953 0027 05       		.byte	0x5
 3954 0028 01       		.uleb128 0x1
 3955 0029 DC370000 		.4byte	.LASF110
 3956 002d 05       		.byte	0x5
 3957 002e 01       		.uleb128 0x1
 3958 002f 060F0000 		.4byte	.LASF111
 3959 0033 05       		.byte	0x5
 3960 0034 01       		.uleb128 0x1
 3961 0035 042A0000 		.4byte	.LASF112
 3962 0039 05       		.byte	0x5
 3963 003a 01       		.uleb128 0x1
 3964 003b 5E3C0000 		.4byte	.LASF113
 3965 003f 05       		.byte	0x5
 3966 0040 01       		.uleb128 0x1
 3967 0041 F1100000 		.4byte	.LASF114
 3968 0045 05       		.byte	0x5
 3969 0046 01       		.uleb128 0x1
 3970 0047 1F1C0000 		.4byte	.LASF115
 3971 004b 05       		.byte	0x5
 3972 004c 01       		.uleb128 0x1
 3973 004d B61F0000 		.4byte	.LASF116
ARM GAS  /tmp/ccuKfveS.s 			page 75


 3974 0051 05       		.byte	0x5
 3975 0052 01       		.uleb128 0x1
 3976 0053 7B430000 		.4byte	.LASF117
 3977 0057 05       		.byte	0x5
 3978 0058 01       		.uleb128 0x1
 3979 0059 5C020000 		.4byte	.LASF118
 3980 005d 05       		.byte	0x5
 3981 005e 01       		.uleb128 0x1
 3982 005f 4E220000 		.4byte	.LASF119
 3983 0063 05       		.byte	0x5
 3984 0064 01       		.uleb128 0x1
 3985 0065 2F400000 		.4byte	.LASF120
 3986 0069 05       		.byte	0x5
 3987 006a 01       		.uleb128 0x1
 3988 006b 600D0000 		.4byte	.LASF121
 3989 006f 05       		.byte	0x5
 3990 0070 01       		.uleb128 0x1
 3991 0071 A4020000 		.4byte	.LASF122
 3992 0075 05       		.byte	0x5
 3993 0076 01       		.uleb128 0x1
 3994 0077 19120000 		.4byte	.LASF123
 3995 007b 05       		.byte	0x5
 3996 007c 01       		.uleb128 0x1
 3997 007d 4C100000 		.4byte	.LASF124
 3998 0081 05       		.byte	0x5
 3999 0082 01       		.uleb128 0x1
 4000 0083 960D0000 		.4byte	.LASF125
 4001 0087 05       		.byte	0x5
 4002 0088 01       		.uleb128 0x1
 4003 0089 9D120000 		.4byte	.LASF126
 4004 008d 05       		.byte	0x5
 4005 008e 01       		.uleb128 0x1
 4006 008f 0B3A0000 		.4byte	.LASF127
 4007 0093 05       		.byte	0x5
 4008 0094 01       		.uleb128 0x1
 4009 0095 F4250000 		.4byte	.LASF128
 4010 0099 05       		.byte	0x5
 4011 009a 01       		.uleb128 0x1
 4012 009b 732E0000 		.4byte	.LASF129
 4013 009f 05       		.byte	0x5
 4014 00a0 01       		.uleb128 0x1
 4015 00a1 96310000 		.4byte	.LASF130
 4016 00a5 05       		.byte	0x5
 4017 00a6 01       		.uleb128 0x1
 4018 00a7 A6070000 		.4byte	.LASF131
 4019 00ab 05       		.byte	0x5
 4020 00ac 01       		.uleb128 0x1
 4021 00ad 032C0000 		.4byte	.LASF132
 4022 00b1 05       		.byte	0x5
 4023 00b2 01       		.uleb128 0x1
 4024 00b3 5B270000 		.4byte	.LASF133
 4025 00b7 05       		.byte	0x5
 4026 00b8 01       		.uleb128 0x1
 4027 00b9 792B0000 		.4byte	.LASF134
 4028 00bd 05       		.byte	0x5
 4029 00be 01       		.uleb128 0x1
 4030 00bf D90B0000 		.4byte	.LASF135
ARM GAS  /tmp/ccuKfveS.s 			page 76


 4031 00c3 05       		.byte	0x5
 4032 00c4 01       		.uleb128 0x1
 4033 00c5 75030000 		.4byte	.LASF136
 4034 00c9 05       		.byte	0x5
 4035 00ca 01       		.uleb128 0x1
 4036 00cb 18320000 		.4byte	.LASF137
 4037 00cf 05       		.byte	0x5
 4038 00d0 01       		.uleb128 0x1
 4039 00d1 E2120000 		.4byte	.LASF138
 4040 00d5 05       		.byte	0x5
 4041 00d6 01       		.uleb128 0x1
 4042 00d7 C3060000 		.4byte	.LASF139
 4043 00db 05       		.byte	0x5
 4044 00dc 01       		.uleb128 0x1
 4045 00dd 05380000 		.4byte	.LASF140
 4046 00e1 05       		.byte	0x5
 4047 00e2 01       		.uleb128 0x1
 4048 00e3 7F370000 		.4byte	.LASF141
 4049 00e7 05       		.byte	0x5
 4050 00e8 01       		.uleb128 0x1
 4051 00e9 8F330000 		.4byte	.LASF142
 4052 00ed 05       		.byte	0x5
 4053 00ee 01       		.uleb128 0x1
 4054 00ef F70C0000 		.4byte	.LASF143
 4055 00f3 05       		.byte	0x5
 4056 00f4 01       		.uleb128 0x1
 4057 00f5 B42B0000 		.4byte	.LASF144
 4058 00f9 05       		.byte	0x5
 4059 00fa 01       		.uleb128 0x1
 4060 00fb E6030000 		.4byte	.LASF145
 4061 00ff 05       		.byte	0x5
 4062 0100 01       		.uleb128 0x1
 4063 0101 6F040000 		.4byte	.LASF146
 4064 0105 05       		.byte	0x5
 4065 0106 01       		.uleb128 0x1
 4066 0107 3F240000 		.4byte	.LASF147
 4067 010b 05       		.byte	0x5
 4068 010c 01       		.uleb128 0x1
 4069 010d C4250000 		.4byte	.LASF148
 4070 0111 05       		.byte	0x5
 4071 0112 01       		.uleb128 0x1
 4072 0113 7A170000 		.4byte	.LASF149
 4073 0117 05       		.byte	0x5
 4074 0118 01       		.uleb128 0x1
 4075 0119 671D0000 		.4byte	.LASF150
 4076 011d 05       		.byte	0x5
 4077 011e 01       		.uleb128 0x1
 4078 011f 453F0000 		.4byte	.LASF151
 4079 0123 05       		.byte	0x5
 4080 0124 01       		.uleb128 0x1
 4081 0125 243A0000 		.4byte	.LASF152
 4082 0129 05       		.byte	0x5
 4083 012a 01       		.uleb128 0x1
 4084 012b EE0B0000 		.4byte	.LASF153
 4085 012f 05       		.byte	0x5
 4086 0130 01       		.uleb128 0x1
 4087 0131 7D410000 		.4byte	.LASF154
ARM GAS  /tmp/ccuKfveS.s 			page 77


 4088 0135 05       		.byte	0x5
 4089 0136 01       		.uleb128 0x1
 4090 0137 4F310000 		.4byte	.LASF155
 4091 013b 05       		.byte	0x5
 4092 013c 01       		.uleb128 0x1
 4093 013d F84D0000 		.4byte	.LASF156
 4094 0141 05       		.byte	0x5
 4095 0142 01       		.uleb128 0x1
 4096 0143 120A0000 		.4byte	.LASF157
 4097 0147 05       		.byte	0x5
 4098 0148 01       		.uleb128 0x1
 4099 0149 2E330000 		.4byte	.LASF158
 4100 014d 05       		.byte	0x5
 4101 014e 01       		.uleb128 0x1
 4102 014f B4370000 		.4byte	.LASF159
 4103 0153 05       		.byte	0x5
 4104 0154 01       		.uleb128 0x1
 4105 0155 071F0000 		.4byte	.LASF160
 4106 0159 05       		.byte	0x5
 4107 015a 01       		.uleb128 0x1
 4108 015b 05050000 		.4byte	.LASF161
 4109 015f 05       		.byte	0x5
 4110 0160 01       		.uleb128 0x1
 4111 0161 A5320000 		.4byte	.LASF162
 4112 0165 05       		.byte	0x5
 4113 0166 01       		.uleb128 0x1
 4114 0167 99280000 		.4byte	.LASF163
 4115 016b 05       		.byte	0x5
 4116 016c 01       		.uleb128 0x1
 4117 016d 79050000 		.4byte	.LASF164
 4118 0171 05       		.byte	0x5
 4119 0172 01       		.uleb128 0x1
 4120 0173 ED1D0000 		.4byte	.LASF165
 4121 0177 05       		.byte	0x5
 4122 0178 01       		.uleb128 0x1
 4123 0179 97400000 		.4byte	.LASF166
 4124 017d 05       		.byte	0x5
 4125 017e 01       		.uleb128 0x1
 4126 017f 07100000 		.4byte	.LASF167
 4127 0183 05       		.byte	0x5
 4128 0184 01       		.uleb128 0x1
 4129 0185 39130000 		.4byte	.LASF168
 4130 0189 05       		.byte	0x5
 4131 018a 01       		.uleb128 0x1
 4132 018b E4080000 		.4byte	.LASF169
 4133 018f 05       		.byte	0x5
 4134 0190 01       		.uleb128 0x1
 4135 0191 AA390000 		.4byte	.LASF170
 4136 0195 05       		.byte	0x5
 4137 0196 01       		.uleb128 0x1
 4138 0197 22130000 		.4byte	.LASF171
 4139 019b 05       		.byte	0x5
 4140 019c 01       		.uleb128 0x1
 4141 019d 09080000 		.4byte	.LASF172
 4142 01a1 05       		.byte	0x5
 4143 01a2 01       		.uleb128 0x1
 4144 01a3 193D0000 		.4byte	.LASF173
ARM GAS  /tmp/ccuKfveS.s 			page 78


 4145 01a7 05       		.byte	0x5
 4146 01a8 01       		.uleb128 0x1
 4147 01a9 A11E0000 		.4byte	.LASF174
 4148 01ad 05       		.byte	0x5
 4149 01ae 01       		.uleb128 0x1
 4150 01af E33D0000 		.4byte	.LASF175
 4151 01b3 05       		.byte	0x5
 4152 01b4 01       		.uleb128 0x1
 4153 01b5 EA000000 		.4byte	.LASF176
 4154 01b9 05       		.byte	0x5
 4155 01ba 01       		.uleb128 0x1
 4156 01bb 020B0000 		.4byte	.LASF177
 4157 01bf 05       		.byte	0x5
 4158 01c0 01       		.uleb128 0x1
 4159 01c1 97230000 		.4byte	.LASF178
 4160 01c5 05       		.byte	0x5
 4161 01c6 01       		.uleb128 0x1
 4162 01c7 E9240000 		.4byte	.LASF179
 4163 01cb 05       		.byte	0x5
 4164 01cc 01       		.uleb128 0x1
 4165 01cd 21410000 		.4byte	.LASF180
 4166 01d1 05       		.byte	0x5
 4167 01d2 01       		.uleb128 0x1
 4168 01d3 53390000 		.4byte	.LASF181
 4169 01d7 05       		.byte	0x5
 4170 01d8 01       		.uleb128 0x1
 4171 01d9 18360000 		.4byte	.LASF182
 4172 01dd 05       		.byte	0x5
 4173 01de 01       		.uleb128 0x1
 4174 01df B4080000 		.4byte	.LASF183
 4175 01e3 05       		.byte	0x5
 4176 01e4 01       		.uleb128 0x1
 4177 01e5 A9010000 		.4byte	.LASF184
 4178 01e9 05       		.byte	0x5
 4179 01ea 01       		.uleb128 0x1
 4180 01eb 57370000 		.4byte	.LASF185
 4181 01ef 05       		.byte	0x5
 4182 01f0 01       		.uleb128 0x1
 4183 01f1 C10B0000 		.4byte	.LASF186
 4184 01f5 05       		.byte	0x5
 4185 01f6 01       		.uleb128 0x1
 4186 01f7 342C0000 		.4byte	.LASF187
 4187 01fb 05       		.byte	0x5
 4188 01fc 01       		.uleb128 0x1
 4189 01fd 04190000 		.4byte	.LASF188
 4190 0201 05       		.byte	0x5
 4191 0202 01       		.uleb128 0x1
 4192 0203 9D0C0000 		.4byte	.LASF189
 4193 0207 05       		.byte	0x5
 4194 0208 01       		.uleb128 0x1
 4195 0209 6C080000 		.4byte	.LASF190
 4196 020d 05       		.byte	0x5
 4197 020e 01       		.uleb128 0x1
 4198 020f 6D300000 		.4byte	.LASF191
 4199 0213 05       		.byte	0x5
 4200 0214 01       		.uleb128 0x1
 4201 0215 EB160000 		.4byte	.LASF192
ARM GAS  /tmp/ccuKfveS.s 			page 79


 4202 0219 05       		.byte	0x5
 4203 021a 01       		.uleb128 0x1
 4204 021b 7C1E0000 		.4byte	.LASF193
 4205 021f 05       		.byte	0x5
 4206 0220 01       		.uleb128 0x1
 4207 0221 6C3B0000 		.4byte	.LASF194
 4208 0225 05       		.byte	0x5
 4209 0226 01       		.uleb128 0x1
 4210 0227 A8230000 		.4byte	.LASF195
 4211 022b 05       		.byte	0x5
 4212 022c 01       		.uleb128 0x1
 4213 022d 0C060000 		.4byte	.LASF196
 4214 0231 05       		.byte	0x5
 4215 0232 01       		.uleb128 0x1
 4216 0233 9E2D0000 		.4byte	.LASF197
 4217 0237 05       		.byte	0x5
 4218 0238 01       		.uleb128 0x1
 4219 0239 C62F0000 		.4byte	.LASF198
 4220 023d 05       		.byte	0x5
 4221 023e 01       		.uleb128 0x1
 4222 023f 39160000 		.4byte	.LASF199
 4223 0243 05       		.byte	0x5
 4224 0244 01       		.uleb128 0x1
 4225 0245 F7340000 		.4byte	.LASF200
 4226 0249 05       		.byte	0x5
 4227 024a 01       		.uleb128 0x1
 4228 024b 40380000 		.4byte	.LASF201
 4229 024f 05       		.byte	0x5
 4230 0250 01       		.uleb128 0x1
 4231 0251 88070000 		.4byte	.LASF202
 4232 0255 05       		.byte	0x5
 4233 0256 01       		.uleb128 0x1
 4234 0257 B9350000 		.4byte	.LASF203
 4235 025b 05       		.byte	0x5
 4236 025c 01       		.uleb128 0x1
 4237 025d 643A0000 		.4byte	.LASF204
 4238 0261 05       		.byte	0x5
 4239 0262 01       		.uleb128 0x1
 4240 0263 4F440000 		.4byte	.LASF205
 4241 0267 05       		.byte	0x5
 4242 0268 01       		.uleb128 0x1
 4243 0269 60040000 		.4byte	.LASF206
 4244 026d 05       		.byte	0x5
 4245 026e 01       		.uleb128 0x1
 4246 026f EE330000 		.4byte	.LASF207
 4247 0273 05       		.byte	0x5
 4248 0274 01       		.uleb128 0x1
 4249 0275 AF3B0000 		.4byte	.LASF208
 4250 0279 05       		.byte	0x5
 4251 027a 01       		.uleb128 0x1
 4252 027b 613D0000 		.4byte	.LASF209
 4253 027f 05       		.byte	0x5
 4254 0280 01       		.uleb128 0x1
 4255 0281 B1160000 		.4byte	.LASF210
 4256 0285 05       		.byte	0x5
 4257 0286 01       		.uleb128 0x1
 4258 0287 302F0000 		.4byte	.LASF211
ARM GAS  /tmp/ccuKfveS.s 			page 80


 4259 028b 05       		.byte	0x5
 4260 028c 01       		.uleb128 0x1
 4261 028d F01E0000 		.4byte	.LASF212
 4262 0291 05       		.byte	0x5
 4263 0292 01       		.uleb128 0x1
 4264 0293 702F0000 		.4byte	.LASF213
 4265 0297 05       		.byte	0x5
 4266 0298 01       		.uleb128 0x1
 4267 0299 4B2D0000 		.4byte	.LASF214
 4268 029d 05       		.byte	0x5
 4269 029e 01       		.uleb128 0x1
 4270 029f 05280000 		.4byte	.LASF215
 4271 02a3 05       		.byte	0x5
 4272 02a4 01       		.uleb128 0x1
 4273 02a5 FA1A0000 		.4byte	.LASF216
 4274 02a9 05       		.byte	0x5
 4275 02aa 01       		.uleb128 0x1
 4276 02ab 6A110000 		.4byte	.LASF217
 4277 02af 05       		.byte	0x5
 4278 02b0 01       		.uleb128 0x1
 4279 02b1 CD2E0000 		.4byte	.LASF218
 4280 02b5 05       		.byte	0x5
 4281 02b6 01       		.uleb128 0x1
 4282 02b7 2F440000 		.4byte	.LASF219
 4283 02bb 05       		.byte	0x5
 4284 02bc 01       		.uleb128 0x1
 4285 02bd 740A0000 		.4byte	.LASF220
 4286 02c1 05       		.byte	0x5
 4287 02c2 01       		.uleb128 0x1
 4288 02c3 DF360000 		.4byte	.LASF221
 4289 02c7 05       		.byte	0x5
 4290 02c8 01       		.uleb128 0x1
 4291 02c9 3B290000 		.4byte	.LASF222
 4292 02cd 05       		.byte	0x5
 4293 02ce 01       		.uleb128 0x1
 4294 02cf CB290000 		.4byte	.LASF223
 4295 02d3 05       		.byte	0x5
 4296 02d4 01       		.uleb128 0x1
 4297 02d5 FB280000 		.4byte	.LASF224
 4298 02d9 05       		.byte	0x5
 4299 02da 01       		.uleb128 0x1
 4300 02db 75240000 		.4byte	.LASF225
 4301 02df 05       		.byte	0x5
 4302 02e0 01       		.uleb128 0x1
 4303 02e1 EC1F0000 		.4byte	.LASF226
 4304 02e5 05       		.byte	0x5
 4305 02e6 01       		.uleb128 0x1
 4306 02e7 57290000 		.4byte	.LASF227
 4307 02eb 05       		.byte	0x5
 4308 02ec 01       		.uleb128 0x1
 4309 02ed E4280000 		.4byte	.LASF228
 4310 02f1 05       		.byte	0x5
 4311 02f2 01       		.uleb128 0x1
 4312 02f3 EB310000 		.4byte	.LASF229
 4313 02f7 05       		.byte	0x5
 4314 02f8 01       		.uleb128 0x1
 4315 02f9 4C0D0000 		.4byte	.LASF230
ARM GAS  /tmp/ccuKfveS.s 			page 81


 4316 02fd 05       		.byte	0x5
 4317 02fe 01       		.uleb128 0x1
 4318 02ff 71100000 		.4byte	.LASF231
 4319 0303 05       		.byte	0x5
 4320 0304 01       		.uleb128 0x1
 4321 0305 410E0000 		.4byte	.LASF232
 4322 0309 05       		.byte	0x5
 4323 030a 01       		.uleb128 0x1
 4324 030b 39230000 		.4byte	.LASF233
 4325 030f 05       		.byte	0x5
 4326 0310 01       		.uleb128 0x1
 4327 0311 BB130000 		.4byte	.LASF234
 4328 0315 05       		.byte	0x5
 4329 0316 01       		.uleb128 0x1
 4330 0317 0F170000 		.4byte	.LASF235
 4331 031b 05       		.byte	0x5
 4332 031c 01       		.uleb128 0x1
 4333 031d FE150000 		.4byte	.LASF236
 4334 0321 05       		.byte	0x5
 4335 0322 01       		.uleb128 0x1
 4336 0323 D1030000 		.4byte	.LASF237
 4337 0327 05       		.byte	0x5
 4338 0328 01       		.uleb128 0x1
 4339 0329 30110000 		.4byte	.LASF238
 4340 032d 05       		.byte	0x5
 4341 032e 01       		.uleb128 0x1
 4342 032f C62C0000 		.4byte	.LASF239
 4343 0333 05       		.byte	0x5
 4344 0334 01       		.uleb128 0x1
 4345 0335 B54D0000 		.4byte	.LASF240
 4346 0339 05       		.byte	0x5
 4347 033a 01       		.uleb128 0x1
 4348 033b DD390000 		.4byte	.LASF241
 4349 033f 05       		.byte	0x5
 4350 0340 01       		.uleb128 0x1
 4351 0341 13300000 		.4byte	.LASF242
 4352 0345 05       		.byte	0x5
 4353 0346 01       		.uleb128 0x1
 4354 0347 AB430000 		.4byte	.LASF243
 4355 034b 05       		.byte	0x5
 4356 034c 01       		.uleb128 0x1
 4357 034d 55110000 		.4byte	.LASF244
 4358 0351 05       		.byte	0x5
 4359 0352 01       		.uleb128 0x1
 4360 0353 BB020000 		.4byte	.LASF245
 4361 0357 05       		.byte	0x5
 4362 0358 01       		.uleb128 0x1
 4363 0359 3D3D0000 		.4byte	.LASF246
 4364 035d 05       		.byte	0x5
 4365 035e 01       		.uleb128 0x1
 4366 035f 9C410000 		.4byte	.LASF247
 4367 0363 05       		.byte	0x5
 4368 0364 01       		.uleb128 0x1
 4369 0365 B80A0000 		.4byte	.LASF248
 4370 0369 05       		.byte	0x5
 4371 036a 01       		.uleb128 0x1
 4372 036b 421C0000 		.4byte	.LASF249
ARM GAS  /tmp/ccuKfveS.s 			page 82


 4373 036f 05       		.byte	0x5
 4374 0370 01       		.uleb128 0x1
 4375 0371 63280000 		.4byte	.LASF250
 4376 0375 05       		.byte	0x5
 4377 0376 01       		.uleb128 0x1
 4378 0377 33150000 		.4byte	.LASF251
 4379 037b 05       		.byte	0x5
 4380 037c 01       		.uleb128 0x1
 4381 037d 913C0000 		.4byte	.LASF252
 4382 0381 05       		.byte	0x5
 4383 0382 01       		.uleb128 0x1
 4384 0383 C3380000 		.4byte	.LASF253
 4385 0387 05       		.byte	0x5
 4386 0388 01       		.uleb128 0x1
 4387 0389 45040000 		.4byte	.LASF254
 4388 038d 05       		.byte	0x5
 4389 038e 01       		.uleb128 0x1
 4390 038f 11410000 		.4byte	.LASF255
 4391 0393 05       		.byte	0x5
 4392 0394 01       		.uleb128 0x1
 4393 0395 2C040000 		.4byte	.LASF256
 4394 0399 05       		.byte	0x5
 4395 039a 01       		.uleb128 0x1
 4396 039b AF1C0000 		.4byte	.LASF257
 4397 039f 05       		.byte	0x5
 4398 03a0 01       		.uleb128 0x1
 4399 03a1 13150000 		.4byte	.LASF258
 4400 03a5 05       		.byte	0x5
 4401 03a6 01       		.uleb128 0x1
 4402 03a7 46280000 		.4byte	.LASF259
 4403 03ab 05       		.byte	0x5
 4404 03ac 01       		.uleb128 0x1
 4405 03ad 00000000 		.4byte	.LASF260
 4406 03b1 05       		.byte	0x5
 4407 03b2 01       		.uleb128 0x1
 4408 03b3 19240000 		.4byte	.LASF261
 4409 03b7 05       		.byte	0x5
 4410 03b8 01       		.uleb128 0x1
 4411 03b9 1F3B0000 		.4byte	.LASF262
 4412 03bd 05       		.byte	0x5
 4413 03be 01       		.uleb128 0x1
 4414 03bf 471F0000 		.4byte	.LASF263
 4415 03c3 05       		.byte	0x5
 4416 03c4 01       		.uleb128 0x1
 4417 03c5 72220000 		.4byte	.LASF264
 4418 03c9 05       		.byte	0x5
 4419 03ca 01       		.uleb128 0x1
 4420 03cb 35300000 		.4byte	.LASF265
 4421 03cf 05       		.byte	0x5
 4422 03d0 01       		.uleb128 0x1
 4423 03d1 9A180000 		.4byte	.LASF266
 4424 03d5 05       		.byte	0x5
 4425 03d6 01       		.uleb128 0x1
 4426 03d7 CA1C0000 		.4byte	.LASF267
 4427 03db 05       		.byte	0x5
 4428 03dc 01       		.uleb128 0x1
 4429 03dd 0F2E0000 		.4byte	.LASF268
ARM GAS  /tmp/ccuKfveS.s 			page 83


 4430 03e1 05       		.byte	0x5
 4431 03e2 01       		.uleb128 0x1
 4432 03e3 CB3E0000 		.4byte	.LASF269
 4433 03e7 05       		.byte	0x5
 4434 03e8 01       		.uleb128 0x1
 4435 03e9 A51D0000 		.4byte	.LASF270
 4436 03ed 05       		.byte	0x5
 4437 03ee 01       		.uleb128 0x1
 4438 03ef 3E030000 		.4byte	.LASF271
 4439 03f3 05       		.byte	0x5
 4440 03f4 01       		.uleb128 0x1
 4441 03f5 B2180000 		.4byte	.LASF272
 4442 03f9 05       		.byte	0x5
 4443 03fa 01       		.uleb128 0x1
 4444 03fb 1B080000 		.4byte	.LASF273
 4445 03ff 05       		.byte	0x5
 4446 0400 01       		.uleb128 0x1
 4447 0401 F4010000 		.4byte	.LASF274
 4448 0405 05       		.byte	0x5
 4449 0406 01       		.uleb128 0x1
 4450 0407 BE310000 		.4byte	.LASF275
 4451 040b 05       		.byte	0x5
 4452 040c 01       		.uleb128 0x1
 4453 040d DB2A0000 		.4byte	.LASF276
 4454 0411 05       		.byte	0x5
 4455 0412 01       		.uleb128 0x1
 4456 0413 90030000 		.4byte	.LASF277
 4457 0417 05       		.byte	0x5
 4458 0418 01       		.uleb128 0x1
 4459 0419 CC300000 		.4byte	.LASF278
 4460 041d 05       		.byte	0x5
 4461 041e 01       		.uleb128 0x1
 4462 041f E00D0000 		.4byte	.LASF279
 4463 0423 05       		.byte	0x5
 4464 0424 01       		.uleb128 0x1
 4465 0425 47410000 		.4byte	.LASF280
 4466 0429 05       		.byte	0x5
 4467 042a 01       		.uleb128 0x1
 4468 042b 871A0000 		.4byte	.LASF281
 4469 042f 05       		.byte	0x5
 4470 0430 01       		.uleb128 0x1
 4471 0431 1D2C0000 		.4byte	.LASF282
 4472 0435 05       		.byte	0x5
 4473 0436 01       		.uleb128 0x1
 4474 0437 1C0B0000 		.4byte	.LASF283
 4475 043b 05       		.byte	0x5
 4476 043c 01       		.uleb128 0x1
 4477 043d 30390000 		.4byte	.LASF284
 4478 0441 05       		.byte	0x5
 4479 0442 01       		.uleb128 0x1
 4480 0443 4B3A0000 		.4byte	.LASF285
 4481 0447 05       		.byte	0x5
 4482 0448 01       		.uleb128 0x1
 4483 0449 56010000 		.4byte	.LASF286
 4484 044d 05       		.byte	0x5
 4485 044e 01       		.uleb128 0x1
 4486 044f 34000000 		.4byte	.LASF287
ARM GAS  /tmp/ccuKfveS.s 			page 84


 4487 0453 05       		.byte	0x5
 4488 0454 01       		.uleb128 0x1
 4489 0455 A3110000 		.4byte	.LASF288
 4490 0459 05       		.byte	0x5
 4491 045a 01       		.uleb128 0x1
 4492 045b 06440000 		.4byte	.LASF289
 4493 045f 05       		.byte	0x5
 4494 0460 01       		.uleb128 0x1
 4495 0461 A7420000 		.4byte	.LASF290
 4496 0465 05       		.byte	0x5
 4497 0466 01       		.uleb128 0x1
 4498 0467 1D1D0000 		.4byte	.LASF291
 4499 046b 05       		.byte	0x5
 4500 046c 01       		.uleb128 0x1
 4501 046d 12430000 		.4byte	.LASF292
 4502 0471 05       		.byte	0x5
 4503 0472 01       		.uleb128 0x1
 4504 0473 63070000 		.4byte	.LASF293
 4505 0477 05       		.byte	0x5
 4506 0478 01       		.uleb128 0x1
 4507 0479 341F0000 		.4byte	.LASF294
 4508 047d 05       		.byte	0x5
 4509 047e 01       		.uleb128 0x1
 4510 047f 58140000 		.4byte	.LASF295
 4511 0483 05       		.byte	0x5
 4512 0484 01       		.uleb128 0x1
 4513 0485 95140000 		.4byte	.LASF296
 4514 0489 05       		.byte	0x5
 4515 048a 01       		.uleb128 0x1
 4516 048b 40060000 		.4byte	.LASF297
 4517 048f 05       		.byte	0x5
 4518 0490 01       		.uleb128 0x1
 4519 0491 B81A0000 		.4byte	.LASF298
 4520 0495 05       		.byte	0x5
 4521 0496 01       		.uleb128 0x1
 4522 0497 BC0E0000 		.4byte	.LASF299
 4523 049b 05       		.byte	0x5
 4524 049c 01       		.uleb128 0x1
 4525 049d 80310000 		.4byte	.LASF300
 4526 04a1 05       		.byte	0x5
 4527 04a2 01       		.uleb128 0x1
 4528 04a3 D2020000 		.4byte	.LASF301
 4529 04a7 05       		.byte	0x5
 4530 04a8 01       		.uleb128 0x1
 4531 04a9 87100000 		.4byte	.LASF302
 4532 04ad 05       		.byte	0x5
 4533 04ae 01       		.uleb128 0x1
 4534 04af 221E0000 		.4byte	.LASF303
 4535 04b3 05       		.byte	0x5
 4536 04b4 01       		.uleb128 0x1
 4537 04b5 23280000 		.4byte	.LASF304
 4538 04b9 05       		.byte	0x5
 4539 04ba 01       		.uleb128 0x1
 4540 04bb 9C2F0000 		.4byte	.LASF305
 4541 04bf 05       		.byte	0x5
 4542 04c0 01       		.uleb128 0x1
 4543 04c1 5C090000 		.4byte	.LASF306
ARM GAS  /tmp/ccuKfveS.s 			page 85


 4544 04c5 05       		.byte	0x5
 4545 04c6 01       		.uleb128 0x1
 4546 04c7 91260000 		.4byte	.LASF307
 4547 04cb 05       		.byte	0x5
 4548 04cc 01       		.uleb128 0x1
 4549 04cd 7A230000 		.4byte	.LASF308
 4550 04d1 05       		.byte	0x5
 4551 04d2 01       		.uleb128 0x1
 4552 04d3 E1250000 		.4byte	.LASF309
 4553 04d7 05       		.byte	0x5
 4554 04d8 01       		.uleb128 0x1
 4555 04d9 D42F0000 		.4byte	.LASF310
 4556 04dd 05       		.byte	0x5
 4557 04de 01       		.uleb128 0x1
 4558 04df 6F020000 		.4byte	.LASF311
 4559 04e3 05       		.byte	0x5
 4560 04e4 01       		.uleb128 0x1
 4561 04e5 0F2B0000 		.4byte	.LASF312
 4562 04e9 05       		.byte	0x5
 4563 04ea 01       		.uleb128 0x1
 4564 04eb 692D0000 		.4byte	.LASF313
 4565 04ef 05       		.byte	0x5
 4566 04f0 01       		.uleb128 0x1
 4567 04f1 DE060000 		.4byte	.LASF314
 4568 04f5 05       		.byte	0x5
 4569 04f6 01       		.uleb128 0x1
 4570 04f7 C94D0000 		.4byte	.LASF315
 4571 04fb 05       		.byte	0x5
 4572 04fc 01       		.uleb128 0x1
 4573 04fd 06350000 		.4byte	.LASF316
 4574 0501 05       		.byte	0x5
 4575 0502 01       		.uleb128 0x1
 4576 0503 0C330000 		.4byte	.LASF317
 4577 0507 05       		.byte	0x5
 4578 0508 01       		.uleb128 0x1
 4579 0509 EC390000 		.4byte	.LASF318
 4580 050d 05       		.byte	0x5
 4581 050e 01       		.uleb128 0x1
 4582 050f D7410000 		.4byte	.LASF319
 4583 0513 05       		.byte	0x5
 4584 0514 01       		.uleb128 0x1
 4585 0515 4E400000 		.4byte	.LASF320
 4586 0519 05       		.byte	0x5
 4587 051a 01       		.uleb128 0x1
 4588 051b 8D080000 		.4byte	.LASF321
 4589 051f 05       		.byte	0x5
 4590 0520 01       		.uleb128 0x1
 4591 0521 06390000 		.4byte	.LASF322
 4592 0525 05       		.byte	0x5
 4593 0526 01       		.uleb128 0x1
 4594 0527 A5270000 		.4byte	.LASF323
 4595 052b 05       		.byte	0x5
 4596 052c 01       		.uleb128 0x1
 4597 052d 38050000 		.4byte	.LASF324
 4598 0531 05       		.byte	0x5
 4599 0532 01       		.uleb128 0x1
 4600 0533 A9220000 		.4byte	.LASF325
ARM GAS  /tmp/ccuKfveS.s 			page 86


 4601 0537 05       		.byte	0x5
 4602 0538 01       		.uleb128 0x1
 4603 0539 993F0000 		.4byte	.LASF326
 4604 053d 05       		.byte	0x5
 4605 053e 01       		.uleb128 0x1
 4606 053f 710C0000 		.4byte	.LASF327
 4607 0543 05       		.byte	0x5
 4608 0544 01       		.uleb128 0x1
 4609 0545 4E3E0000 		.4byte	.LASF328
 4610 0549 05       		.byte	0x5
 4611 054a 01       		.uleb128 0x1
 4612 054b 1B4E0000 		.4byte	.LASF329
 4613 054f 05       		.byte	0x5
 4614 0550 01       		.uleb128 0x1
 4615 0551 5F100000 		.4byte	.LASF330
 4616 0555 05       		.byte	0x5
 4617 0556 01       		.uleb128 0x1
 4618 0557 EA320000 		.4byte	.LASF331
 4619 055b 05       		.byte	0x5
 4620 055c 01       		.uleb128 0x1
 4621 055d 6E390000 		.4byte	.LASF332
 4622 0561 05       		.byte	0x5
 4623 0562 01       		.uleb128 0x1
 4624 0563 70400000 		.4byte	.LASF333
 4625 0567 05       		.byte	0x5
 4626 0568 01       		.uleb128 0x1
 4627 0569 14180000 		.4byte	.LASF334
 4628 056d 05       		.byte	0x5
 4629 056e 01       		.uleb128 0x1
 4630 056f 20290000 		.4byte	.LASF335
 4631 0573 05       		.byte	0x5
 4632 0574 01       		.uleb128 0x1
 4633 0575 8B2E0000 		.4byte	.LASF336
 4634 0579 05       		.byte	0x5
 4635 057a 01       		.uleb128 0x1
 4636 057b 21030000 		.4byte	.LASF337
 4637 057f 05       		.byte	0x5
 4638 0580 01       		.uleb128 0x1
 4639 0581 A5380000 		.4byte	.LASF338
 4640 0585 05       		.byte	0x5
 4641 0586 01       		.uleb128 0x1
 4642 0587 3B0A0000 		.4byte	.LASF339
 4643 058b 05       		.byte	0x5
 4644 058c 01       		.uleb128 0x1
 4645 058d 453B0000 		.4byte	.LASF340
 4646 0591 05       		.byte	0x5
 4647 0592 01       		.uleb128 0x1
 4648 0593 0F310000 		.4byte	.LASF341
 4649 0597 05       		.byte	0x5
 4650 0598 01       		.uleb128 0x1
 4651 0599 8B1C0000 		.4byte	.LASF342
 4652 059d 05       		.byte	0x5
 4653 059e 01       		.uleb128 0x1
 4654 059f D7400000 		.4byte	.LASF343
 4655 05a3 05       		.byte	0x5
 4656 05a4 01       		.uleb128 0x1
 4657 05a5 67230000 		.4byte	.LASF344
ARM GAS  /tmp/ccuKfveS.s 			page 87


 4658 05a9 05       		.byte	0x5
 4659 05aa 01       		.uleb128 0x1
 4660 05ab 580A0000 		.4byte	.LASF345
 4661 05af 05       		.byte	0x5
 4662 05b0 01       		.uleb128 0x1
 4663 05b1 31190000 		.4byte	.LASF346
 4664 05b5 05       		.byte	0x5
 4665 05b6 01       		.uleb128 0x1
 4666 05b7 CA010000 		.4byte	.LASF347
 4667 05bb 05       		.byte	0x5
 4668 05bc 01       		.uleb128 0x1
 4669 05bd 65290000 		.4byte	.LASF348
 4670 05c1 05       		.byte	0x5
 4671 05c2 01       		.uleb128 0x1
 4672 05c3 3E070000 		.4byte	.LASF349
 4673 05c7 05       		.byte	0x5
 4674 05c8 01       		.uleb128 0x1
 4675 05c9 4F080000 		.4byte	.LASF350
 4676 05cd 05       		.byte	0x5
 4677 05ce 01       		.uleb128 0x1
 4678 05cf A73E0000 		.4byte	.LASF351
 4679 05d3 05       		.byte	0x5
 4680 05d4 01       		.uleb128 0x1
 4681 05d5 67330000 		.4byte	.LASF352
 4682 05d9 05       		.byte	0x5
 4683 05da 01       		.uleb128 0x1
 4684 05db 39010000 		.4byte	.LASF353
 4685 05df 05       		.byte	0x5
 4686 05e0 01       		.uleb128 0x1
 4687 05e1 833D0000 		.4byte	.LASF354
 4688 05e5 05       		.byte	0x5
 4689 05e6 01       		.uleb128 0x1
 4690 05e7 04320000 		.4byte	.LASF355
 4691 05eb 05       		.byte	0x5
 4692 05ec 01       		.uleb128 0x1
 4693 05ed DC230000 		.4byte	.LASF356
 4694 05f1 05       		.byte	0x5
 4695 05f2 01       		.uleb128 0x1
 4696 05f3 C5340000 		.4byte	.LASF357
 4697 05f7 05       		.byte	0x5
 4698 05f8 01       		.uleb128 0x1
 4699 05f9 F2400000 		.4byte	.LASF358
 4700 05fd 05       		.byte	0x5
 4701 05fe 01       		.uleb128 0x1
 4702 05ff 43370000 		.4byte	.LASF359
 4703 0603 05       		.byte	0x5
 4704 0604 01       		.uleb128 0x1
 4705 0605 0E1E0000 		.4byte	.LASF360
 4706 0609 05       		.byte	0x5
 4707 060a 01       		.uleb128 0x1
 4708 060b 12010000 		.4byte	.LASF361
 4709 060f 05       		.byte	0x5
 4710 0610 01       		.uleb128 0x1
 4711 0611 3E1B0000 		.4byte	.LASF362
 4712 0615 05       		.byte	0x5
 4713 0616 01       		.uleb128 0x1
 4714 0617 54340000 		.4byte	.LASF363
ARM GAS  /tmp/ccuKfveS.s 			page 88


 4715 061b 05       		.byte	0x5
 4716 061c 01       		.uleb128 0x1
 4717 061d 2C120000 		.4byte	.LASF364
 4718 0621 05       		.byte	0x5
 4719 0622 01       		.uleb128 0x1
 4720 0623 73340000 		.4byte	.LASF365
 4721 0627 05       		.byte	0x5
 4722 0628 01       		.uleb128 0x1
 4723 0629 E33E0000 		.4byte	.LASF366
 4724 062d 05       		.byte	0x5
 4725 062e 01       		.uleb128 0x1
 4726 062f ED020000 		.4byte	.LASF367
 4727 0633 05       		.byte	0x5
 4728 0634 01       		.uleb128 0x1
 4729 0635 53160000 		.4byte	.LASF368
 4730 0639 05       		.byte	0x5
 4731 063a 01       		.uleb128 0x1
 4732 063b 0A3E0000 		.4byte	.LASF369
 4733 063f 05       		.byte	0x5
 4734 0640 01       		.uleb128 0x1
 4735 0641 D1360000 		.4byte	.LASF370
 4736 0645 05       		.byte	0x5
 4737 0646 01       		.uleb128 0x1
 4738 0647 3B420000 		.4byte	.LASF371
 4739 064b 05       		.byte	0x5
 4740 064c 01       		.uleb128 0x1
 4741 064d FD170000 		.4byte	.LASF372
 4742 0651 05       		.byte	0x5
 4743 0652 01       		.uleb128 0x1
 4744 0653 C0070000 		.4byte	.LASF373
 4745 0657 05       		.byte	0x5
 4746 0658 01       		.uleb128 0x1
 4747 0659 54030000 		.4byte	.LASF374
 4748 065d 05       		.byte	0x5
 4749 065e 01       		.uleb128 0x1
 4750 065f 3E320000 		.4byte	.LASF375
 4751 0663 05       		.byte	0x5
 4752 0664 01       		.uleb128 0x1
 4753 0665 65120000 		.4byte	.LASF376
 4754 0669 05       		.byte	0x5
 4755 066a 01       		.uleb128 0x1
 4756 066b 93110000 		.4byte	.LASF377
 4757 066f 05       		.byte	0x5
 4758 0670 01       		.uleb128 0x1
 4759 0671 1B020000 		.4byte	.LASF378
 4760 0675 05       		.byte	0x5
 4761 0676 01       		.uleb128 0x1
 4762 0677 C52A0000 		.4byte	.LASF379
 4763 067b 05       		.byte	0x5
 4764 067c 01       		.uleb128 0x1
 4765 067d C4230000 		.4byte	.LASF380
 4766 0681 05       		.byte	0x5
 4767 0682 01       		.uleb128 0x1
 4768 0683 E0070000 		.4byte	.LASF381
 4769 0687 05       		.byte	0x5
 4770 0688 01       		.uleb128 0x1
 4771 0689 5A320000 		.4byte	.LASF382
ARM GAS  /tmp/ccuKfveS.s 			page 89


 4772 068d 05       		.byte	0x5
 4773 068e 01       		.uleb128 0x1
 4774 068f C9260000 		.4byte	.LASF383
 4775 0693 05       		.byte	0x5
 4776 0694 01       		.uleb128 0x1
 4777 0695 8D2F0000 		.4byte	.LASF384
 4778 0699 05       		.byte	0x5
 4779 069a 01       		.uleb128 0x1
 4780 069b 36280000 		.4byte	.LASF385
 4781 069f 05       		.byte	0x5
 4782 06a0 01       		.uleb128 0x1
 4783 06a1 0A200000 		.4byte	.LASF386
 4784 06a5 05       		.byte	0x5
 4785 06a6 01       		.uleb128 0x1
 4786 06a7 09340000 		.4byte	.LASF387
 4787 06ab 05       		.byte	0x5
 4788 06ac 01       		.uleb128 0x1
 4789 06ad 66360000 		.4byte	.LASF388
 4790 06b1 05       		.byte	0x5
 4791 06b2 01       		.uleb128 0x1
 4792 06b3 EE130000 		.4byte	.LASF389
 4793 06b7 05       		.byte	0x5
 4794 06b8 01       		.uleb128 0x1
 4795 06b9 15250000 		.4byte	.LASF390
 4796 06bd 05       		.byte	0x5
 4797 06be 01       		.uleb128 0x1
 4798 06bf 75360000 		.4byte	.LASF391
 4799 06c3 05       		.byte	0x5
 4800 06c4 01       		.uleb128 0x1
 4801 06c5 4D1D0000 		.4byte	.LASF392
 4802 06c9 05       		.byte	0x5
 4803 06ca 01       		.uleb128 0x1
 4804 06cb 242E0000 		.4byte	.LASF393
 4805 06cf 05       		.byte	0x5
 4806 06d0 01       		.uleb128 0x1
 4807 06d1 6C430000 		.4byte	.LASF394
 4808 06d5 05       		.byte	0x5
 4809 06d6 01       		.uleb128 0x1
 4810 06d7 520C0000 		.4byte	.LASF395
 4811 06db 05       		.byte	0x5
 4812 06dc 01       		.uleb128 0x1
 4813 06dd B22E0000 		.4byte	.LASF396
 4814 06e1 05       		.byte	0x5
 4815 06e2 01       		.uleb128 0x1
 4816 06e3 13000000 		.4byte	.LASF397
 4817 06e7 05       		.byte	0x5
 4818 06e8 01       		.uleb128 0x1
 4819 06e9 B9400000 		.4byte	.LASF398
 4820 06ed 05       		.byte	0x5
 4821 06ee 01       		.uleb128 0x1
 4822 06ef 6C2C0000 		.4byte	.LASF399
 4823 06f3 05       		.byte	0x5
 4824 06f4 01       		.uleb128 0x1
 4825 06f5 03130000 		.4byte	.LASF400
 4826 06f9 05       		.byte	0x5
 4827 06fa 01       		.uleb128 0x1
 4828 06fb 6F0B0000 		.4byte	.LASF401
ARM GAS  /tmp/ccuKfveS.s 			page 90


 4829 06ff 05       		.byte	0x5
 4830 0700 01       		.uleb128 0x1
 4831 0701 E73B0000 		.4byte	.LASF402
 4832 0705 05       		.byte	0x5
 4833 0706 01       		.uleb128 0x1
 4834 0707 310E0000 		.4byte	.LASF403
 4835 070b 05       		.byte	0x5
 4836 070c 01       		.uleb128 0x1
 4837 070d 3E3E0000 		.4byte	.LASF404
 4838 0711 05       		.byte	0x5
 4839 0712 01       		.uleb128 0x1
 4840 0713 C8390000 		.4byte	.LASF405
 4841 0717 05       		.byte	0x5
 4842 0718 01       		.uleb128 0x1
 4843 0719 741B0000 		.4byte	.LASF406
 4844 071d 05       		.byte	0x5
 4845 071e 01       		.uleb128 0x1
 4846 071f 6F0E0000 		.4byte	.LASF407
 4847 0723 05       		.byte	0x5
 4848 0724 01       		.uleb128 0x1
 4849 0725 413C0000 		.4byte	.LASF408
 4850 0729 05       		.byte	0x5
 4851 072a 01       		.uleb128 0x1
 4852 072b BD000000 		.4byte	.LASF409
 4853 072f 05       		.byte	0x5
 4854 0730 01       		.uleb128 0x1
 4855 0731 A83C0000 		.4byte	.LASF410
 4856 0735 05       		.byte	0x5
 4857 0736 01       		.uleb128 0x1
 4858 0737 DE2C0000 		.4byte	.LASF411
 4859 073b 05       		.byte	0x5
 4860 073c 01       		.uleb128 0x1
 4861 073d 801F0000 		.4byte	.LASF412
 4862 0741 05       		.byte	0x5
 4863 0742 01       		.uleb128 0x1
 4864 0743 4B300000 		.4byte	.LASF413
 4865 0747 05       		.byte	0x5
 4866 0748 01       		.uleb128 0x1
 4867 0749 5D000000 		.4byte	.LASF414
 4868 074d 05       		.byte	0x5
 4869 074e 01       		.uleb128 0x1
 4870 074f CF170000 		.4byte	.LASF415
 4871 0753 05       		.byte	0x5
 4872 0754 01       		.uleb128 0x1
 4873 0755 23380000 		.4byte	.LASF416
 4874 0759 05       		.byte	0x5
 4875 075a 01       		.uleb128 0x1
 4876 075b 46190000 		.4byte	.LASF417
 4877 075f 05       		.byte	0x5
 4878 0760 01       		.uleb128 0x1
 4879 0761 0A140000 		.4byte	.LASF418
 4880 0765 05       		.byte	0x5
 4881 0766 01       		.uleb128 0x1
 4882 0767 27180000 		.4byte	.LASF419
 4883 076b 05       		.byte	0x5
 4884 076c 01       		.uleb128 0x1
 4885 076d F22F0000 		.4byte	.LASF420
ARM GAS  /tmp/ccuKfveS.s 			page 91


 4886 0771 05       		.byte	0x5
 4887 0772 01       		.uleb128 0x1
 4888 0773 ED1C0000 		.4byte	.LASF421
 4889 0777 05       		.byte	0x5
 4890 0778 01       		.uleb128 0x1
 4891 0779 C6120000 		.4byte	.LASF422
 4892 077d 05       		.byte	0x5
 4893 077e 01       		.uleb128 0x1
 4894 077f 03260000 		.4byte	.LASF423
 4895 0783 05       		.byte	0x5
 4896 0784 01       		.uleb128 0x1
 4897 0785 6F3E0000 		.4byte	.LASF424
 4898 0789 05       		.byte	0x5
 4899 078a 01       		.uleb128 0x1
 4900 078b 2F2B0000 		.4byte	.LASF425
 4901 078f 05       		.byte	0x5
 4902 0790 01       		.uleb128 0x1
 4903 0791 C62D0000 		.4byte	.LASF426
 4904 0795 05       		.byte	0x5
 4905 0796 01       		.uleb128 0x1
 4906 0797 8E1E0000 		.4byte	.LASF427
 4907 079b 05       		.byte	0x5
 4908 079c 01       		.uleb128 0x1
 4909 079d F8410000 		.4byte	.LASF428
 4910 07a1 05       		.byte	0x5
 4911 07a2 01       		.uleb128 0x1
 4912 07a3 04420000 		.4byte	.LASF429
 4913 07a7 05       		.byte	0x5
 4914 07a8 01       		.uleb128 0x1
 4915 07a9 B1360000 		.4byte	.LASF430
 4916 07ad 05       		.byte	0x5
 4917 07ae 01       		.uleb128 0x1
 4918 07af 911D0000 		.4byte	.LASF431
 4919 07b3 05       		.byte	0x5
 4920 07b4 01       		.uleb128 0x1
 4921 07b5 80080000 		.4byte	.LASF432
 4922 07b9 05       		.byte	0x5
 4923 07ba 01       		.uleb128 0x1
 4924 07bb 71090000 		.4byte	.LASF433
 4925 07bf 05       		.byte	0x5
 4926 07c0 01       		.uleb128 0x1
 4927 07c1 F8420000 		.4byte	.LASF434
 4928 07c5 05       		.byte	0x5
 4929 07c6 01       		.uleb128 0x1
 4930 07c7 E8180000 		.4byte	.LASF435
 4931 07cb 05       		.byte	0x5
 4932 07cc 01       		.uleb128 0x1
 4933 07cd E94D0000 		.4byte	.LASF436
 4934 07d1 05       		.byte	0x5
 4935 07d2 01       		.uleb128 0x1
 4936 07d3 7A150000 		.4byte	.LASF437
 4937 07d7 05       		.byte	0x5
 4938 07d8 01       		.uleb128 0x1
 4939 07d9 A7360000 		.4byte	.LASF438
 4940 07dd 05       		.byte	0x5
 4941 07de 00       		.uleb128 0
 4942 07df F63C0000 		.4byte	.LASF439
ARM GAS  /tmp/ccuKfveS.s 			page 92


 4943 07e3 00       		.byte	0
 4944              		.section	.debug_macro,"G",%progbits,wm4.errno.h.2.ba016d646105af6cad23be83630b6a3f,comdat
 4945              	.Ldebug_macro2:
 4946 0000 0400     		.2byte	0x4
 4947 0002 00       		.byte	0
 4948 0003 05       		.byte	0x5
 4949 0004 02       		.uleb128 0x2
 4950 0005 DC0F0000 		.4byte	.LASF440
 4951 0009 05       		.byte	0x5
 4952 000a 06       		.uleb128 0x6
 4953 000b FE090000 		.4byte	.LASF441
 4954 000f 00       		.byte	0
 4955              		.section	.debug_macro,"G",%progbits,wm4.newlib.h.8.a9901dc52d1357e3e94003403d43f8b5,comdat
 4956              	.Ldebug_macro3:
 4957 0000 0400     		.2byte	0x4
 4958 0002 00       		.byte	0
 4959 0003 05       		.byte	0x5
 4960 0004 08       		.uleb128 0x8
 4961 0005 101C0000 		.4byte	.LASF442
 4962 0009 05       		.byte	0x5
 4963 000a 0E       		.uleb128 0xe
 4964 000b 813B0000 		.4byte	.LASF443
 4965 000f 05       		.byte	0x5
 4966 0010 15       		.uleb128 0x15
 4967 0011 DB430000 		.4byte	.LASF444
 4968 0015 05       		.byte	0x5
 4969 0016 18       		.uleb128 0x18
 4970 0017 C53D0000 		.4byte	.LASF445
 4971 001b 05       		.byte	0x5
 4972 001c 28       		.uleb128 0x28
 4973 001d 67150000 		.4byte	.LASF446
 4974 0021 05       		.byte	0x5
 4975 0022 32       		.uleb128 0x32
 4976 0023 793A0000 		.4byte	.LASF447
 4977 0027 05       		.byte	0x5
 4978 0028 36       		.uleb128 0x36
 4979 0029 F3230000 		.4byte	.LASF448
 4980 002d 05       		.byte	0x5
 4981 002e 39       		.uleb128 0x39
 4982 002f 81140000 		.4byte	.LASF449
 4983 0033 05       		.byte	0x5
 4984 0034 3C       		.uleb128 0x3c
 4985 0035 370B0000 		.4byte	.LASF450
 4986 0039 00       		.byte	0
 4987              		.section	.debug_macro,"G",%progbits,wm4.features.h.22.b72b3baab2bb2eab3661375590100b6b,comdat
 4988              	.Ldebug_macro4:
 4989 0000 0400     		.2byte	0x4
 4990 0002 00       		.byte	0
 4991 0003 05       		.byte	0x5
 4992 0004 16       		.uleb128 0x16
 4993 0005 7D120000 		.4byte	.LASF451
 4994 0009 05       		.byte	0x5
 4995 000a 1F       		.uleb128 0x1f
 4996 000b 08090000 		.4byte	.LASF452
 4997 000f 00       		.byte	0
 4998              		.section	.debug_macro,"G",%progbits,wm4.config.h.193.5fb8ef056cdff92dec3dee9552839d8c,comdat
 4999              	.Ldebug_macro5:
ARM GAS  /tmp/ccuKfveS.s 			page 93


 5000 0000 0400     		.2byte	0x4
 5001 0002 00       		.byte	0
 5002 0003 05       		.byte	0x5
 5003 0004 C101     		.uleb128 0xc1
 5004 0006 51070000 		.4byte	.LASF453
 5005 000a 06       		.byte	0x6
 5006 000b C701     		.uleb128 0xc7
 5007 000d D9080000 		.4byte	.LASF454
 5008 0011 05       		.byte	0x5
 5009 0012 CB01     		.uleb128 0xcb
 5010 0014 E32D0000 		.4byte	.LASF455
 5011 0018 05       		.byte	0x5
 5012 0019 DB01     		.uleb128 0xdb
 5013 001b 9F220000 		.4byte	.LASF456
 5014 001f 05       		.byte	0x5
 5015 0020 DF01     		.uleb128 0xdf
 5016 0022 522C0000 		.4byte	.LASF457
 5017 0026 05       		.byte	0x5
 5018 0027 E601     		.uleb128 0xe6
 5019 0029 04110000 		.4byte	.LASF458
 5020 002d 00       		.byte	0
 5021              		.section	.debug_macro,"G",%progbits,wm4._ansi.h.23.7aefdac4826acebbfc9f3822a0aeb14c,comdat
 5022              	.Ldebug_macro6:
 5023 0000 0400     		.2byte	0x4
 5024 0002 00       		.byte	0
 5025 0003 05       		.byte	0x5
 5026 0004 17       		.uleb128 0x17
 5027 0005 8F3A0000 		.4byte	.LASF459
 5028 0009 05       		.byte	0x5
 5029 000a 2C       		.uleb128 0x2c
 5030 000b 862D0000 		.4byte	.LASF460
 5031 000f 05       		.byte	0x5
 5032 0010 2D       		.uleb128 0x2d
 5033 0011 74160000 		.4byte	.LASF461
 5034 0015 05       		.byte	0x5
 5035 0016 2E       		.uleb128 0x2e
 5036 0017 C4270000 		.4byte	.LASF462
 5037 001b 05       		.byte	0x5
 5038 001c 32       		.uleb128 0x32
 5039 001d CB410000 		.4byte	.LASF463
 5040 0021 05       		.byte	0x5
 5041 0022 33       		.uleb128 0x33
 5042 0023 48310000 		.4byte	.LASF464
 5043 0027 05       		.byte	0x5
 5044 0028 34       		.uleb128 0x34
 5045 0029 A7370000 		.4byte	.LASF465
 5046 002d 05       		.byte	0x5
 5047 002e 35       		.uleb128 0x35
 5048 002f 97090000 		.4byte	.LASF466
 5049 0033 05       		.byte	0x5
 5050 0034 36       		.uleb128 0x36
 5051 0035 06120000 		.4byte	.LASF467
 5052 0039 05       		.byte	0x5
 5053 003a 37       		.uleb128 0x37
 5054 003b AB150000 		.4byte	.LASF468
 5055 003f 05       		.byte	0x5
 5056 0040 38       		.uleb128 0x38
ARM GAS  /tmp/ccuKfveS.s 			page 94


 5057 0041 61240000 		.4byte	.LASF469
 5058 0045 05       		.byte	0x5
 5059 0046 39       		.uleb128 0x39
 5060 0047 9C3E0000 		.4byte	.LASF470
 5061 004b 05       		.byte	0x5
 5062 004c 40       		.uleb128 0x40
 5063 004d 7F2A0000 		.4byte	.LASF471
 5064 0051 05       		.byte	0x5
 5065 0052 41       		.uleb128 0x41
 5066 0053 0E040000 		.4byte	.LASF472
 5067 0057 05       		.byte	0x5
 5068 0058 42       		.uleb128 0x42
 5069 0059 FC2C0000 		.4byte	.LASF473
 5070 005d 05       		.byte	0x5
 5071 005e 43       		.uleb128 0x43
 5072 005f 41120000 		.4byte	.LASF474
 5073 0063 05       		.byte	0x5
 5074 0064 45       		.uleb128 0x45
 5075 0065 6B0F0000 		.4byte	.LASF475
 5076 0069 05       		.byte	0x5
 5077 006a 46       		.uleb128 0x46
 5078 006b F2060000 		.4byte	.LASF476
 5079 006f 05       		.byte	0x5
 5080 0070 47       		.uleb128 0x47
 5081 0071 95360000 		.4byte	.LASF477
 5082 0075 05       		.byte	0x5
 5083 0076 49       		.uleb128 0x49
 5084 0077 90010000 		.4byte	.LASF478
 5085 007b 05       		.byte	0x5
 5086 007c 4C       		.uleb128 0x4c
 5087 007d EC0E0000 		.4byte	.LASF479
 5088 0081 05       		.byte	0x5
 5089 0082 4F       		.uleb128 0x4f
 5090 0083 790D0000 		.4byte	.LASF480
 5091 0087 05       		.byte	0x5
 5092 0088 69       		.uleb128 0x69
 5093 0089 BF3B0000 		.4byte	.LASF481
 5094 008d 05       		.byte	0x5
 5095 008e 8001     		.uleb128 0x80
 5096 0090 C91F0000 		.4byte	.LASF482
 5097 0094 05       		.byte	0x5
 5098 0095 8401     		.uleb128 0x84
 5099 0097 460B0000 		.4byte	.LASF483
 5100 009b 05       		.byte	0x5
 5101 009c 8501     		.uleb128 0x85
 5102 009e E4380000 		.4byte	.LASF484
 5103 00a2 00       		.byte	0
 5104              		.section	.debug_macro,"G",%progbits,wm4._default_types.h.6.5e12cd604db8ce00b62bb2f02708eaf3,comdat
 5105              	.Ldebug_macro7:
 5106 0000 0400     		.2byte	0x4
 5107 0002 00       		.byte	0
 5108 0003 05       		.byte	0x5
 5109 0004 06       		.uleb128 0x6
 5110 0005 582E0000 		.4byte	.LASF485
 5111 0009 05       		.byte	0x5
 5112 000a 11       		.uleb128 0x11
 5113 000b EB050000 		.4byte	.LASF486
ARM GAS  /tmp/ccuKfveS.s 			page 95


 5114 000f 05       		.byte	0x5
 5115 0010 1B       		.uleb128 0x1b
 5116 0011 091D0000 		.4byte	.LASF487
 5117 0015 05       		.byte	0x5
 5118 0016 25       		.uleb128 0x25
 5119 0017 EB140000 		.4byte	.LASF488
 5120 001b 05       		.byte	0x5
 5121 001c 2F       		.uleb128 0x2f
 5122 001d E70A0000 		.4byte	.LASF489
 5123 0021 05       		.byte	0x5
 5124 0022 3B       		.uleb128 0x3b
 5125 0023 9E250000 		.4byte	.LASF490
 5126 0027 05       		.byte	0x5
 5127 0028 4D       		.uleb128 0x4d
 5128 0029 231B0000 		.4byte	.LASF491
 5129 002d 05       		.byte	0x5
 5130 002e 64       		.uleb128 0x64
 5131 002f E9300000 		.4byte	.LASF492
 5132 0033 06       		.byte	0x6
 5133 0034 72       		.uleb128 0x72
 5134 0035 E3300000 		.4byte	.LASF493
 5135 0039 00       		.byte	0
 5136              		.section	.debug_macro,"G",%progbits,wm4.lock.h.2.9bc98482741e5e2a9450b12934a684ea,comdat
 5137              	.Ldebug_macro8:
 5138 0000 0400     		.2byte	0x4
 5139 0002 00       		.byte	0
 5140 0003 05       		.byte	0x5
 5141 0004 02       		.uleb128 0x2
 5142 0005 F6430000 		.4byte	.LASF494
 5143 0009 05       		.byte	0x5
 5144 000a 0B       		.uleb128 0xb
 5145 000b BD320000 		.4byte	.LASF495
 5146 000f 05       		.byte	0x5
 5147 0010 0C       		.uleb128 0xc
 5148 0011 19200000 		.4byte	.LASF496
 5149 0015 05       		.byte	0x5
 5150 0016 0D       		.uleb128 0xd
 5151 0017 8F2C0000 		.4byte	.LASF497
 5152 001b 05       		.byte	0x5
 5153 001c 0E       		.uleb128 0xe
 5154 001d 10420000 		.4byte	.LASF498
 5155 0021 05       		.byte	0x5
 5156 0022 0F       		.uleb128 0xf
 5157 0023 58170000 		.4byte	.LASF499
 5158 0027 05       		.byte	0x5
 5159 0028 10       		.uleb128 0x10
 5160 0029 81060000 		.4byte	.LASF500
 5161 002d 05       		.byte	0x5
 5162 002e 11       		.uleb128 0x11
 5163 002f 15230000 		.4byte	.LASF501
 5164 0033 05       		.byte	0x5
 5165 0034 12       		.uleb128 0x12
 5166 0035 FA190000 		.4byte	.LASF502
 5167 0039 05       		.byte	0x5
 5168 003a 13       		.uleb128 0x13
 5169 003b 30140000 		.4byte	.LASF503
 5170 003f 05       		.byte	0x5
ARM GAS  /tmp/ccuKfveS.s 			page 96


 5171 0040 14       		.uleb128 0x14
 5172 0041 9A300000 		.4byte	.LASF504
 5173 0045 05       		.byte	0x5
 5174 0046 15       		.uleb128 0x15
 5175 0047 23250000 		.4byte	.LASF505
 5176 004b 05       		.byte	0x5
 5177 004c 16       		.uleb128 0x16
 5178 004d 973D0000 		.4byte	.LASF506
 5179 0051 00       		.byte	0
 5180              		.section	.debug_macro,"G",%progbits,wm4.stddef.h.349.31f4c5baff3fa2689010b32028da9c47,comdat
 5181              	.Ldebug_macro9:
 5182 0000 0400     		.2byte	0x4
 5183 0002 00       		.byte	0
 5184 0003 05       		.byte	0x5
 5185 0004 DD02     		.uleb128 0x15d
 5186 0006 B2130000 		.4byte	.LASF507
 5187 000a 06       		.byte	0x6
 5188 000b E402     		.uleb128 0x164
 5189 000d 47110000 		.4byte	.LASF508
 5190 0011 06       		.byte	0x6
 5191 0012 9903     		.uleb128 0x199
 5192 0014 681B0000 		.4byte	.LASF509
 5193 0018 00       		.byte	0
 5194              		.section	.debug_macro,"G",%progbits,wm4.reent.h.16.9e42f0e588b85e70b2bf6572af57ce64,comdat
 5195              	.Ldebug_macro10:
 5196 0000 0400     		.2byte	0x4
 5197 0002 00       		.byte	0
 5198 0003 05       		.byte	0x5
 5199 0004 10       		.uleb128 0x10
 5200 0005 78180000 		.4byte	.LASF510
 5201 0009 05       		.byte	0x5
 5202 000a 14       		.uleb128 0x14
 5203 000b 90380000 		.4byte	.LASF511
 5204 000f 05       		.byte	0x5
 5205 0010 45       		.uleb128 0x45
 5206 0011 5C2C0000 		.4byte	.LASF512
 5207 0015 05       		.byte	0x5
 5208 0016 A601     		.uleb128 0xa6
 5209 0018 EF220000 		.4byte	.LASF513
 5210 001c 05       		.byte	0x5
 5211 001d AA02     		.uleb128 0x12a
 5212 001f 78380000 		.4byte	.LASF514
 5213 0023 05       		.byte	0x5
 5214 0024 AB02     		.uleb128 0x12b
 5215 0026 6E260000 		.4byte	.LASF515
 5216 002a 05       		.byte	0x5
 5217 002b AC02     		.uleb128 0x12c
 5218 002d 1C0F0000 		.4byte	.LASF516
 5219 0031 05       		.byte	0x5
 5220 0032 AD02     		.uleb128 0x12d
 5221 0034 C63C0000 		.4byte	.LASF517
 5222 0038 05       		.byte	0x5
 5223 0039 AE02     		.uleb128 0x12e
 5224 003b ED370000 		.4byte	.LASF518
 5225 003f 05       		.byte	0x5
 5226 0040 AF02     		.uleb128 0x12f
 5227 0042 672A0000 		.4byte	.LASF519
ARM GAS  /tmp/ccuKfveS.s 			page 97


 5228 0046 05       		.byte	0x5
 5229 0047 B002     		.uleb128 0x130
 5230 0049 E3420000 		.4byte	.LASF520
 5231 004d 05       		.byte	0x5
 5232 004e BC02     		.uleb128 0x13c
 5233 0050 F0070000 		.4byte	.LASF521
 5234 0054 05       		.byte	0x5
 5235 0055 BD02     		.uleb128 0x13d
 5236 0057 18440000 		.4byte	.LASF522
 5237 005b 05       		.byte	0x5
 5238 005c BE02     		.uleb128 0x13e
 5239 005e 29020000 		.4byte	.LASF523
 5240 0062 05       		.byte	0x5
 5241 0063 FE04     		.uleb128 0x27e
 5242 0065 7F0B0000 		.4byte	.LASF524
 5243 0069 05       		.byte	0x5
 5244 006a 9205     		.uleb128 0x292
 5245 006c 69200000 		.4byte	.LASF525
 5246 0070 05       		.byte	0x5
 5247 0071 C305     		.uleb128 0x2c3
 5248 0073 67440000 		.4byte	.LASF526
 5249 0077 05       		.byte	0x5
 5250 0078 8106     		.uleb128 0x301
 5251 007a D03F0000 		.4byte	.LASF527
 5252 007e 05       		.byte	0x5
 5253 007f 8206     		.uleb128 0x302
 5254 0081 39080000 		.4byte	.LASF528
 5255 0085 05       		.byte	0x5
 5256 0086 8306     		.uleb128 0x303
 5257 0088 4B360000 		.4byte	.LASF529
 5258 008c 05       		.byte	0x5
 5259 008d 8406     		.uleb128 0x304
 5260 008f CE270000 		.4byte	.LASF530
 5261 0093 05       		.byte	0x5
 5262 0094 8506     		.uleb128 0x305
 5263 0096 321A0000 		.4byte	.LASF531
 5264 009a 05       		.byte	0x5
 5265 009b 8606     		.uleb128 0x306
 5266 009d 30310000 		.4byte	.LASF532
 5267 00a1 05       		.byte	0x5
 5268 00a2 8706     		.uleb128 0x307
 5269 00a4 C2220000 		.4byte	.LASF533
 5270 00a8 05       		.byte	0x5
 5271 00a9 8906     		.uleb128 0x309
 5272 00ab 97170000 		.4byte	.LASF534
 5273 00af 05       		.byte	0x5
 5274 00b0 8A06     		.uleb128 0x30a
 5275 00b2 8B0B0000 		.4byte	.LASF535
 5276 00b6 05       		.byte	0x5
 5277 00b7 8B06     		.uleb128 0x30b
 5278 00b9 C6090000 		.4byte	.LASF536
 5279 00bd 05       		.byte	0x5
 5280 00be 8C06     		.uleb128 0x30c
 5281 00c0 93240000 		.4byte	.LASF537
 5282 00c4 05       		.byte	0x5
 5283 00c5 8D06     		.uleb128 0x30d
 5284 00c7 860E0000 		.4byte	.LASF538
ARM GAS  /tmp/ccuKfveS.s 			page 98


 5285 00cb 05       		.byte	0x5
 5286 00cc 8E06     		.uleb128 0x30e
 5287 00ce 52050000 		.4byte	.LASF539
 5288 00d2 05       		.byte	0x5
 5289 00d3 8F06     		.uleb128 0x30f
 5290 00d5 400F0000 		.4byte	.LASF540
 5291 00d9 05       		.byte	0x5
 5292 00da 9006     		.uleb128 0x310
 5293 00dc 88340000 		.4byte	.LASF541
 5294 00e0 05       		.byte	0x5
 5295 00e1 9106     		.uleb128 0x311
 5296 00e3 A6030000 		.4byte	.LASF542
 5297 00e7 05       		.byte	0x5
 5298 00e8 9206     		.uleb128 0x312
 5299 00ea 1A340000 		.4byte	.LASF543
 5300 00ee 05       		.byte	0x5
 5301 00ef 9306     		.uleb128 0x313
 5302 00f1 73190000 		.4byte	.LASF544
 5303 00f5 05       		.byte	0x5
 5304 00f6 9406     		.uleb128 0x314
 5305 00f8 B1140000 		.4byte	.LASF545
 5306 00fc 05       		.byte	0x5
 5307 00fd 9506     		.uleb128 0x315
 5308 00ff A5050000 		.4byte	.LASF546
 5309 0103 05       		.byte	0x5
 5310 0104 9606     		.uleb128 0x316
 5311 0106 CE1B0000 		.4byte	.LASF547
 5312 010a 05       		.byte	0x5
 5313 010b 9706     		.uleb128 0x317
 5314 010d 8B1B0000 		.4byte	.LASF548
 5315 0111 05       		.byte	0x5
 5316 0112 9806     		.uleb128 0x318
 5317 0114 69320000 		.4byte	.LASF549
 5318 0118 05       		.byte	0x5
 5319 0119 9906     		.uleb128 0x319
 5320 011b B2330000 		.4byte	.LASF550
 5321 011f 05       		.byte	0x5
 5322 0120 9A06     		.uleb128 0x31a
 5323 0122 74130000 		.4byte	.LASF551
 5324 0126 05       		.byte	0x5
 5325 0127 9B06     		.uleb128 0x31b
 5326 0129 2C260000 		.4byte	.LASF552
 5327 012d 05       		.byte	0x5
 5328 012e 9C06     		.uleb128 0x31c
 5329 0130 3B350000 		.4byte	.LASF553
 5330 0134 05       		.byte	0x5
 5331 0135 9D06     		.uleb128 0x31d
 5332 0137 9A0F0000 		.4byte	.LASF554
 5333 013b 05       		.byte	0x5
 5334 013c 9E06     		.uleb128 0x31e
 5335 013e D9260000 		.4byte	.LASF555
 5336 0142 05       		.byte	0x5
 5337 0143 9F06     		.uleb128 0x31f
 5338 0145 54420000 		.4byte	.LASF556
 5339 0149 05       		.byte	0x5
 5340 014a A006     		.uleb128 0x320
 5341 014c 7E000000 		.4byte	.LASF557
ARM GAS  /tmp/ccuKfveS.s 			page 99


 5342 0150 05       		.byte	0x5
 5343 0151 A706     		.uleb128 0x327
 5344 0153 3F020000 		.4byte	.LASF558
 5345 0157 05       		.byte	0x5
 5346 0158 AF06     		.uleb128 0x32f
 5347 015a 773C0000 		.4byte	.LASF559
 5348 015e 05       		.byte	0x5
 5349 015f C106     		.uleb128 0x341
 5350 0161 00150000 		.4byte	.LASF560
 5351 0165 05       		.byte	0x5
 5352 0166 C606     		.uleb128 0x346
 5353 0168 89390000 		.4byte	.LASF561
 5354 016c 00       		.byte	0
 5355              		.section	.debug_macro,"G",%progbits,wm4.errno.h.14.84e5a50cdf375f3e6c7abc27b8e42963,comdat
 5356              	.Ldebug_macro11:
 5357 0000 0400     		.2byte	0x4
 5358 0002 00       		.byte	0
 5359 0003 05       		.byte	0x5
 5360 0004 0E       		.uleb128 0xe
 5361 0005 A4090000 		.4byte	.LASF562
 5362 0009 05       		.byte	0x5
 5363 000a 1B       		.uleb128 0x1b
 5364 000b 79350000 		.4byte	.LASF563
 5365 000f 05       		.byte	0x5
 5366 0010 1D       		.uleb128 0x1d
 5367 0011 4A0C0000 		.4byte	.LASF564
 5368 0015 05       		.byte	0x5
 5369 0016 1E       		.uleb128 0x1e
 5370 0017 6F380000 		.4byte	.LASF565
 5371 001b 05       		.byte	0x5
 5372 001c 1F       		.uleb128 0x1f
 5373 001d A6350000 		.4byte	.LASF566
 5374 0021 05       		.byte	0x5
 5375 0022 20       		.uleb128 0x20
 5376 0023 E83C0000 		.4byte	.LASF567
 5377 0027 05       		.byte	0x5
 5378 0028 21       		.uleb128 0x21
 5379 0029 713C0000 		.4byte	.LASF568
 5380 002d 05       		.byte	0x5
 5381 002e 22       		.uleb128 0x22
 5382 002f DB3D0000 		.4byte	.LASF569
 5383 0033 05       		.byte	0x5
 5384 0034 23       		.uleb128 0x23
 5385 0035 6D240000 		.4byte	.LASF570
 5386 0039 05       		.byte	0x5
 5387 003a 24       		.uleb128 0x24
 5388 003b 29150000 		.4byte	.LASF571
 5389 003f 05       		.byte	0x5
 5390 0040 25       		.uleb128 0x25
 5391 0041 081C0000 		.4byte	.LASF572
 5392 0045 05       		.byte	0x5
 5393 0046 26       		.uleb128 0x26
 5394 0047 1C050000 		.4byte	.LASF573
 5395 004b 05       		.byte	0x5
 5396 004c 27       		.uleb128 0x27
 5397 004d 281A0000 		.4byte	.LASF574
 5398 0051 05       		.byte	0x5
ARM GAS  /tmp/ccuKfveS.s 			page 100


 5399 0052 28       		.uleb128 0x28
 5400 0053 5D230000 		.4byte	.LASF575
 5401 0057 05       		.byte	0x5
 5402 0058 29       		.uleb128 0x29
 5403 0059 FB270000 		.4byte	.LASF576
 5404 005d 05       		.byte	0x5
 5405 005e 2A       		.uleb128 0x2a
 5406 005f 9B050000 		.4byte	.LASF577
 5407 0063 05       		.byte	0x5
 5408 0064 2E       		.uleb128 0x2e
 5409 0065 91300000 		.4byte	.LASF578
 5410 0069 05       		.byte	0x5
 5411 006a 2F       		.uleb128 0x2f
 5412 006b 44220000 		.4byte	.LASF579
 5413 006f 05       		.byte	0x5
 5414 0070 30       		.uleb128 0x30
 5415 0071 78140000 		.4byte	.LASF580
 5416 0075 05       		.byte	0x5
 5417 0076 31       		.uleb128 0x31
 5418 0077 4A420000 		.4byte	.LASF581
 5419 007b 05       		.byte	0x5
 5420 007c 32       		.uleb128 0x32
 5421 007d DF000000 		.4byte	.LASF582
 5422 0081 05       		.byte	0x5
 5423 0082 33       		.uleb128 0x33
 5424 0083 73120000 		.4byte	.LASF583
 5425 0087 05       		.byte	0x5
 5426 0088 34       		.uleb128 0x34
 5427 0089 662F0000 		.4byte	.LASF584
 5428 008d 05       		.byte	0x5
 5429 008e 35       		.uleb128 0x35
 5430 008f DE3C0000 		.4byte	.LASF585
 5431 0093 05       		.byte	0x5
 5432 0094 36       		.uleb128 0x36
 5433 0095 060E0000 		.4byte	.LASF586
 5434 0099 05       		.byte	0x5
 5435 009a 37       		.uleb128 0x37
 5436 009b E20E0000 		.4byte	.LASF587
 5437 009f 05       		.byte	0x5
 5438 00a0 38       		.uleb128 0x38
 5439 00a1 4D0A0000 		.4byte	.LASF588
 5440 00a5 05       		.byte	0x5
 5441 00a6 39       		.uleb128 0x39
 5442 00a7 9B020000 		.4byte	.LASF589
 5443 00ab 05       		.byte	0x5
 5444 00ac 3A       		.uleb128 0x3a
 5445 00ad 9C070000 		.4byte	.LASF590
 5446 00b1 05       		.byte	0x5
 5447 00b2 3B       		.uleb128 0x3b
 5448 00b3 900F0000 		.4byte	.LASF591
 5449 00b7 05       		.byte	0x5
 5450 00b8 3C       		.uleb128 0x3c
 5451 00b9 D3230000 		.4byte	.LASF592
 5452 00bd 05       		.byte	0x5
 5453 00be 3D       		.uleb128 0x3d
 5454 00bf E8110000 		.4byte	.LASF593
 5455 00c3 05       		.byte	0x5
ARM GAS  /tmp/ccuKfveS.s 			page 101


 5456 00c4 3E       		.uleb128 0x3e
 5457 00c5 D51D0000 		.4byte	.LASF594
 5458 00c9 05       		.byte	0x5
 5459 00ca 3F       		.uleb128 0x3f
 5460 00cb 45430000 		.4byte	.LASF595
 5461 00cf 05       		.byte	0x5
 5462 00d0 40       		.uleb128 0x40
 5463 00d1 87300000 		.4byte	.LASF596
 5464 00d5 05       		.byte	0x5
 5465 00d6 41       		.uleb128 0x41
 5466 00d7 DE180000 		.4byte	.LASF597
 5467 00db 05       		.byte	0x5
 5468 00dc 42       		.uleb128 0x42
 5469 00dd 5B060000 		.4byte	.LASF598
 5470 00e1 05       		.byte	0x5
 5471 00e2 4D       		.uleb128 0x4d
 5472 00e3 8C400000 		.4byte	.LASF599
 5473 00e7 05       		.byte	0x5
 5474 00e8 4E       		.uleb128 0x4e
 5475 00e9 9D420000 		.4byte	.LASF600
 5476 00ed 05       		.byte	0x5
 5477 00ee 59       		.uleb128 0x59
 5478 00ef C20D0000 		.4byte	.LASF601
 5479 00f3 05       		.byte	0x5
 5480 00f4 5A       		.uleb128 0x5a
 5481 00f5 D0280000 		.4byte	.LASF602
 5482 00f9 05       		.byte	0x5
 5483 00fa 5B       		.uleb128 0x5b
 5484 00fb 55250000 		.4byte	.LASF603
 5485 00ff 05       		.byte	0x5
 5486 0100 5C       		.uleb128 0x5c
 5487 0101 883E0000 		.4byte	.LASF604
 5488 0105 05       		.byte	0x5
 5489 0106 62       		.uleb128 0x62
 5490 0107 AE2A0000 		.4byte	.LASF605
 5491 010b 05       		.byte	0x5
 5492 010c 68       		.uleb128 0x68
 5493 010d 90180000 		.4byte	.LASF606
 5494 0111 05       		.byte	0x5
 5495 0112 69       		.uleb128 0x69
 5496 0113 33060000 		.4byte	.LASF607
 5497 0117 05       		.byte	0x5
 5498 0118 6E       		.uleb128 0x6e
 5499 0119 0D270000 		.4byte	.LASF608
 5500 011d 05       		.byte	0x5
 5501 011e 6F       		.uleb128 0x6f
 5502 011f 00200000 		.4byte	.LASF609
 5503 0123 05       		.byte	0x5
 5504 0124 7A       		.uleb128 0x7a
 5505 0125 89110000 		.4byte	.LASF610
 5506 0129 05       		.byte	0x5
 5507 012a 7E       		.uleb128 0x7e
 5508 012b 9E430000 		.4byte	.LASF611
 5509 012f 05       		.byte	0x5
 5510 0130 7F       		.uleb128 0x7f
 5511 0131 771A0000 		.4byte	.LASF612
 5512 0135 05       		.byte	0x5
ARM GAS  /tmp/ccuKfveS.s 			page 102


 5513 0136 8001     		.uleb128 0x80
 5514 0138 E6220000 		.4byte	.LASF613
 5515 013c 05       		.byte	0x5
 5516 013d 8101     		.uleb128 0x81
 5517 013f 7D1C0000 		.4byte	.LASF614
 5518 0143 05       		.byte	0x5
 5519 0144 8201     		.uleb128 0x82
 5520 0146 29160000 		.4byte	.LASF615
 5521 014a 05       		.byte	0x5
 5522 014b 8301     		.uleb128 0x83
 5523 014d 60380000 		.4byte	.LASF616
 5524 0151 05       		.byte	0x5
 5525 0152 8401     		.uleb128 0x84
 5526 0154 340F0000 		.4byte	.LASF617
 5527 0158 05       		.byte	0x5
 5528 0159 8501     		.uleb128 0x85
 5529 015b B3250000 		.4byte	.LASF618
 5530 015f 05       		.byte	0x5
 5531 0160 8601     		.uleb128 0x86
 5532 0162 36170000 		.4byte	.LASF619
 5533 0166 05       		.byte	0x5
 5534 0167 8701     		.uleb128 0x87
 5535 0169 FB350000 		.4byte	.LASF620
 5536 016d 05       		.byte	0x5
 5537 016e 8801     		.uleb128 0x88
 5538 0170 701F0000 		.4byte	.LASF621
 5539 0174 05       		.byte	0x5
 5540 0175 8C01     		.uleb128 0x8c
 5541 0177 CF070000 		.4byte	.LASF622
 5542 017b 05       		.byte	0x5
 5543 017c 8D01     		.uleb128 0x8d
 5544 017e DA240000 		.4byte	.LASF623
 5545 0182 05       		.byte	0x5
 5546 0183 8E01     		.uleb128 0x8e
 5547 0185 BA1D0000 		.4byte	.LASF624
 5548 0189 05       		.byte	0x5
 5549 018a 8F01     		.uleb128 0x8f
 5550 018c B6120000 		.4byte	.LASF625
 5551 0190 05       		.byte	0x5
 5552 0191 9001     		.uleb128 0x90
 5553 0193 513C0000 		.4byte	.LASF626
 5554 0197 05       		.byte	0x5
 5555 0198 9101     		.uleb128 0x91
 5556 019a C5430000 		.4byte	.LASF627
 5557 019e 05       		.byte	0x5
 5558 019f 9201     		.uleb128 0x92
 5559 01a1 EC190000 		.4byte	.LASF628
 5560 01a5 05       		.byte	0x5
 5561 01a6 9301     		.uleb128 0x93
 5562 01a8 4F1A0000 		.4byte	.LASF629
 5563 01ac 05       		.byte	0x5
 5564 01ad 9401     		.uleb128 0x94
 5565 01af 87090000 		.4byte	.LASF630
 5566 01b3 05       		.byte	0x5
 5567 01b4 9501     		.uleb128 0x95
 5568 01b6 F8040000 		.4byte	.LASF631
 5569 01ba 05       		.byte	0x5
ARM GAS  /tmp/ccuKfveS.s 			page 103


 5570 01bb 9601     		.uleb128 0x96
 5571 01bd FE300000 		.4byte	.LASF632
 5572 01c1 05       		.byte	0x5
 5573 01c2 9701     		.uleb128 0x97
 5574 01c4 5F430000 		.4byte	.LASF633
 5575 01c8 05       		.byte	0x5
 5576 01c9 9801     		.uleb128 0x98
 5577 01cb 88040000 		.4byte	.LASF634
 5578 01cf 05       		.byte	0x5
 5579 01d0 9C01     		.uleb128 0x9c
 5580 01d2 4D430000 		.4byte	.LASF635
 5581 01d6 05       		.byte	0x5
 5582 01d7 9D01     		.uleb128 0x9d
 5583 01d9 47250000 		.4byte	.LASF636
 5584 01dd 05       		.byte	0x5
 5585 01de 9E01     		.uleb128 0x9e
 5586 01e0 00060000 		.4byte	.LASF637
 5587 01e4 05       		.byte	0x5
 5588 01e5 9F01     		.uleb128 0x9f
 5589 01e7 F42A0000 		.4byte	.LASF638
 5590 01eb 05       		.byte	0x5
 5591 01ec A001     		.uleb128 0xa0
 5592 01ee 100E0000 		.4byte	.LASF639
 5593 01f2 05       		.byte	0x5
 5594 01f3 A501     		.uleb128 0xa5
 5595 01f5 B3310000 		.4byte	.LASF640
 5596 01f9 05       		.byte	0x5
 5597 01fa A601     		.uleb128 0xa6
 5598 01fc 48390000 		.4byte	.LASF641
 5599 0200 05       		.byte	0x5
 5600 0201 A701     		.uleb128 0xa7
 5601 0203 C12E0000 		.4byte	.LASF642
 5602 0207 05       		.byte	0x5
 5603 0208 AF01     		.uleb128 0xaf
 5604 020a 86260000 		.4byte	.LASF643
 5605 020e 05       		.byte	0x5
 5606 020f B001     		.uleb128 0xb0
 5607 0211 D20D0000 		.4byte	.LASF644
 5608 0215 05       		.byte	0x5
 5609 0216 B101     		.uleb128 0xb1
 5610 0218 73060000 		.4byte	.LASF645
 5611 021c 05       		.byte	0x5
 5612 021d B201     		.uleb128 0xb2
 5613 021f 18260000 		.4byte	.LASF646
 5614 0223 05       		.byte	0x5
 5615 0224 B301     		.uleb128 0xb3
 5616 0226 2C350000 		.4byte	.LASF647
 5617 022a 05       		.byte	0x5
 5618 022b B701     		.uleb128 0xb7
 5619 022d 62030000 		.4byte	.LASF648
 5620 0231 05       		.byte	0x5
 5621 0232 B901     		.uleb128 0xb9
 5622 0234 BF360000 		.4byte	.LASF649
 5623 0238 00       		.byte	0
 5624              		.section	.debug_macro,"G",%progbits,wm4.time.h.2.9857e62ad6ac99431e29d58067232314,comdat
 5625              	.Ldebug_macro12:
 5626 0000 0400     		.2byte	0x4
ARM GAS  /tmp/ccuKfveS.s 			page 104


 5627 0002 00       		.byte	0
 5628 0003 05       		.byte	0x5
 5629 0004 02       		.uleb128 0x2
 5630 0005 FC130000 		.4byte	.LASF650
 5631 0009 05       		.byte	0x5
 5632 000a 08       		.uleb128 0x8
 5633 000b 673F0000 		.4byte	.LASF651
 5634 000f 00       		.byte	0
 5635              		.section	.debug_macro,"G",%progbits,wm4.time.h.24.c499d4c1915694df17abb795fd34b719,comdat
 5636              	.Ldebug_macro13:
 5637 0000 0400     		.2byte	0x4
 5638 0002 00       		.byte	0
 5639 0003 05       		.byte	0x5
 5640 0004 18       		.uleb128 0x18
 5641 0005 23370000 		.4byte	.LASF652
 5642 0009 05       		.byte	0x5
 5643 000a 19       		.uleb128 0x19
 5644 000b 0E0C0000 		.4byte	.LASF653
 5645 000f 05       		.byte	0x5
 5646 0010 1A       		.uleb128 0x1a
 5647 0011 DF130000 		.4byte	.LASF654
 5648 0015 00       		.byte	0
 5649              		.section	.debug_macro,"G",%progbits,wm4.stddef.h.187.9e651b6b8b16e149c1353259404973ea,comdat
 5650              	.Ldebug_macro14:
 5651 0000 0400     		.2byte	0x4
 5652 0002 00       		.byte	0
 5653 0003 05       		.byte	0x5
 5654 0004 BB01     		.uleb128 0xbb
 5655 0006 630E0000 		.4byte	.LASF655
 5656 000a 05       		.byte	0x5
 5657 000b BC01     		.uleb128 0xbc
 5658 000d DF050000 		.4byte	.LASF656
 5659 0011 05       		.byte	0x5
 5660 0012 BD01     		.uleb128 0xbd
 5661 0014 092F0000 		.4byte	.LASF657
 5662 0018 05       		.byte	0x5
 5663 0019 BE01     		.uleb128 0xbe
 5664 001b B7090000 		.4byte	.LASF658
 5665 001f 05       		.byte	0x5
 5666 0020 BF01     		.uleb128 0xbf
 5667 0022 CB1D0000 		.4byte	.LASF659
 5668 0026 05       		.byte	0x5
 5669 0027 C001     		.uleb128 0xc0
 5670 0029 7F070000 		.4byte	.LASF660
 5671 002d 05       		.byte	0x5
 5672 002e C101     		.uleb128 0xc1
 5673 0030 2B300000 		.4byte	.LASF661
 5674 0034 05       		.byte	0x5
 5675 0035 C201     		.uleb128 0xc2
 5676 0037 57240000 		.4byte	.LASF662
 5677 003b 05       		.byte	0x5
 5678 003c C301     		.uleb128 0xc3
 5679 003e 98350000 		.4byte	.LASF663
 5680 0042 05       		.byte	0x5
 5681 0043 C401     		.uleb128 0xc4
 5682 0045 BE280000 		.4byte	.LASF664
 5683 0049 05       		.byte	0x5
ARM GAS  /tmp/ccuKfveS.s 			page 105


 5684 004a C501     		.uleb128 0xc5
 5685 004c 2D320000 		.4byte	.LASF665
 5686 0050 05       		.byte	0x5
 5687 0051 C601     		.uleb128 0xc6
 5688 0053 E90F0000 		.4byte	.LASF666
 5689 0057 05       		.byte	0x5
 5690 0058 C701     		.uleb128 0xc7
 5691 005a E50C0000 		.4byte	.LASF667
 5692 005e 05       		.byte	0x5
 5693 005f C801     		.uleb128 0xc8
 5694 0061 29100000 		.4byte	.LASF668
 5695 0065 05       		.byte	0x5
 5696 0066 C901     		.uleb128 0xc9
 5697 0068 7C3F0000 		.4byte	.LASF669
 5698 006c 05       		.byte	0x5
 5699 006d CA01     		.uleb128 0xca
 5700 006f 9C380000 		.4byte	.LASF670
 5701 0073 05       		.byte	0x5
 5702 0074 CF01     		.uleb128 0xcf
 5703 0076 12070000 		.4byte	.LASF671
 5704 007a 06       		.byte	0x6
 5705 007b EB01     		.uleb128 0xeb
 5706 007d 0B240000 		.4byte	.LASF672
 5707 0081 06       		.byte	0x6
 5708 0082 9903     		.uleb128 0x199
 5709 0084 681B0000 		.4byte	.LASF509
 5710 0088 00       		.byte	0
 5711              		.section	.debug_macro,"G",%progbits,wm4.types.h.23.0d949686bbcadd1621462d4fa1f884f9,comdat
 5712              	.Ldebug_macro15:
 5713 0000 0400     		.2byte	0x4
 5714 0002 00       		.byte	0
 5715 0003 05       		.byte	0x5
 5716 0004 17       		.uleb128 0x17
 5717 0005 340C0000 		.4byte	.LASF673
 5718 0009 05       		.byte	0x5
 5719 000a 3C       		.uleb128 0x3c
 5720 000b A3160000 		.4byte	.LASF674
 5721 000f 00       		.byte	0
 5722              		.section	.debug_macro,"G",%progbits,wm4.stddef.h.40.cf962ebbec441b3ac67502735f0765db,comdat
 5723              	.Ldebug_macro16:
 5724 0000 0400     		.2byte	0x4
 5725 0002 00       		.byte	0
 5726 0003 05       		.byte	0x5
 5727 0004 28       		.uleb128 0x28
 5728 0005 A43B0000 		.4byte	.LASF675
 5729 0009 05       		.byte	0x5
 5730 000a 29       		.uleb128 0x29
 5731 000b E62F0000 		.4byte	.LASF676
 5732 000f 05       		.byte	0x5
 5733 0010 2B       		.uleb128 0x2b
 5734 0011 321C0000 		.4byte	.LASF677
 5735 0015 05       		.byte	0x5
 5736 0016 2D       		.uleb128 0x2d
 5737 0017 ED350000 		.4byte	.LASF678
 5738 001b 05       		.byte	0x5
 5739 001c 8B01     		.uleb128 0x8b
 5740 001e 02250000 		.4byte	.LASF679
ARM GAS  /tmp/ccuKfveS.s 			page 106


 5741 0022 05       		.byte	0x5
 5742 0023 8C01     		.uleb128 0x8c
 5743 0025 65220000 		.4byte	.LASF680
 5744 0029 05       		.byte	0x5
 5745 002a 8D01     		.uleb128 0x8d
 5746 002c B92A0000 		.4byte	.LASF681
 5747 0030 05       		.byte	0x5
 5748 0031 8E01     		.uleb128 0x8e
 5749 0033 4D320000 		.4byte	.LASF682
 5750 0037 05       		.byte	0x5
 5751 0038 8F01     		.uleb128 0x8f
 5752 003a 543D0000 		.4byte	.LASF683
 5753 003e 05       		.byte	0x5
 5754 003f 9001     		.uleb128 0x90
 5755 0041 B2060000 		.4byte	.LASF684
 5756 0045 05       		.byte	0x5
 5757 0046 9101     		.uleb128 0x91
 5758 0048 D10C0000 		.4byte	.LASF685
 5759 004c 05       		.byte	0x5
 5760 004d 9201     		.uleb128 0x92
 5761 004f A22E0000 		.4byte	.LASF686
 5762 0053 06       		.byte	0x6
 5763 0054 A101     		.uleb128 0xa1
 5764 0056 2C3D0000 		.4byte	.LASF687
 5765 005a 06       		.byte	0x6
 5766 005b EB01     		.uleb128 0xeb
 5767 005d 0B240000 		.4byte	.LASF672
 5768 0061 05       		.byte	0x5
 5769 0062 8802     		.uleb128 0x108
 5770 0064 EB410000 		.4byte	.LASF688
 5771 0068 05       		.byte	0x5
 5772 0069 8902     		.uleb128 0x109
 5773 006b 462B0000 		.4byte	.LASF689
 5774 006f 05       		.byte	0x5
 5775 0070 8A02     		.uleb128 0x10a
 5776 0072 4B180000 		.4byte	.LASF690
 5777 0076 05       		.byte	0x5
 5778 0077 8B02     		.uleb128 0x10b
 5779 0079 B23F0000 		.4byte	.LASF691
 5780 007d 05       		.byte	0x5
 5781 007e 8C02     		.uleb128 0x10c
 5782 0080 E3350000 		.4byte	.LASF692
 5783 0084 05       		.byte	0x5
 5784 0085 8D02     		.uleb128 0x10d
 5785 0087 81250000 		.4byte	.LASF693
 5786 008b 05       		.byte	0x5
 5787 008c 8E02     		.uleb128 0x10e
 5788 008e AE350000 		.4byte	.LASF694
 5789 0092 05       		.byte	0x5
 5790 0093 8F02     		.uleb128 0x10f
 5791 0095 64190000 		.4byte	.LASF695
 5792 0099 05       		.byte	0x5
 5793 009a 9002     		.uleb128 0x110
 5794 009c 45170000 		.4byte	.LASF696
 5795 00a0 05       		.byte	0x5
 5796 00a1 9102     		.uleb128 0x111
 5797 00a3 B3340000 		.4byte	.LASF697
ARM GAS  /tmp/ccuKfveS.s 			page 107


 5798 00a7 05       		.byte	0x5
 5799 00a8 9202     		.uleb128 0x112
 5800 00aa 122F0000 		.4byte	.LASF698
 5801 00ae 05       		.byte	0x5
 5802 00af 9302     		.uleb128 0x113
 5803 00b1 FC3E0000 		.4byte	.LASF699
 5804 00b5 05       		.byte	0x5
 5805 00b6 9402     		.uleb128 0x114
 5806 00b8 84360000 		.4byte	.LASF700
 5807 00bc 05       		.byte	0x5
 5808 00bd 9502     		.uleb128 0x115
 5809 00bf A62B0000 		.4byte	.LASF701
 5810 00c3 05       		.byte	0x5
 5811 00c4 9602     		.uleb128 0x116
 5812 00c6 82290000 		.4byte	.LASF702
 5813 00ca 06       		.byte	0x6
 5814 00cb A302     		.uleb128 0x123
 5815 00cd 40400000 		.4byte	.LASF703
 5816 00d1 06       		.byte	0x6
 5817 00d2 D802     		.uleb128 0x158
 5818 00d4 64060000 		.4byte	.LASF704
 5819 00d8 06       		.byte	0x6
 5820 00d9 8E03     		.uleb128 0x18e
 5821 00db 34080000 		.4byte	.LASF705
 5822 00df 05       		.byte	0x5
 5823 00e0 9303     		.uleb128 0x193
 5824 00e2 D61A0000 		.4byte	.LASF706
 5825 00e6 06       		.byte	0x6
 5826 00e7 9903     		.uleb128 0x199
 5827 00e9 681B0000 		.4byte	.LASF509
 5828 00ed 05       		.byte	0x5
 5829 00ee 9E03     		.uleb128 0x19e
 5830 00f0 B81E0000 		.4byte	.LASF707
 5831 00f4 00       		.byte	0
 5832              		.section	.debug_macro,"G",%progbits,wm4.types.h.2.e9cec8c90ab35f77d9f499e06ae02400,comdat
 5833              	.Ldebug_macro17:
 5834 0000 0400     		.2byte	0x4
 5835 0002 00       		.byte	0
 5836 0003 05       		.byte	0x5
 5837 0004 02       		.uleb128 0x2
 5838 0005 CB240000 		.4byte	.LASF708
 5839 0009 05       		.byte	0x5
 5840 000a 0D       		.uleb128 0xd
 5841 000b AA0D0000 		.4byte	.LASF709
 5842 000f 05       		.byte	0x5
 5843 0010 0E       		.uleb128 0xe
 5844 0011 012B0000 		.4byte	.LASF710
 5845 0015 05       		.byte	0x5
 5846 0016 0F       		.uleb128 0xf
 5847 0017 31360000 		.4byte	.LASF711
 5848 001b 05       		.byte	0x5
 5849 001c 10       		.uleb128 0x10
 5850 001d AE2F0000 		.4byte	.LASF712
 5851 0021 00       		.byte	0
 5852              		.section	.debug_macro,"G",%progbits,wm4.types.h.80.1f2c84c0d57dd52dd9936095d9ac218e,comdat
 5853              	.Ldebug_macro18:
 5854 0000 0400     		.2byte	0x4
ARM GAS  /tmp/ccuKfveS.s 			page 108


 5855 0002 00       		.byte	0
 5856 0003 05       		.byte	0x5
 5857 0004 50       		.uleb128 0x50
 5858 0005 18270000 		.4byte	.LASF713
 5859 0009 05       		.byte	0x5
 5860 000a 57       		.uleb128 0x57
 5861 000b 441E0000 		.4byte	.LASF714
 5862 000f 05       		.byte	0x5
 5863 0010 58       		.uleb128 0x58
 5864 0011 F2110000 		.4byte	.LASF715
 5865 0015 05       		.byte	0x5
 5866 0016 60       		.uleb128 0x60
 5867 0017 BD3F0000 		.4byte	.LASF716
 5868 001b 05       		.byte	0x5
 5869 001c 69       		.uleb128 0x69
 5870 001d 6D310000 		.4byte	.LASF717
 5871 0021 05       		.byte	0x5
 5872 0022 6E       		.uleb128 0x6e
 5873 0023 1E2F0000 		.4byte	.LASF718
 5874 0027 05       		.byte	0x5
 5875 0028 D201     		.uleb128 0xd2
 5876 002a 2B430000 		.4byte	.LASF719
 5877 002e 05       		.byte	0x5
 5878 002f D301     		.uleb128 0xd3
 5879 0031 D42A0000 		.4byte	.LASF720
 5880 0035 05       		.byte	0x5
 5881 0036 DB01     		.uleb128 0xdb
 5882 0038 8D020000 		.4byte	.LASF721
 5883 003c 05       		.byte	0x5
 5884 003d DF01     		.uleb128 0xdf
 5885 003f 95290000 		.4byte	.LASF722
 5886 0043 05       		.byte	0x5
 5887 0044 E101     		.uleb128 0xe1
 5888 0046 C2420000 		.4byte	.LASF723
 5889 004a 05       		.byte	0x5
 5890 004b EA01     		.uleb128 0xea
 5891 004d 573B0000 		.4byte	.LASF724
 5892 0051 05       		.byte	0x5
 5893 0052 EC01     		.uleb128 0xec
 5894 0054 BA150000 		.4byte	.LASF725
 5895 0058 05       		.byte	0x5
 5896 0059 ED01     		.uleb128 0xed
 5897 005b FC3B0000 		.4byte	.LASF726
 5898 005f 05       		.byte	0x5
 5899 0060 EE01     		.uleb128 0xee
 5900 0062 EA3F0000 		.4byte	.LASF727
 5901 0066 05       		.byte	0x5
 5902 0067 EF01     		.uleb128 0xef
 5903 0069 9B3A0000 		.4byte	.LASF728
 5904 006d 06       		.byte	0x6
 5905 006e F801     		.uleb128 0xf8
 5906 0070 6B140000 		.4byte	.LASF729
 5907 0074 06       		.byte	0x6
 5908 0075 F901     		.uleb128 0xf9
 5909 0077 62080000 		.4byte	.LASF730
 5910 007b 05       		.byte	0x5
 5911 007c FE01     		.uleb128 0xfe
ARM GAS  /tmp/ccuKfveS.s 			page 109


 5912 007e 46270000 		.4byte	.LASF731
 5913 0082 05       		.byte	0x5
 5914 0083 8302     		.uleb128 0x103
 5915 0085 D02D0000 		.4byte	.LASF732
 5916 0089 06       		.byte	0x6
 5917 008a E503     		.uleb128 0x1e5
 5918 008c 5E250000 		.4byte	.LASF733
 5919 0090 00       		.byte	0
 5920              		.section	.debug_macro,"G",%progbits,wm4.time.h.124.10ced469f846269cafc58b59c853e1bb,comdat
 5921              	.Ldebug_macro19:
 5922 0000 0400     		.2byte	0x4
 5923 0002 00       		.byte	0
 5924 0003 05       		.byte	0x5
 5925 0004 7C       		.uleb128 0x7c
 5926 0005 DE1D0000 		.4byte	.LASF734
 5927 0009 05       		.byte	0x5
 5928 000a BA01     		.uleb128 0xba
 5929 000c 2E3E0000 		.4byte	.LASF735
 5930 0010 05       		.byte	0x5
 5931 0011 BB01     		.uleb128 0xbb
 5932 0013 CC2B0000 		.4byte	.LASF736
 5933 0017 05       		.byte	0x5
 5934 0018 BF01     		.uleb128 0xbf
 5935 001a 610C0000 		.4byte	.LASF737
 5936 001e 05       		.byte	0x5
 5937 001f C201     		.uleb128 0xc2
 5938 0021 6E250000 		.4byte	.LASF738
 5939 0025 05       		.byte	0x5
 5940 0026 C801     		.uleb128 0xc8
 5941 0028 ED2E0000 		.4byte	.LASF739
 5942 002c 05       		.byte	0x5
 5943 002d CD01     		.uleb128 0xcd
 5944 002f CE180000 		.4byte	.LASF740
 5945 0033 00       		.byte	0
 5946              		.section	.debug_macro,"G",%progbits,wm4.stat.h.69.169a67369ef31f6ea38a12bc9ba4e5dd,comdat
 5947              	.Ldebug_macro20:
 5948 0000 0400     		.2byte	0x4
 5949 0002 00       		.byte	0
 5950 0003 05       		.byte	0x5
 5951 0004 45       		.uleb128 0x45
 5952 0005 67410000 		.4byte	.LASF741
 5953 0009 05       		.byte	0x5
 5954 000a 46       		.uleb128 0x46
 5955 000b 8E120000 		.4byte	.LASF742
 5956 000f 05       		.byte	0x5
 5957 0010 47       		.uleb128 0x47
 5958 0011 38410000 		.4byte	.LASF743
 5959 0015 05       		.byte	0x5
 5960 0016 48       		.uleb128 0x48
 5961 0017 1D350000 		.4byte	.LASF744
 5962 001b 05       		.byte	0x5
 5963 001c 49       		.uleb128 0x49
 5964 001d 13130000 		.4byte	.LASF745
 5965 0021 05       		.byte	0x5
 5966 0022 4A       		.uleb128 0x4a
 5967 0023 601A0000 		.4byte	.LASF746
 5968 0027 05       		.byte	0x5
ARM GAS  /tmp/ccuKfveS.s 			page 110


 5969 0028 4B       		.uleb128 0x4b
 5970 0029 80180000 		.4byte	.LASF747
 5971 002d 05       		.byte	0x5
 5972 002e 4C       		.uleb128 0x4c
 5973 002f 48150000 		.4byte	.LASF748
 5974 0033 05       		.byte	0x5
 5975 0034 4E       		.uleb128 0x4e
 5976 0035 0A3D0000 		.4byte	.LASF749
 5977 0039 05       		.byte	0x5
 5978 003a 50       		.uleb128 0x50
 5979 003b F4180000 		.4byte	.LASF750
 5980 003f 05       		.byte	0x5
 5981 0040 51       		.uleb128 0x51
 5982 0041 DB140000 		.4byte	.LASF751
 5983 0045 05       		.byte	0x5
 5984 0046 52       		.uleb128 0x52
 5985 0047 893F0000 		.4byte	.LASF752
 5986 004b 05       		.byte	0x5
 5987 004c 54       		.uleb128 0x54
 5988 004d 210E0000 		.4byte	.LASF753
 5989 0051 05       		.byte	0x5
 5990 0052 55       		.uleb128 0x55
 5991 0053 8C420000 		.4byte	.LASF754
 5992 0057 05       		.byte	0x5
 5993 0058 56       		.uleb128 0x56
 5994 0059 190D0000 		.4byte	.LASF755
 5995 005d 05       		.byte	0x5
 5996 005e 57       		.uleb128 0x57
 5997 005f 8E430000 		.4byte	.LASF756
 5998 0063 05       		.byte	0x5
 5999 0064 5A       		.uleb128 0x5a
 6000 0065 BC260000 		.4byte	.LASF757
 6001 0069 05       		.byte	0x5
 6002 006a 5B       		.uleb128 0x5b
 6003 006b 61400000 		.4byte	.LASF758
 6004 006f 05       		.byte	0x5
 6005 0070 5C       		.uleb128 0x5c
 6006 0071 EE170000 		.4byte	.LASF759
 6007 0075 05       		.byte	0x5
 6008 0076 5D       		.uleb128 0x5d
 6009 0077 250C0000 		.4byte	.LASF760
 6010 007b 05       		.byte	0x5
 6011 007c 5E       		.uleb128 0x5e
 6012 007d AD260000 		.4byte	.LASF761
 6013 0081 05       		.byte	0x5
 6014 0082 5F       		.uleb128 0x5f
 6015 0083 11290000 		.4byte	.LASF762
 6016 0087 05       		.byte	0x5
 6017 0088 60       		.uleb128 0x60
 6018 0089 B52D0000 		.4byte	.LASF763
 6019 008d 05       		.byte	0x5
 6020 008e 61       		.uleb128 0x61
 6021 008f 55180000 		.4byte	.LASF764
 6022 0093 05       		.byte	0x5
 6023 0094 70       		.uleb128 0x70
 6024 0095 561E0000 		.4byte	.LASF765
 6025 0099 05       		.byte	0x5
ARM GAS  /tmp/ccuKfveS.s 			page 111


 6026 009a 71       		.uleb128 0x71
 6027 009b A80A0000 		.4byte	.LASF766
 6028 009f 05       		.byte	0x5
 6029 00a0 72       		.uleb128 0x72
 6030 00a1 353F0000 		.4byte	.LASF767
 6031 00a5 05       		.byte	0x5
 6032 00a6 73       		.uleb128 0x73
 6033 00a7 57150000 		.4byte	.LASF768
 6034 00ab 05       		.byte	0x5
 6035 00ac 74       		.uleb128 0x74
 6036 00ad 532B0000 		.4byte	.LASF769
 6037 00b1 05       		.byte	0x5
 6038 00b2 75       		.uleb128 0x75
 6039 00b3 08360000 		.4byte	.LASF770
 6040 00b7 05       		.byte	0x5
 6041 00b8 76       		.uleb128 0x76
 6042 00b9 50200000 		.4byte	.LASF771
 6043 00bd 05       		.byte	0x5
 6044 00be 77       		.uleb128 0x77
 6045 00bf 183E0000 		.4byte	.LASF772
 6046 00c3 05       		.byte	0x5
 6047 00c4 78       		.uleb128 0x78
 6048 00c5 DD2B0000 		.4byte	.LASF773
 6049 00c9 05       		.byte	0x5
 6050 00ca 79       		.uleb128 0x79
 6051 00cb 20110000 		.4byte	.LASF774
 6052 00cf 05       		.byte	0x5
 6053 00d0 7A       		.uleb128 0x7a
 6054 00d1 57330000 		.4byte	.LASF775
 6055 00d5 05       		.byte	0x5
 6056 00d6 7B       		.uleb128 0x7b
 6057 00d7 F8080000 		.4byte	.LASF776
 6058 00db 05       		.byte	0x5
 6059 00dc 7E       		.uleb128 0x7e
 6060 00dd F9360000 		.4byte	.LASF777
 6061 00e1 05       		.byte	0x5
 6062 00e2 7F       		.uleb128 0x7f
 6063 00e3 A7190000 		.4byte	.LASF778
 6064 00e7 05       		.byte	0x5
 6065 00e8 8001     		.uleb128 0x80
 6066 00ea A9100000 		.4byte	.LASF779
 6067 00ee 05       		.byte	0x5
 6068 00ef 8301     		.uleb128 0x83
 6069 00f1 AE0C0000 		.4byte	.LASF780
 6070 00f5 05       		.byte	0x5
 6071 00f6 8401     		.uleb128 0x84
 6072 00f8 80160000 		.4byte	.LASF781
 6073 00fc 05       		.byte	0x5
 6074 00fd 8501     		.uleb128 0x85
 6075 00ff 290D0000 		.4byte	.LASF782
 6076 0103 05       		.byte	0x5
 6077 0104 8601     		.uleb128 0x86
 6078 0106 C7160000 		.4byte	.LASF783
 6079 010a 05       		.byte	0x5
 6080 010b 8701     		.uleb128 0x87
 6081 010d 82270000 		.4byte	.LASF784
 6082 0111 05       		.byte	0x5
ARM GAS  /tmp/ccuKfveS.s 			page 112


 6083 0112 8801     		.uleb128 0x88
 6084 0114 E1290000 		.4byte	.LASF785
 6085 0118 05       		.byte	0x5
 6086 0119 8901     		.uleb128 0x89
 6087 011b 332E0000 		.4byte	.LASF786
 6088 011f 00       		.byte	0
 6089              		.section	.debug_line,"",%progbits
 6090              	.Ldebug_line0:
 6091 0000 C2040000 		.section	.debug_str,"MS",%progbits,1
 6091      02008202 
 6091      00000201 
 6091      FB0E0D00 
 6091      01010101 
 6092              	.LASF260:
 6093 0000 5F5F4445 		.ascii	"__DECIMAL_DIG__ 17\000"
 6093      43494D41 
 6093      4C5F4449 
 6093      475F5F20 
 6093      313700
 6094              	.LASF397:
 6095 0013 5F5F5548 		.ascii	"__UHA_FBIT__ 8\000"
 6095      415F4642 
 6095      49545F5F 
 6095      203800
 6096              	.LASF77:
 6097 0022 74696D65 		.ascii	"times\000"
 6097      7300
 6098              	.LASF51:
 6099 0028 73657269 		.ascii	"serial_send\000"
 6099      616C5F73 
 6099      656E6400 
 6100              	.LASF287:
 6101 0034 5F5F4445 		.ascii	"__DEC128_EPSILON__ 1E-33DL\000"
 6101      43313238 
 6101      5F455053 
 6101      494C4F4E 
 6101      5F5F2031 
 6102              	.LASF1:
 6103 004f 756E7369 		.ascii	"unsigned char\000"
 6103      676E6564 
 6103      20636861 
 6103      7200
 6104              	.LASF414:
 6105 005d 5F5F4743 		.ascii	"__GCC_ATOMIC_WCHAR_T_LOCK_FREE 1\000"
 6105      435F4154 
 6105      4F4D4943 
 6105      5F574348 
 6105      41525F54 
 6106              	.LASF557:
 6107 007e 5F524545 		.ascii	"_REENT_GETDATE_ERR_P(ptr) (&((ptr)->_new._reent._ge"
 6107      4E545F47 
 6107      45544441 
 6107      54455F45 
 6107      52525F50 
 6108 00b1 74646174 		.ascii	"tdate_err))\000"
 6108      655F6572 
 6108      72292900 
ARM GAS  /tmp/ccuKfveS.s 			page 113


 6109              	.LASF409:
 6110 00bd 5F5F4348 		.ascii	"__CHAR_UNSIGNED__ 1\000"
 6110      41525F55 
 6110      4E534947 
 6110      4E45445F 
 6110      5F203100 
 6111              	.LASF15:
 6112 00d1 73697A65 		.ascii	"size_t\000"
 6112      5F7400
 6113              	.LASF78:
 6114 00d8 756E6C69 		.ascii	"unlink\000"
 6114      6E6B00
 6115              	.LASF582:
 6116 00df 454E4F54 		.ascii	"ENOTDIR 20\000"
 6116      44495220 
 6116      323000
 6117              	.LASF176:
 6118 00ea 5F5F4C4F 		.ascii	"__LONG_LONG_MAX__ 9223372036854775807LL\000"
 6118      4E475F4C 
 6118      4F4E475F 
 6118      4D41585F 
 6118      5F203932 
 6119              	.LASF361:
 6120 0112 5F5F4C4C 		.ascii	"__LLACCUM_MIN__ (-0X1P31LLK-0X1P31LLK)\000"
 6120      41434355 
 6120      4D5F4D49 
 6120      4E5F5F20 
 6120      282D3058 
 6121              	.LASF353:
 6122 0139 5F5F4C41 		.ascii	"__LACCUM_EPSILON__ 0x1P-31LK\000"
 6122      4343554D 
 6122      5F455053 
 6122      494C4F4E 
 6122      5F5F2030 
 6123              	.LASF286:
 6124 0156 5F5F4445 		.ascii	"__DEC128_MAX__ 9.999999999999999999999999999999999E"
 6124      43313238 
 6124      5F4D4158 
 6124      5F5F2039 
 6124      2E393939 
 6125 0189 36313434 		.ascii	"6144DL\000"
 6125      444C00
 6126              	.LASF478:
 6127 0190 5F4C4F4E 		.ascii	"_LONG_DOUBLE long double\000"
 6127      475F444F 
 6127      55424C45 
 6127      206C6F6E 
 6127      6720646F 
 6128              	.LASF184:
 6129 01a9 5F5F494E 		.ascii	"__INTMAX_C(c) c ## LL\000"
 6129      544D4158 
 6129      5F432863 
 6129      29206320 
 6129      2323204C 
 6130              	.LASF39:
 6131 01bf 73745F62 		.ascii	"st_blksize\000"
 6131      6C6B7369 
ARM GAS  /tmp/ccuKfveS.s 			page 114


 6131      7A6500
 6132              	.LASF347:
 6133 01ca 5F5F5541 		.ascii	"__UACCUM_MAX__ 0XFFFFFFFFP-16UK\000"
 6133      4343554D 
 6133      5F4D4158 
 6133      5F5F2030 
 6133      58464646 
 6134              	.LASF40:
 6135 01ea 73745F62 		.ascii	"st_blocks\000"
 6135      6C6F636B 
 6135      7300
 6136              	.LASF274:
 6137 01f4 5F5F4445 		.ascii	"__DEC32_SUBNORMAL_MIN__ 0.000001E-95DF\000"
 6137      4333325F 
 6137      5355424E 
 6137      4F524D41 
 6137      4C5F4D49 
 6138              	.LASF378:
 6139 021b 5F5F5451 		.ascii	"__TQ_IBIT__ 0\000"
 6139      5F494249 
 6139      545F5F20 
 6139      3000
 6140              	.LASF523:
 6141 0229 5F524545 		.ascii	"_REENT_SIGNAL_SIZE 24\000"
 6141      4E545F53 
 6141      49474E41 
 6141      4C5F5349 
 6141      5A452032 
 6142              	.LASF558:
 6143 023f 5F4B6D61 		.ascii	"_Kmax (sizeof (size_t) << 3)\000"
 6143      78202873 
 6143      697A656F 
 6143      66202873 
 6143      697A655F 
 6144              	.LASF118:
 6145 025c 5F5F4154 		.ascii	"__ATOMIC_CONSUME 1\000"
 6145      4F4D4943 
 6145      5F434F4E 
 6145      53554D45 
 6145      203100
 6146              	.LASF311:
 6147 026f 5F5F4C46 		.ascii	"__LFRACT_MIN__ (-0.5LR-0.5LR)\000"
 6147      52414354 
 6147      5F4D494E 
 6147      5F5F2028 
 6147      2D302E35 
 6148              	.LASF721:
 6149 028d 46445F53 		.ascii	"FD_SETSIZE 64\000"
 6149      45545349 
 6149      5A452036 
 6149      3400
 6150              	.LASF589:
 6151 029b 45464249 		.ascii	"EFBIG 27\000"
 6151      47203237 
 6151      00
 6152              	.LASF122:
 6153 02a4 5F5F5349 		.ascii	"__SIZEOF_LONG_LONG__ 8\000"
ARM GAS  /tmp/ccuKfveS.s 			page 115


 6153      5A454F46 
 6153      5F4C4F4E 
 6153      475F4C4F 
 6153      4E475F5F 
 6154              	.LASF245:
 6155 02bb 5F5F4442 		.ascii	"__DBL_MAX_10_EXP__ 308\000"
 6155      4C5F4D41 
 6155      585F3130 
 6155      5F455850 
 6155      5F5F2033 
 6156              	.LASF301:
 6157 02d2 5F5F4652 		.ascii	"__FRACT_MIN__ (-0.5R-0.5R)\000"
 6157      4143545F 
 6157      4D494E5F 
 6157      5F20282D 
 6157      302E3552 
 6158              	.LASF367:
 6159 02ed 5F5F554C 		.ascii	"__ULLACCUM_MAX__ 0XFFFFFFFFFFFFFFFFP-32ULLK\000"
 6159      4C414343 
 6159      554D5F4D 
 6159      41585F5F 
 6159      20305846 
 6160              	.LASF72:
 6161 0319 5F736272 		.ascii	"_sbrk_r\000"
 6161      6B5F7200 
 6162              	.LASF337:
 6163 0321 5F5F5553 		.ascii	"__USACCUM_MAX__ 0XFFFFP-8UHK\000"
 6163      41434355 
 6163      4D5F4D41 
 6163      585F5F20 
 6163      30584646 
 6164              	.LASF271:
 6165 033e 5F5F4445 		.ascii	"__DEC32_MIN__ 1E-95DF\000"
 6165      4333325F 
 6165      4D494E5F 
 6165      5F203145 
 6165      2D393544 
 6166              	.LASF374:
 6167 0354 5F5F5351 		.ascii	"__SQ_IBIT__ 0\000"
 6167      5F494249 
 6167      545F5F20 
 6167      3000
 6168              	.LASF648:
 6169 0362 45574F55 		.ascii	"EWOULDBLOCK EAGAIN\000"
 6169      4C44424C 
 6169      4F434B20 
 6169      45414741 
 6169      494E00
 6170              	.LASF136:
 6171 0375 5F5F5349 		.ascii	"__SIZE_TYPE__ unsigned int\000"
 6171      5A455F54 
 6171      5950455F 
 6171      5F20756E 
 6171      7369676E 
 6172              	.LASF277:
 6173 0390 5F5F4445 		.ascii	"__DEC64_MAX_EXP__ 385\000"
 6173      4336345F 
ARM GAS  /tmp/ccuKfveS.s 			page 116


 6173      4D41585F 
 6173      4558505F 
 6173      5F203338 
 6174              	.LASF542:
 6175 03a6 5F524545 		.ascii	"_REENT_MP_FREELIST(ptr) ((ptr)->_freelist)\000"
 6175      4E545F4D 
 6175      505F4652 
 6175      45454C49 
 6175      53542870 
 6176              	.LASF237:
 6177 03d1 5F5F464C 		.ascii	"__FLT_HAS_DENORM__ 1\000"
 6177      545F4841 
 6177      535F4445 
 6177      4E4F524D 
 6177      5F5F2031 
 6178              	.LASF145:
 6179 03e6 5F5F494E 		.ascii	"__INT8_TYPE__ signed char\000"
 6179      54385F54 
 6179      5950455F 
 6179      5F207369 
 6179      676E6564 
 6180              	.LASF20:
 6181 0400 6465765F 		.ascii	"dev_t\000"
 6181      7400
 6182              	.LASF24:
 6183 0406 6E6C696E 		.ascii	"nlink_t\000"
 6183      6B5F7400 
 6184              	.LASF472:
 6185 040e 5F455846 		.ascii	"_EXFUN(name,proto) name proto\000"
 6185      554E286E 
 6185      616D652C 
 6185      70726F74 
 6185      6F29206E 
 6186              	.LASF256:
 6187 042c 5F5F4C44 		.ascii	"__LDBL_MIN_EXP__ (-1021)\000"
 6187      424C5F4D 
 6187      494E5F45 
 6187      58505F5F 
 6187      20282D31 
 6188              	.LASF254:
 6189 0445 5F5F4C44 		.ascii	"__LDBL_MANT_DIG__ 53\000"
 6189      424C5F4D 
 6189      414E545F 
 6189      4449475F 
 6189      5F203533 
 6190              	.LASF83:
 6191 045a 77726974 		.ascii	"write\000"
 6191      6500
 6192              	.LASF206:
 6193 0460 5F5F5549 		.ascii	"__UINT8_C(c) c\000"
 6193      4E54385F 
 6193      43286329 
 6193      206300
 6194              	.LASF146:
 6195 046f 5F5F494E 		.ascii	"__INT16_TYPE__ short int\000"
 6195      5431365F 
 6195      54595045 
ARM GAS  /tmp/ccuKfveS.s 			page 117


 6195      5F5F2073 
 6195      686F7274 
 6196              	.LASF634:
 6197 0488 4550524F 		.ascii	"EPROTONOSUPPORT 123\000"
 6197      544F4E4F 
 6197      53555050 
 6197      4F525420 
 6197      31323300 
 6198              	.LASF16:
 6199 049c 74696D65 		.ascii	"time_t\000"
 6199      5F7400
 6200              	.LASF86:
 6201 04a3 5F656E64 		.ascii	"_end\000"
 6201      00
 6202              	.LASF90:
 6203 04a8 474E5520 		.ascii	"GNU C 4.7.4 20130613 (release) [ARM/embedded-4_7-br"
 6203      4320342E 
 6203      372E3420 
 6203      32303133 
 6203      30363133 
 6204 04db 616E6368 		.ascii	"anch revision 200083]\000"
 6204      20726576 
 6204      6973696F 
 6204      6E203230 
 6204      30303833 
 6205              	.LASF103:
 6206 04f1 4E554C4C 		.ascii	"NULL 0\000"
 6206      203000
 6207              	.LASF631:
 6208 04f8 45414C52 		.ascii	"EALREADY 120\000"
 6208      45414459 
 6208      20313230 
 6208      00
 6209              	.LASF161:
 6210 0505 5F5F494E 		.ascii	"__INT_FAST8_TYPE__ int\000"
 6210      545F4641 
 6210      5354385F 
 6210      54595045 
 6210      5F5F2069 
 6211              	.LASF573:
 6212 051c 45434849 		.ascii	"ECHILD 10\000"
 6212      4C442031 
 6212      3000
 6213              	.LASF108:
 6214 0526 5F5F5354 		.ascii	"__STDC_HOSTED__ 1\000"
 6214      44435F48 
 6214      4F535445 
 6214      445F5F20 
 6214      3100
 6215              	.LASF324:
 6216 0538 5F5F554C 		.ascii	"__ULLFRACT_FBIT__ 64\000"
 6216      4C465241 
 6216      43545F46 
 6216      4249545F 
 6216      5F203634 
 6217              	.LASF62:
 6218 054d 6F70656E 		.ascii	"open\000"
ARM GAS  /tmp/ccuKfveS.s 			page 118


 6218      00
 6219              	.LASF539:
 6220 0552 5F524545 		.ascii	"_REENT_MP_RESULT(ptr) ((ptr)->_result)\000"
 6220      4E545F4D 
 6220      505F5245 
 6220      53554C54 
 6220      28707472 
 6221              	.LASF164:
 6222 0579 5F5F494E 		.ascii	"__INT_FAST64_TYPE__ long long int\000"
 6222      545F4641 
 6222      53543634 
 6222      5F545950 
 6222      455F5F20 
 6223              	.LASF577:
 6224 059b 45464155 		.ascii	"EFAULT 14\000"
 6224      4C542031 
 6224      3400
 6225              	.LASF546:
 6226 05a5 5F524545 		.ascii	"_REENT_STRTOK_LAST(ptr) ((ptr)->_new._reent._strtok"
 6226      4E545F53 
 6226      5452544F 
 6226      4B5F4C41 
 6226      53542870 
 6227 05d8 5F6C6173 		.ascii	"_last)\000"
 6227      742900
 6228              	.LASF656:
 6229 05df 5F5F5349 		.ascii	"__SIZE_T__ \000"
 6229      5A455F54 
 6229      5F5F2000 
 6230              	.LASF486:
 6231 05eb 5F5F4558 		.ascii	"__EXP(x) __ ##x ##__\000"
 6231      50287829 
 6231      205F5F20 
 6231      23237820 
 6231      23235F5F 
 6232              	.LASF637:
 6233 0600 45495343 		.ascii	"EISCONN 127\000"
 6233      4F4E4E20 
 6233      31323700 
 6234              	.LASF196:
 6235 060c 5F5F5549 		.ascii	"__UINT64_MAX__ 18446744073709551615ULL\000"
 6235      4E543634 
 6235      5F4D4158 
 6235      5F5F2031 
 6235      38343436 
 6236              	.LASF607:
 6237 0633 454D554C 		.ascii	"EMULTIHOP 74\000"
 6237      5449484F 
 6237      50203734 
 6237      00
 6238              	.LASF297:
 6239 0640 5F5F5553 		.ascii	"__USFRACT_MAX__ 0XFFP-8UHR\000"
 6239      46524143 
 6239      545F4D41 
 6239      585F5F20 
 6239      30584646 
 6240              	.LASF598:
ARM GAS  /tmp/ccuKfveS.s 			page 119


 6241 065b 45494452 		.ascii	"EIDRM 36\000"
 6241      4D203336 
 6241      00
 6242              	.LASF704:
 6243 0664 5F5F6E65 		.ascii	"__need_wchar_t\000"
 6243      65645F77 
 6243      63686172 
 6243      5F7400
 6244              	.LASF645:
 6245 0673 4543414E 		.ascii	"ECANCELED 140\000"
 6245      43454C45 
 6245      44203134 
 6245      3000
 6246              	.LASF500:
 6247 0681 5F5F6C6F 		.ascii	"__lock_close_recursive(lock) (_CAST_VOID 0)\000"
 6247      636B5F63 
 6247      6C6F7365 
 6247      5F726563 
 6247      75727369 
 6248              	.LASF73:
 6249 06ad 73746174 		.ascii	"stat\000"
 6249      00
 6250              	.LASF684:
 6251 06b2 5F425344 		.ascii	"_BSD_PTRDIFF_T_ \000"
 6251      5F505452 
 6251      44494646 
 6251      5F545F20 
 6251      00
 6252              	.LASF139:
 6253 06c3 5F5F5749 		.ascii	"__WINT_TYPE__ unsigned int\000"
 6253      4E545F54 
 6253      5950455F 
 6253      5F20756E 
 6253      7369676E 
 6254              	.LASF314:
 6255 06de 5F5F554C 		.ascii	"__ULFRACT_FBIT__ 32\000"
 6255      46524143 
 6255      545F4642 
 6255      49545F5F 
 6255      20333200 
 6256              	.LASF476:
 6257 06f2 5F444546 		.ascii	"_DEFUN_VOID(name) name(_NOARGS)\000"
 6257      554E5F56 
 6257      4F494428 
 6257      6E616D65 
 6257      29206E61 
 6258              	.LASF671:
 6259 0712 5F5F7369 		.ascii	"__size_t \000"
 6259      7A655F74 
 6259      2000
 6260              	.LASF70:
 6261 071c 68656170 		.ascii	"heap_end\000"
 6261      5F656E64 
 6261      00
 6262              	.LASF105:
 6263 0725 5F5F5354 		.ascii	"__STDC_VERSION__ 199901L\000"
 6263      44435F56 
ARM GAS  /tmp/ccuKfveS.s 			page 120


 6263      45525349 
 6263      4F4E5F5F 
 6263      20313939 
 6264              	.LASF349:
 6265 073e 5F5F4C41 		.ascii	"__LACCUM_FBIT__ 31\000"
 6265      4343554D 
 6265      5F464249 
 6265      545F5F20 
 6265      333100
 6266              	.LASF453:
 6267 0751 5F504F49 		.ascii	"_POINTER_INT long\000"
 6267      4E544552 
 6267      5F494E54 
 6267      206C6F6E 
 6267      6700
 6268              	.LASF293:
 6269 0763 5F5F5346 		.ascii	"__SFRACT_EPSILON__ 0x1P-7HR\000"
 6269      52414354 
 6269      5F455053 
 6269      494C4F4E 
 6269      5F5F2030 
 6270              	.LASF660:
 6271 077f 5F545F53 		.ascii	"_T_SIZE \000"
 6271      495A4520 
 6271      00
 6272              	.LASF202:
 6273 0788 5F5F494E 		.ascii	"__INT32_C(c) c ## L\000"
 6273      5433325F 
 6273      43286329 
 6273      20632023 
 6273      23204C00 
 6274              	.LASF590:
 6275 079c 454E4F53 		.ascii	"ENOSPC 28\000"
 6275      50432032 
 6275      3800
 6276              	.LASF131:
 6277 07a6 5F5F4F52 		.ascii	"__ORDER_BIG_ENDIAN__ 4321\000"
 6277      4445525F 
 6277      4249475F 
 6277      454E4449 
 6277      414E5F5F 
 6278              	.LASF373:
 6279 07c0 5F5F5351 		.ascii	"__SQ_FBIT__ 31\000"
 6279      5F464249 
 6279      545F5F20 
 6279      333100
 6280              	.LASF622:
 6281 07cf 45434F4E 		.ascii	"ECONNREFUSED 111\000"
 6281      4E524546 
 6281      55534544 
 6281      20313131 
 6281      00
 6282              	.LASF381:
 6283 07e0 5F5F5548 		.ascii	"__UHQ_FBIT__ 16\000"
 6283      515F4642 
 6283      49545F5F 
 6283      20313600 
ARM GAS  /tmp/ccuKfveS.s 			page 121


 6284              	.LASF521:
 6285 07f0 5F524545 		.ascii	"_REENT_EMERGENCY_SIZE 25\000"
 6285      4E545F45 
 6285      4D455247 
 6285      454E4359 
 6285      5F53495A 
 6286              	.LASF172:
 6287 0809 5F5F5343 		.ascii	"__SCHAR_MAX__ 127\000"
 6287      4841525F 
 6287      4D41585F 
 6287      5F203132 
 6287      3700
 6288              	.LASF273:
 6289 081b 5F5F4445 		.ascii	"__DEC32_EPSILON__ 1E-6DF\000"
 6289      4333325F 
 6289      45505349 
 6289      4C4F4E5F 
 6289      5F203145 
 6290              	.LASF705:
 6291 0834 4E554C4C 		.ascii	"NULL\000"
 6291      00
 6292              	.LASF528:
 6293 0839 5F524545 		.ascii	"_REENT_CHECK_MP(ptr) \000"
 6293      4E545F43 
 6293      4845434B 
 6293      5F4D5028 
 6293      70747229 
 6294              	.LASF350:
 6295 084f 5F5F4C41 		.ascii	"__LACCUM_IBIT__ 32\000"
 6295      4343554D 
 6295      5F494249 
 6295      545F5F20 
 6295      333200
 6296              	.LASF730:
 6297 0862 5F53545F 		.ascii	"_ST_INT32\000"
 6297      494E5433 
 6297      3200
 6298              	.LASF190:
 6299 086c 5F5F494E 		.ascii	"__INT16_MAX__ 32767\000"
 6299      5431365F 
 6299      4D41585F 
 6299      5F203332 
 6299      37363700 
 6300              	.LASF432:
 6301 0880 5F5F5646 		.ascii	"__VFP_FP__ 1\000"
 6301      505F4650 
 6301      5F5F2031 
 6301      00
 6302              	.LASF321:
 6303 088d 5F5F4C4C 		.ascii	"__LLFRACT_MIN__ (-0.5LLR-0.5LLR)\000"
 6303      46524143 
 6303      545F4D49 
 6303      4E5F5F20 
 6303      282D302E 
 6304              	.LASF21:
 6305 08ae 7569645F 		.ascii	"uid_t\000"
 6305      7400
ARM GAS  /tmp/ccuKfveS.s 			page 122


 6306              	.LASF183:
 6307 08b4 5F5F494E 		.ascii	"__INTMAX_MAX__ 9223372036854775807LL\000"
 6307      544D4158 
 6307      5F4D4158 
 6307      5F5F2039 
 6307      32323333 
 6308              	.LASF454:
 6309 08d9 5F5F5241 		.ascii	"__RAND_MAX\000"
 6309      4E445F4D 
 6309      415800
 6310              	.LASF169:
 6311 08e4 5F5F494E 		.ascii	"__INTPTR_TYPE__ int\000"
 6311      54505452 
 6311      5F545950 
 6311      455F5F20 
 6311      696E7400 
 6312              	.LASF776:
 6313 08f8 535F4958 		.ascii	"S_IXOTH 0000001\000"
 6313      4F544820 
 6313      30303030 
 6313      30303100 
 6314              	.LASF452:
 6315 0908 5F5F474E 		.ascii	"__GNUC_PREREQ(maj,min) ((__GNUC__ << 16) + __GNUC_M"
 6315      55435F50 
 6315      52455245 
 6315      51286D61 
 6315      6A2C6D69 
 6316 093b 494E4F52 		.ascii	"INOR__ >= ((maj) << 16) + (min))\000"
 6316      5F5F203E 
 6316      3D202828 
 6316      6D616A29 
 6316      203C3C20 
 6317              	.LASF306:
 6318 095c 5F5F5546 		.ascii	"__UFRACT_MIN__ 0.0UR\000"
 6318      52414354 
 6318      5F4D494E 
 6318      5F5F2030 
 6318      2E305552 
 6319              	.LASF433:
 6320 0971 5F5F5448 		.ascii	"__THUMB_INTERWORK__ 1\000"
 6320      554D425F 
 6320      494E5445 
 6320      52574F52 
 6320      4B5F5F20 
 6321              	.LASF630:
 6322 0987 45494E50 		.ascii	"EINPROGRESS 119\000"
 6322      524F4752 
 6322      45535320 
 6322      31313900 
 6323              	.LASF466:
 6324 0997 5F434F4E 		.ascii	"_CONST const\000"
 6324      53542063 
 6324      6F6E7374 
 6324      00
 6325              	.LASF562:
 6326 09a4 6572726E 		.ascii	"errno (*__errno())\000"
 6326      6F20282A 
ARM GAS  /tmp/ccuKfveS.s 			page 123


 6326      5F5F6572 
 6326      726E6F28 
 6326      292900
 6327              	.LASF658:
 6328 09b7 5F535953 		.ascii	"_SYS_SIZE_T_H \000"
 6328      5F53495A 
 6328      455F545F 
 6328      482000
 6329              	.LASF536:
 6330 09c6 5F524545 		.ascii	"_REENT_RAND48_SEED(ptr) ((ptr)->_new._reent._r48._s"
 6330      4E545F52 
 6330      414E4434 
 6330      385F5345 
 6330      45442870 
 6331 09f9 65656429 		.ascii	"eed)\000"
 6331      00
 6332              	.LASF441:
 6333 09fe 5F5F6572 		.ascii	"__error_t_defined 1\000"
 6333      726F725F 
 6333      745F6465 
 6333      66696E65 
 6333      64203100 
 6334              	.LASF157:
 6335 0a12 5F5F5549 		.ascii	"__UINT_LEAST8_TYPE__ unsigned char\000"
 6335      4E545F4C 
 6335      45415354 
 6335      385F5459 
 6335      50455F5F 
 6336              	.LASF89:
 6337 0a35 6572726E 		.ascii	"errno\000"
 6337      6F00
 6338              	.LASF339:
 6339 0a3b 5F5F4143 		.ascii	"__ACCUM_FBIT__ 15\000"
 6339      43554D5F 
 6339      46424954 
 6339      5F5F2031 
 6339      3500
 6340              	.LASF588:
 6341 0a4d 45545854 		.ascii	"ETXTBSY 26\000"
 6341      42535920 
 6341      323600
 6342              	.LASF345:
 6343 0a58 5F5F5541 		.ascii	"__UACCUM_IBIT__ 16\000"
 6343      4343554D 
 6343      5F494249 
 6343      545F5F20 
 6343      313600
 6344              	.LASF7:
 6345 0a6b 6C6F6E67 		.ascii	"long int\000"
 6345      20696E74 
 6345      00
 6346              	.LASF220:
 6347 0a74 5F5F5549 		.ascii	"__UINT_FAST64_MAX__ 18446744073709551615ULL\000"
 6347      4E545F46 
 6347      41535436 
 6347      345F4D41 
 6347      585F5F20 
ARM GAS  /tmp/ccuKfveS.s 			page 124


 6348              	.LASF32:
 6349 0aa0 73745F73 		.ascii	"st_size\000"
 6349      697A6500 
 6350              	.LASF766:
 6351 0aa8 535F4952 		.ascii	"S_IRUSR 0000400\000"
 6351      55535220 
 6351      30303030 
 6351      34303000 
 6352              	.LASF248:
 6353 0ab8 5F5F4442 		.ascii	"__DBL_MIN__ ((double)2.2250738585072014e-308L)\000"
 6353      4C5F4D49 
 6353      4E5F5F20 
 6353      2828646F 
 6353      75626C65 
 6354              	.LASF489:
 6355 0ae7 5F5F5F69 		.ascii	"___int_least16_t_defined 1\000"
 6355      6E745F6C 
 6355      65617374 
 6355      31365F74 
 6355      5F646566 
 6356              	.LASF177:
 6357 0b02 5F5F5743 		.ascii	"__WCHAR_MAX__ 4294967295U\000"
 6357      4841525F 
 6357      4D41585F 
 6357      5F203432 
 6357      39343936 
 6358              	.LASF283:
 6359 0b1c 5F5F4445 		.ascii	"__DEC128_MIN_EXP__ (-6142)\000"
 6359      43313238 
 6359      5F4D494E 
 6359      5F455850 
 6359      5F5F2028 
 6360              	.LASF450:
 6361 0b37 5F4C4442 		.ascii	"_LDBL_EQ_DBL 1\000"
 6361      4C5F4551 
 6361      5F44424C 
 6361      203100
 6362              	.LASF483:
 6363 0b46 5F4E4F49 		.ascii	"_NOINLINE __attribute__ ((__noinline__))\000"
 6363      4E4C494E 
 6363      45205F5F 
 6363      61747472 
 6363      69627574 
 6364              	.LASF401:
 6365 0b6f 5F5F5544 		.ascii	"__UDA_FBIT__ 32\000"
 6365      415F4642 
 6365      49545F5F 
 6365      20333200 
 6366              	.LASF524:
 6367 0b7f 5F4E5F4C 		.ascii	"_N_LISTS 30\000"
 6367      49535453 
 6367      20333000 
 6368              	.LASF535:
 6369 0b8b 5F524545 		.ascii	"_REENT_RAND_NEXT(ptr) ((ptr)->_new._reent._rand_nex"
 6369      4E545F52 
 6369      414E445F 
 6369      4E455854 
ARM GAS  /tmp/ccuKfveS.s 			page 125


 6369      28707472 
 6370 0bbe 742900   		.ascii	"t)\000"
 6371              	.LASF186:
 6372 0bc1 5F5F5549 		.ascii	"__UINTMAX_C(c) c ## ULL\000"
 6372      4E544D41 
 6372      585F4328 
 6372      63292063 
 6372      20232320 
 6373              	.LASF135:
 6374 0bd9 5F5F5349 		.ascii	"__SIZEOF_POINTER__ 4\000"
 6374      5A454F46 
 6374      5F504F49 
 6374      4E544552 
 6374      5F5F2034 
 6375              	.LASF153:
 6376 0bee 5F5F494E 		.ascii	"__INT_LEAST8_TYPE__ signed char\000"
 6376      545F4C45 
 6376      41535438 
 6376      5F545950 
 6376      455F5F20 
 6377              	.LASF653:
 6378 0c0e 434C4B5F 		.ascii	"CLK_TCK CLOCKS_PER_SEC\000"
 6378      54434B20 
 6378      434C4F43 
 6378      4B535F50 
 6378      45525F53 
 6379              	.LASF760:
 6380 0c25 535F4946 		.ascii	"S_IFBLK _IFBLK\000"
 6380      424C4B20 
 6380      5F494642 
 6380      4C4B00
 6381              	.LASF673:
 6382 0c34 5F5F494E 		.ascii	"__INTTYPES_DEFINED__ \000"
 6382      54545950 
 6382      45535F44 
 6382      4546494E 
 6382      45445F5F 
 6383              	.LASF564:
 6384 0c4a 45504552 		.ascii	"EPERM 1\000"
 6384      4D203100 
 6385              	.LASF395:
 6386 0c52 5F5F5441 		.ascii	"__TA_FBIT__ 63\000"
 6386      5F464249 
 6386      545F5F20 
 6386      363300
 6387              	.LASF737:
 6388 0c61 434C4F43 		.ascii	"CLOCK_ALLOWED 1\000"
 6388      4B5F414C 
 6388      4C4F5745 
 6388      44203100 
 6389              	.LASF327:
 6390 0c71 5F5F554C 		.ascii	"__ULLFRACT_MAX__ 0XFFFFFFFFFFFFFFFFP-64ULLR\000"
 6390      4C465241 
 6390      43545F4D 
 6390      41585F5F 
 6390      20305846 
 6391              	.LASF189:
ARM GAS  /tmp/ccuKfveS.s 			page 126


 6392 0c9d 5F5F494E 		.ascii	"__INT8_MAX__ 127\000"
 6392      54385F4D 
 6392      41585F5F 
 6392      20313237 
 6392      00
 6393              	.LASF780:
 6394 0cae 535F4953 		.ascii	"S_ISBLK(m) (((m)&_IFMT) == _IFBLK)\000"
 6394      424C4B28 
 6394      6D292028 
 6394      28286D29 
 6394      265F4946 
 6395              	.LASF685:
 6396 0cd1 5F5F5F69 		.ascii	"___int_ptrdiff_t_h \000"
 6396      6E745F70 
 6396      74726469 
 6396      66665F74 
 6396      5F682000 
 6397              	.LASF667:
 6398 0ce5 5F53495A 		.ascii	"_SIZE_T_DECLARED \000"
 6398      455F545F 
 6398      4445434C 
 6398      41524544 
 6398      2000
 6399              	.LASF143:
 6400 0cf7 5F5F4348 		.ascii	"__CHAR32_TYPE__ long unsigned int\000"
 6400      41523332 
 6400      5F545950 
 6400      455F5F20 
 6400      6C6F6E67 
 6401              	.LASF755:
 6402 0d19 535F4945 		.ascii	"S_IEXEC 0000100\000"
 6402      58454320 
 6402      30303030 
 6402      31303000 
 6403              	.LASF782:
 6404 0d29 535F4953 		.ascii	"S_ISDIR(m) (((m)&_IFMT) == _IFDIR)\000"
 6404      44495228 
 6404      6D292028 
 6404      28286D29 
 6404      265F4946 
 6405              	.LASF230:
 6406 0d4c 5F5F464C 		.ascii	"__FLT_MAX_EXP__ 128\000"
 6406      545F4D41 
 6406      585F4558 
 6406      505F5F20 
 6406      31323800 
 6407              	.LASF121:
 6408 0d60 5F5F5349 		.ascii	"__SIZEOF_LONG__ 4\000"
 6408      5A454F46 
 6408      5F4C4F4E 
 6408      475F5F20 
 6408      3400
 6409              	.LASF29:
 6410 0d72 73745F75 		.ascii	"st_uid\000"
 6410      696400
 6411              	.LASF480:
 6412 0d79 5F504152 		.ascii	"_PARAMS(paramlist) paramlist\000"
ARM GAS  /tmp/ccuKfveS.s 			page 127


 6412      414D5328 
 6412      70617261 
 6412      6D6C6973 
 6412      74292070 
 6413              	.LASF125:
 6414 0d96 5F5F5349 		.ascii	"__SIZEOF_DOUBLE__ 8\000"
 6414      5A454F46 
 6414      5F444F55 
 6414      424C455F 
 6414      5F203800 
 6415              	.LASF709:
 6416 0daa 5F434C4F 		.ascii	"_CLOCK_T_ unsigned long\000"
 6416      434B5F54 
 6416      5F20756E 
 6416      7369676E 
 6416      6564206C 
 6417              	.LASF601:
 6418 0dc2 454E4F53 		.ascii	"ENOSTR 60\000"
 6418      54522036 
 6418      3000
 6419              	.LASF59:
 6420 0dcc 6C736565 		.ascii	"lseek\000"
 6420      6B00
 6421              	.LASF644:
 6422 0dd2 454F5645 		.ascii	"EOVERFLOW 139\000"
 6422      52464C4F 
 6422      57203133 
 6422      3900
 6423              	.LASF279:
 6424 0de0 5F5F4445 		.ascii	"__DEC64_MAX__ 9.999999999999999E384DD\000"
 6424      4336345F 
 6424      4D41585F 
 6424      5F20392E 
 6424      39393939 
 6425              	.LASF586:
 6426 0e06 454D4649 		.ascii	"EMFILE 24\000"
 6426      4C452032 
 6426      3400
 6427              	.LASF639:
 6428 0e10 45544F4F 		.ascii	"ETOOMANYREFS 129\000"
 6428      4D414E59 
 6428      52454653 
 6428      20313239 
 6428      00
 6429              	.LASF753:
 6430 0e21 535F4952 		.ascii	"S_IREAD 0000400\000"
 6430      45414420 
 6430      30303030 
 6430      34303000 
 6431              	.LASF403:
 6432 0e31 5F5F5554 		.ascii	"__UTA_FBIT__ 64\000"
 6432      415F4642 
 6432      49545F5F 
 6432      20363400 
 6433              	.LASF232:
 6434 0e41 5F5F464C 		.ascii	"__FLT_DECIMAL_DIG__ 9\000"
 6434      545F4445 
ARM GAS  /tmp/ccuKfveS.s 			page 128


 6434      43494D41 
 6434      4C5F4449 
 6434      475F5F20 
 6435              	.LASF0:
 6436 0e57 7369676E 		.ascii	"signed char\000"
 6436      65642063 
 6436      68617200 
 6437              	.LASF655:
 6438 0e63 5F5F7369 		.ascii	"__size_t__ \000"
 6438      7A655F74 
 6438      5F5F2000 
 6439              	.LASF407:
 6440 0e6f 5F5F474E 		.ascii	"__GNUC_STDC_INLINE__ 1\000"
 6440      55435F53 
 6440      5444435F 
 6440      494E4C49 
 6440      4E455F5F 
 6441              	.LASF538:
 6442 0e86 5F524545 		.ascii	"_REENT_RAND48_ADD(ptr) ((ptr)->_new._reent._r48._ad"
 6442      4E545F52 
 6442      414E4434 
 6442      385F4144 
 6442      44287074 
 6443 0eb9 642900   		.ascii	"d)\000"
 6444              	.LASF299:
 6445 0ebc 5F5F4652 		.ascii	"__FRACT_FBIT__ 15\000"
 6445      4143545F 
 6445      46424954 
 6445      5F5F2031 
 6445      3500
 6446              	.LASF34:
 6447 0ece 73745F73 		.ascii	"st_spare1\000"
 6447      70617265 
 6447      3100
 6448              	.LASF36:
 6449 0ed8 73745F73 		.ascii	"st_spare2\000"
 6449      70617265 
 6449      3200
 6450              	.LASF587:
 6451 0ee2 454E4F54 		.ascii	"ENOTTY 25\000"
 6451      54592032 
 6451      3500
 6452              	.LASF479:
 6453 0eec 5F4C4F4E 		.ascii	"_LONG_LONG_TYPE long long\000"
 6453      475F4C4F 
 6453      4E475F54 
 6453      59504520 
 6453      6C6F6E67 
 6454              	.LASF111:
 6455 0f06 5F5F474E 		.ascii	"__GNUC_PATCHLEVEL__ 4\000"
 6455      55435F50 
 6455      41544348 
 6455      4C455645 
 6455      4C5F5F20 
 6456              	.LASF516:
 6457 0f1c 5F52414E 		.ascii	"_RAND48_SEED_2 (0x1234)\000"
 6457      4434385F 
ARM GAS  /tmp/ccuKfveS.s 			page 129


 6457      53454544 
 6457      5F322028 
 6457      30783132 
 6458              	.LASF617:
 6459 0f34 454E4F42 		.ascii	"ENOBUFS 105\000"
 6459      55465320 
 6459      31303500 
 6460              	.LASF540:
 6461 0f40 5F524545 		.ascii	"_REENT_MP_RESULT_K(ptr) ((ptr)->_result_k)\000"
 6461      4E545F4D 
 6461      505F5245 
 6461      53554C54 
 6461      5F4B2870 
 6462              	.LASF475:
 6463 0f6b 5F444546 		.ascii	"_DEFUN(name,arglist,args) name(args)\000"
 6463      554E286E 
 6463      616D652C 
 6463      6172676C 
 6463      6973742C 
 6464              	.LASF591:
 6465 0f90 45535049 		.ascii	"ESPIPE 29\000"
 6465      50452032 
 6465      3900
 6466              	.LASF554:
 6467 0f9a 5F524545 		.ascii	"_REENT_WCSRTOMBS_STATE(ptr) ((ptr)->_new._reent._wc"
 6467      4E545F57 
 6467      43535254 
 6467      4F4D4253 
 6467      5F535441 
 6468 0fcd 7372746F 		.ascii	"srtombs_state)\000"
 6468      6D62735F 
 6468      73746174 
 6468      652900
 6469              	.LASF440:
 6470 0fdc 5F5F4552 		.ascii	"__ERRNO_H__ \000"
 6470      524E4F5F 
 6470      485F5F20 
 6470      00
 6471              	.LASF666:
 6472 0fe9 5F425344 		.ascii	"_BSD_SIZE_T_DEFINED_ \000"
 6472      5F53495A 
 6472      455F545F 
 6472      44454649 
 6472      4E45445F 
 6473              	.LASF88:
 6474 0fff 656E7669 		.ascii	"environ\000"
 6474      726F6E00 
 6475              	.LASF167:
 6476 1007 5F5F5549 		.ascii	"__UINT_FAST32_TYPE__ unsigned int\000"
 6476      4E545F46 
 6476      41535433 
 6476      325F5459 
 6476      50455F5F 
 6477              	.LASF668:
 6478 1029 5F5F5F69 		.ascii	"___int_size_t_h \000"
 6478      6E745F73 
 6478      697A655F 
ARM GAS  /tmp/ccuKfveS.s 			page 130


 6478      745F6820 
 6478      00
 6479              	.LASF107:
 6480 103a 5F5F5354 		.ascii	"__STDC_UTF_32__ 1\000"
 6480      44435F55 
 6480      54465F33 
 6480      325F5F20 
 6480      3100
 6481              	.LASF124:
 6482 104c 5F5F5349 		.ascii	"__SIZEOF_FLOAT__ 4\000"
 6482      5A454F46 
 6482      5F464C4F 
 6482      41545F5F 
 6482      203400
 6483              	.LASF330:
 6484 105f 5F5F5341 		.ascii	"__SACCUM_IBIT__ 8\000"
 6484      4343554D 
 6484      5F494249 
 6484      545F5F20 
 6484      3800
 6485              	.LASF231:
 6486 1071 5F5F464C 		.ascii	"__FLT_MAX_10_EXP__ 38\000"
 6486      545F4D41 
 6486      585F3130 
 6486      5F455850 
 6486      5F5F2033 
 6487              	.LASF302:
 6488 1087 5F5F4652 		.ascii	"__FRACT_MAX__ 0X7FFFP-15R\000"
 6488      4143545F 
 6488      4D41585F 
 6488      5F203058 
 6488      37464646 
 6489              	.LASF31:
 6490 10a1 73745F72 		.ascii	"st_rdev\000"
 6490      64657600 
 6491              	.LASF779:
 6492 10a9 44454646 		.ascii	"DEFFILEMODE (S_IRUSR | S_IWUSR | S_IRGRP | S_IWGRP "
 6492      494C454D 
 6492      4F444520 
 6492      28535F49 
 6492      52555352 
 6493 10dc 7C20535F 		.ascii	"| S_IROTH | S_IWOTH)\000"
 6493      49524F54 
 6493      48207C20 
 6493      535F4957 
 6493      4F544829 
 6494              	.LASF114:
 6495 10f1 5F5F4154 		.ascii	"__ATOMIC_SEQ_CST 5\000"
 6495      4F4D4943 
 6495      5F534551 
 6495      5F435354 
 6495      203500
 6496              	.LASF458:
 6497 1104 5F524541 		.ascii	"_READ_WRITE_RETURN_TYPE int\000"
 6497      445F5752 
 6497      4954455F 
 6497      52455455 
ARM GAS  /tmp/ccuKfveS.s 			page 131


 6497      524E5F54 
 6498              	.LASF774:
 6499 1120 535F4952 		.ascii	"S_IROTH 0000004\000"
 6499      4F544820 
 6499      30303030 
 6499      30303400 
 6500              	.LASF238:
 6501 1130 5F5F464C 		.ascii	"__FLT_HAS_INFINITY__ 1\000"
 6501      545F4841 
 6501      535F494E 
 6501      46494E49 
 6501      54595F5F 
 6502              	.LASF508:
 6503 1147 5F5F6E65 		.ascii	"__need_wint_t\000"
 6503      65645F77 
 6503      696E745F 
 6503      7400
 6504              	.LASF244:
 6505 1155 5F5F4442 		.ascii	"__DBL_MAX_EXP__ 1024\000"
 6505      4C5F4D41 
 6505      585F4558 
 6505      505F5F20 
 6505      31303234 
 6506              	.LASF217:
 6507 116a 5F5F5549 		.ascii	"__UINT_FAST8_MAX__ 4294967295U\000"
 6507      4E545F46 
 6507      41535438 
 6507      5F4D4158 
 6507      5F5F2034 
 6508              	.LASF610:
 6509 1189 454E4F53 		.ascii	"ENOSYS 88\000"
 6509      59532038 
 6509      3800
 6510              	.LASF377:
 6511 1193 5F5F5451 		.ascii	"__TQ_FBIT__ 127\000"
 6511      5F464249 
 6511      545F5F20 
 6511      31323700 
 6512              	.LASF288:
 6513 11a3 5F5F4445 		.ascii	"__DEC128_SUBNORMAL_MIN__ 0.000000000000000000000000"
 6513      43313238 
 6513      5F535542 
 6513      4E4F524D 
 6513      414C5F4D 
 6514 11d6 30303030 		.ascii	"000000001E-6143DL\000"
 6514      30303030 
 6514      31452D36 
 6514      31343344 
 6514      4C00
 6515              	.LASF593:
 6516 11e8 454D4C49 		.ascii	"EMLINK 31\000"
 6516      4E4B2033 
 6516      3100
 6517              	.LASF715:
 6518 11f2 71756164 		.ascii	"quad quad_t\000"
 6518      20717561 
 6518      645F7400 
ARM GAS  /tmp/ccuKfveS.s 			page 132


 6519              	.LASF82:
 6520 11fe 5F776169 		.ascii	"_wait_r\000"
 6520      745F7200 
 6521              	.LASF467:
 6522 1206 5F564F4C 		.ascii	"_VOLATILE volatile\000"
 6522      4154494C 
 6522      4520766F 
 6522      6C617469 
 6522      6C6500
 6523              	.LASF123:
 6524 1219 5F5F5349 		.ascii	"__SIZEOF_SHORT__ 2\000"
 6524      5A454F46 
 6524      5F53484F 
 6524      52545F5F 
 6524      203200
 6525              	.LASF364:
 6526 122c 5F5F554C 		.ascii	"__ULLACCUM_FBIT__ 32\000"
 6526      4C414343 
 6526      554D5F46 
 6526      4249545F 
 6526      5F203332 
 6527              	.LASF474:
 6528 1241 5F455846 		.ascii	"_EXFNPTR(name,proto) (* name) proto\000"
 6528      4E505452 
 6528      286E616D 
 6528      652C7072 
 6528      6F746F29 
 6529              	.LASF376:
 6530 1265 5F5F4451 		.ascii	"__DQ_IBIT__ 0\000"
 6530      5F494249 
 6530      545F5F20 
 6530      3000
 6531              	.LASF583:
 6532 1273 45495344 		.ascii	"EISDIR 21\000"
 6532      49522032 
 6532      3100
 6533              	.LASF451:
 6534 127d 5F535953 		.ascii	"_SYS_FEATURES_H \000"
 6534      5F464541 
 6534      54555245 
 6534      535F4820 
 6534      00
 6535              	.LASF742:
 6536 128e 5F494644 		.ascii	"_IFDIR 0040000\000"
 6536      49522030 
 6536      30343030 
 6536      303000
 6537              	.LASF126:
 6538 129d 5F5F5349 		.ascii	"__SIZEOF_LONG_DOUBLE__ 8\000"
 6538      5A454F46 
 6538      5F4C4F4E 
 6538      475F444F 
 6538      55424C45 
 6539              	.LASF625:
 6540 12b6 454E4554 		.ascii	"ENETUNREACH 114\000"
 6540      554E5245 
 6540      41434820 
ARM GAS  /tmp/ccuKfveS.s 			page 133


 6540      31313400 
 6541              	.LASF422:
 6542 12c6 5F5F5052 		.ascii	"__PRAGMA_REDEFINE_EXTNAME 1\000"
 6542      41474D41 
 6542      5F524544 
 6542      4546494E 
 6542      455F4558 
 6543              	.LASF138:
 6544 12e2 5F5F5743 		.ascii	"__WCHAR_TYPE__ unsigned int\000"
 6544      4841525F 
 6544      54595045 
 6544      5F5F2075 
 6544      6E736967 
 6545              	.LASF14:
 6546 12fe 63686172 		.ascii	"char\000"
 6546      00
 6547              	.LASF400:
 6548 1303 5F5F5553 		.ascii	"__USA_IBIT__ 16\000"
 6548      415F4942 
 6548      49545F5F 
 6548      20313600 
 6549              	.LASF745:
 6550 1313 5F494652 		.ascii	"_IFREG 0100000\000"
 6550      45472030 
 6550      31303030 
 6550      303000
 6551              	.LASF171:
 6552 1322 5F5F4758 		.ascii	"__GXX_ABI_VERSION 1002\000"
 6552      585F4142 
 6552      495F5645 
 6552      5253494F 
 6552      4E203130 
 6553              	.LASF168:
 6554 1339 5F5F5549 		.ascii	"__UINT_FAST64_TYPE__ long long unsigned int\000"
 6554      4E545F46 
 6554      41535436 
 6554      345F5459 
 6554      50455F5F 
 6555              	.LASF93:
 6556 1365 5F535953 		.ascii	"_SYS_ERRNO_H_ \000"
 6556      5F455252 
 6556      4E4F5F48 
 6556      5F2000
 6557              	.LASF551:
 6558 1374 5F524545 		.ascii	"_REENT_MBRTOWC_STATE(ptr) ((ptr)->_new._reent._mbrt"
 6558      4E545F4D 
 6558      4252544F 
 6558      57435F53 
 6558      54415445 
 6559 13a7 6F77635F 		.ascii	"owc_state)\000"
 6559      73746174 
 6559      652900
 6560              	.LASF507:
 6561 13b2 5F57494E 		.ascii	"_WINT_T \000"
 6561      545F5420 
 6561      00
 6562              	.LASF234:
ARM GAS  /tmp/ccuKfveS.s 			page 134


 6563 13bb 5F5F464C 		.ascii	"__FLT_MIN__ 1.1754943508222875e-38F\000"
 6563      545F4D49 
 6563      4E5F5F20 
 6563      312E3137 
 6563      35343934 
 6564              	.LASF654:
 6565 13df 5F5F6E65 		.ascii	"__need_size_t \000"
 6565      65645F73 
 6565      697A655F 
 6565      742000
 6566              	.LASF389:
 6567 13ee 5F5F4841 		.ascii	"__HA_FBIT__ 7\000"
 6567      5F464249 
 6567      545F5F20 
 6567      3700
 6568              	.LASF650:
 6569 13fc 5F4D4143 		.ascii	"_MACHTIME_H_ \000"
 6569      4854494D 
 6569      455F485F 
 6569      2000
 6570              	.LASF418:
 6571 140a 5F5F4743 		.ascii	"__GCC_ATOMIC_LLONG_LOCK_FREE 1\000"
 6571      435F4154 
 6571      4F4D4943 
 6571      5F4C4C4F 
 6571      4E475F4C 
 6572              	.LASF61:
 6573 1429 7768656E 		.ascii	"whence\000"
 6573      636500
 6574              	.LASF503:
 6575 1430 5F5F6C6F 		.ascii	"__lock_try_acquire(lock) (_CAST_VOID 0)\000"
 6575      636B5F74 
 6575      72795F61 
 6575      63717569 
 6575      7265286C 
 6576              	.LASF295:
 6577 1458 5F5F5553 		.ascii	"__USFRACT_IBIT__ 0\000"
 6577      46524143 
 6577      545F4942 
 6577      49545F5F 
 6577      203000
 6578              	.LASF729:
 6579 146b 5F5F4D53 		.ascii	"__MS_types__\000"
 6579      5F747970 
 6579      65735F5F 
 6579      00
 6580              	.LASF580:
 6581 1478 45584445 		.ascii	"EXDEV 18\000"
 6581      56203138 
 6581      00
 6582              	.LASF449:
 6583 1481 5F484156 		.ascii	"_HAVE_LONG_DOUBLE 1\000"
 6583      455F4C4F 
 6583      4E475F44 
 6583      4F55424C 
 6583      45203100 
 6584              	.LASF296:
ARM GAS  /tmp/ccuKfveS.s 			page 135


 6585 1495 5F5F5553 		.ascii	"__USFRACT_MIN__ 0.0UHR\000"
 6585      46524143 
 6585      545F4D49 
 6585      4E5F5F20 
 6585      302E3055 
 6586              	.LASF68:
 6587 14ac 7362726B 		.ascii	"sbrk\000"
 6587      00
 6588              	.LASF545:
 6589 14b1 5F524545 		.ascii	"_REENT_EMERGENCY(ptr) ((ptr)->_emergency)\000"
 6589      4E545F45 
 6589      4D455247 
 6589      454E4359 
 6589      28707472 
 6590              	.LASF751:
 6591 14db 535F4953 		.ascii	"S_ISGID 0002000\000"
 6591      47494420 
 6591      30303032 
 6591      30303000 
 6592              	.LASF488:
 6593 14eb 5F5F5F69 		.ascii	"___int16_t_defined 1\000"
 6593      6E743136 
 6593      5F745F64 
 6593      6566696E 
 6593      65642031 
 6594              	.LASF560:
 6595 1500 5F524545 		.ascii	"_REENT _impure_ptr\000"
 6595      4E54205F 
 6595      696D7075 
 6595      72655F70 
 6595      747200
 6596              	.LASF258:
 6597 1513 5F5F4C44 		.ascii	"__LDBL_MAX_EXP__ 1024\000"
 6597      424C5F4D 
 6597      41585F45 
 6597      58505F5F 
 6597      20313032 
 6598              	.LASF571:
 6599 1529 454E4F45 		.ascii	"ENOEXEC 8\000"
 6599      58454320 
 6599      3800
 6600              	.LASF251:
 6601 1533 5F5F4442 		.ascii	"__DBL_HAS_DENORM__ 1\000"
 6601      4C5F4841 
 6601      535F4445 
 6601      4E4F524D 
 6601      5F5F2031 
 6602              	.LASF748:
 6603 1548 5F494649 		.ascii	"_IFIFO 0010000\000"
 6603      464F2030 
 6603      30313030 
 6603      303000
 6604              	.LASF768:
 6605 1557 535F4958 		.ascii	"S_IXUSR 0000100\000"
 6605      55535220 
 6605      30303030 
 6605      31303000 
ARM GAS  /tmp/ccuKfveS.s 			page 136


 6606              	.LASF446:
 6607 1567 5F4D425F 		.ascii	"_MB_LEN_MAX 1\000"
 6607      4C454E5F 
 6607      4D415820 
 6607      3100
 6608              	.LASF80:
 6609 1575 77616974 		.ascii	"wait\000"
 6609      00
 6610              	.LASF437:
 6611 157a 5F5F4758 		.ascii	"__GXX_TYPEINFO_EQUALITY_INLINE 0\000"
 6611      585F5459 
 6611      5045494E 
 6611      464F5F45 
 6611      5155414C 
 6612              	.LASF63:
 6613 159b 666C6167 		.ascii	"flags\000"
 6613      7300
 6614              	.LASF55:
 6615 15a1 5F697361 		.ascii	"_isatty_r\000"
 6615      7474795F 
 6615      7200
 6616              	.LASF468:
 6617 15ab 5F534947 		.ascii	"_SIGNED signed\000"
 6617      4E454420 
 6617      7369676E 
 6617      656400
 6618              	.LASF725:
 6619 15ba 46445F53 		.ascii	"FD_SET(n,p) ((p)->fds_bits[(n)/NFDBITS] |= (1L << ("
 6619      4554286E 
 6619      2C702920 
 6619      28287029 
 6619      2D3E6664 
 6620 15ed 286E2920 		.ascii	"(n) % NFDBITS)))\000"
 6620      25204E46 
 6620      44424954 
 6620      53292929 
 6620      00
 6621              	.LASF236:
 6622 15fe 5F5F464C 		.ascii	"__FLT_DENORM_MIN__ 1.4012984643248171e-45F\000"
 6622      545F4445 
 6622      4E4F524D 
 6622      5F4D494E 
 6622      5F5F2031 
 6623              	.LASF615:
 6624 1629 4550464E 		.ascii	"EPFNOSUPPORT 96\000"
 6624      4F535550 
 6624      504F5254 
 6624      20393600 
 6625              	.LASF199:
 6626 1639 5F5F494E 		.ascii	"__INT_LEAST16_MAX__ 32767\000"
 6626      545F4C45 
 6626      41535431 
 6626      365F4D41 
 6626      585F5F20 
 6627              	.LASF368:
 6628 1653 5F5F554C 		.ascii	"__ULLACCUM_EPSILON__ 0x1P-32ULLK\000"
 6628      4C414343 
ARM GAS  /tmp/ccuKfveS.s 			page 137


 6628      554D5F45 
 6628      5053494C 
 6628      4F4E5F5F 
 6629              	.LASF461:
 6630 1674 5F454E44 		.ascii	"_END_STD_C \000"
 6630      5F535444 
 6630      5F432000 
 6631              	.LASF781:
 6632 1680 535F4953 		.ascii	"S_ISCHR(m) (((m)&_IFMT) == _IFCHR)\000"
 6632      43485228 
 6632      6D292028 
 6632      28286D29 
 6632      265F4946 
 6633              	.LASF674:
 6634 16a3 5F535953 		.ascii	"_SYS_TYPES_H \000"
 6634      5F545950 
 6634      45535F48 
 6634      2000
 6635              	.LASF210:
 6636 16b1 5F5F5549 		.ascii	"__UINT32_C(c) c ## UL\000"
 6636      4E543332 
 6636      5F432863 
 6636      29206320 
 6636      23232055 
 6637              	.LASF783:
 6638 16c7 535F4953 		.ascii	"S_ISFIFO(m) (((m)&_IFMT) == _IFIFO)\000"
 6638      4649464F 
 6638      286D2920 
 6638      2828286D 
 6638      29265F49 
 6639              	.LASF192:
 6640 16eb 5F5F494E 		.ascii	"__INT64_MAX__ 9223372036854775807LL\000"
 6640      5436345F 
 6640      4D41585F 
 6640      5F203932 
 6640      32333337 
 6641              	.LASF235:
 6642 170f 5F5F464C 		.ascii	"__FLT_EPSILON__ 1.1920928955078125e-7F\000"
 6642      545F4550 
 6642      53494C4F 
 6642      4E5F5F20 
 6642      312E3139 
 6643              	.LASF619:
 6644 1736 4550524F 		.ascii	"EPROTOTYPE 107\000"
 6644      544F5459 
 6644      50452031 
 6644      303700
 6645              	.LASF696:
 6646 1745 5F574348 		.ascii	"_WCHAR_T_DEFINED_ \000"
 6646      41525F54 
 6646      5F444546 
 6646      494E4544 
 6646      5F2000
 6647              	.LASF499:
 6648 1758 5F5F6C6F 		.ascii	"__lock_close(lock) (_CAST_VOID 0)\000"
 6648      636B5F63 
 6648      6C6F7365 
ARM GAS  /tmp/ccuKfveS.s 			page 138


 6648      286C6F63 
 6648      6B292028 
 6649              	.LASF149:
 6650 177a 5F5F5549 		.ascii	"__UINT8_TYPE__ unsigned char\000"
 6650      4E54385F 
 6650      54595045 
 6650      5F5F2075 
 6650      6E736967 
 6651              	.LASF534:
 6652 1797 5F524545 		.ascii	"_REENT_SIGNGAM(ptr) ((ptr)->_new._reent._gamma_sign"
 6652      4E545F53 
 6652      49474E47 
 6652      414D2870 
 6652      74722920 
 6653 17ca 67616D29 		.ascii	"gam)\000"
 6653      00
 6654              	.LASF415:
 6655 17cf 5F5F4743 		.ascii	"__GCC_ATOMIC_SHORT_LOCK_FREE 1\000"
 6655      435F4154 
 6655      4F4D4943 
 6655      5F53484F 
 6655      52545F4C 
 6656              	.LASF759:
 6657 17ee 535F4946 		.ascii	"S_IFCHR _IFCHR\000"
 6657      43485220 
 6657      5F494643 
 6657      485200
 6658              	.LASF372:
 6659 17fd 5F5F4851 		.ascii	"__HQ_IBIT__ 0\000"
 6659      5F494249 
 6659      545F5F20 
 6659      3000
 6660              	.LASF37:
 6661 180b 73745F63 		.ascii	"st_ctime\000"
 6661      74696D65 
 6661      00
 6662              	.LASF334:
 6663 1814 5F5F5553 		.ascii	"__USACCUM_FBIT__ 8\000"
 6663      41434355 
 6663      4D5F4642 
 6663      49545F5F 
 6663      203800
 6664              	.LASF419:
 6665 1827 5F5F4743 		.ascii	"__GCC_ATOMIC_TEST_AND_SET_TRUEVAL 1\000"
 6665      435F4154 
 6665      4F4D4943 
 6665      5F544553 
 6665      545F414E 
 6666              	.LASF690:
 6667 184b 5F574348 		.ascii	"_WCHAR_T \000"
 6667      41525F54 
 6667      2000
 6668              	.LASF764:
 6669 1855 535F4946 		.ascii	"S_IFIFO _IFIFO\000"
 6669      49464F20 
 6669      5F494649 
 6669      464F00
ARM GAS  /tmp/ccuKfveS.s 			page 139


 6670              	.LASF98:
 6671 1864 5F535953 		.ascii	"_SYS__TYPES_H \000"
 6671      5F5F5459 
 6671      5045535F 
 6671      482000
 6672              	.LASF44:
 6673 1873 66696C65 		.ascii	"file\000"
 6673      00
 6674              	.LASF510:
 6675 1878 5F4E554C 		.ascii	"_NULL 0\000"
 6675      4C203000 
 6676              	.LASF747:
 6677 1880 5F494653 		.ascii	"_IFSOCK 0140000\000"
 6677      4F434B20 
 6677      30313430 
 6677      30303000 
 6678              	.LASF606:
 6679 1890 4550524F 		.ascii	"EPROTO 71\000"
 6679      544F2037 
 6679      3100
 6680              	.LASF266:
 6681 189a 5F5F4C44 		.ascii	"__LDBL_HAS_INFINITY__ 1\000"
 6681      424C5F48 
 6681      41535F49 
 6681      4E46494E 
 6681      4954595F 
 6682              	.LASF272:
 6683 18b2 5F5F4445 		.ascii	"__DEC32_MAX__ 9.999999E96DF\000"
 6683      4333325F 
 6683      4D41585F 
 6683      5F20392E 
 6683      39393939 
 6684              	.LASF740:
 6685 18ce 54494D45 		.ascii	"TIMER_ABSTIME 4\000"
 6685      525F4142 
 6685      5354494D 
 6685      45203400 
 6686              	.LASF597:
 6687 18de 454E4F4D 		.ascii	"ENOMSG 35\000"
 6687      53472033 
 6687      3500
 6688              	.LASF435:
 6689 18e8 5F5F4152 		.ascii	"__ARM_PCS 1\000"
 6689      4D5F5043 
 6689      53203100 
 6690              	.LASF750:
 6691 18f4 535F4953 		.ascii	"S_ISUID 0004000\000"
 6691      55494420 
 6691      30303034 
 6691      30303000 
 6692              	.LASF188:
 6693 1904 5F5F5349 		.ascii	"__SIG_ATOMIC_MIN__ (-__SIG_ATOMIC_MAX__ - 1)\000"
 6693      475F4154 
 6693      4F4D4943 
 6693      5F4D494E 
 6693      5F5F2028 
 6694              	.LASF346:
ARM GAS  /tmp/ccuKfveS.s 			page 140


 6695 1931 5F5F5541 		.ascii	"__UACCUM_MIN__ 0.0UK\000"
 6695      4343554D 
 6695      5F4D494E 
 6695      5F5F2030 
 6695      2E30554B 
 6696              	.LASF417:
 6697 1946 5F5F4743 		.ascii	"__GCC_ATOMIC_LONG_LOCK_FREE 1\000"
 6697      435F4154 
 6697      4F4D4943 
 6697      5F4C4F4E 
 6697      475F4C4F 
 6698              	.LASF695:
 6699 1964 5F425344 		.ascii	"_BSD_WCHAR_T_ \000"
 6699      5F574348 
 6699      41525F54 
 6699      5F2000
 6700              	.LASF544:
 6701 1973 5F524545 		.ascii	"_REENT_TM(ptr) (&(ptr)->_new._reent._localtime_buf)"
 6701      4E545F54 
 6701      4D287074 
 6701      72292028 
 6701      26287074 
 6702 19a6 00       		.ascii	"\000"
 6703              	.LASF778:
 6704 19a7 414C4C50 		.ascii	"ALLPERMS (S_ISUID | S_ISGID | S_ISVTX | S_IRWXU | S"
 6704      45524D53 
 6704      2028535F 
 6704      49535549 
 6704      44207C20 
 6705 19da 5F495257 		.ascii	"_IRWXG | S_IRWXO)\000"
 6705      5847207C 
 6705      20535F49 
 6705      5257584F 
 6705      2900
 6706              	.LASF628:
 6707 19ec 45484F53 		.ascii	"EHOSTDOWN 117\000"
 6707      54444F57 
 6707      4E203131 
 6707      3700
 6708              	.LASF502:
 6709 19fa 5F5F6C6F 		.ascii	"__lock_acquire_recursive(lock) (_CAST_VOID 0)\000"
 6709      636B5F61 
 6709      63717569 
 6709      72655F72 
 6709      65637572 
 6710              	.LASF574:
 6711 1a28 45414741 		.ascii	"EAGAIN 11\000"
 6711      494E2031 
 6711      3100
 6712              	.LASF531:
 6713 1a32 5F524545 		.ascii	"_REENT_CHECK_EMERGENCY(ptr) \000"
 6713      4E545F43 
 6713      4845434B 
 6713      5F454D45 
 6713      5247454E 
 6714              	.LASF629:
 6715 1a4f 45484F53 		.ascii	"EHOSTUNREACH 118\000"
ARM GAS  /tmp/ccuKfveS.s 			page 141


 6715      54554E52 
 6715      45414348 
 6715      20313138 
 6715      00
 6716              	.LASF746:
 6717 1a60 5F49464C 		.ascii	"_IFLNK 0120000\000"
 6717      4E4B2030 
 6717      31323030 
 6717      303000
 6718              	.LASF9:
 6719 1a6f 5F5F6465 		.ascii	"__dev_t\000"
 6719      765F7400 
 6720              	.LASF612:
 6721 1a77 454E414D 		.ascii	"ENAMETOOLONG 91\000"
 6721      45544F4F 
 6721      4C4F4E47 
 6721      20393100 
 6722              	.LASF281:
 6723 1a87 5F5F4445 		.ascii	"__DEC64_SUBNORMAL_MIN__ 0.000000000000001E-383DD\000"
 6723      4336345F 
 6723      5355424E 
 6723      4F524D41 
 6723      4C5F4D49 
 6724              	.LASF298:
 6725 1ab8 5F5F5553 		.ascii	"__USFRACT_EPSILON__ 0x1P-8UHR\000"
 6725      46524143 
 6725      545F4550 
 6725      53494C4F 
 6725      4E5F5F20 
 6726              	.LASF706:
 6727 1ad6 4E554C4C 		.ascii	"NULL ((void *)0)\000"
 6727      20282876 
 6727      6F696420 
 6727      2A293029 
 6727      00
 6728              	.LASF3:
 6729 1ae7 73686F72 		.ascii	"short unsigned int\000"
 6729      7420756E 
 6729      7369676E 
 6729      65642069 
 6729      6E7400
 6730              	.LASF216:
 6731 1afa 5F5F494E 		.ascii	"__INT_FAST64_MAX__ 9223372036854775807LL\000"
 6731      545F4641 
 6731      53543634 
 6731      5F4D4158 
 6731      5F5F2039 
 6732              	.LASF491:
 6733 1b23 5F5F5F69 		.ascii	"___int_least32_t_defined 1\000"
 6733      6E745F6C 
 6733      65617374 
 6733      33325F74 
 6733      5F646566 
 6734              	.LASF362:
 6735 1b3e 5F5F4C4C 		.ascii	"__LLACCUM_MAX__ 0X7FFFFFFFFFFFFFFFP-31LLK\000"
 6735      41434355 
 6735      4D5F4D41 
ARM GAS  /tmp/ccuKfveS.s 			page 142


 6735      585F5F20 
 6735      30583746 
 6736              	.LASF509:
 6737 1b68 5F5F6E65 		.ascii	"__need_NULL\000"
 6737      65645F4E 
 6737      554C4C00 
 6738              	.LASF406:
 6739 1b74 5F5F5553 		.ascii	"__USER_LABEL_PREFIX__ \000"
 6739      45525F4C 
 6739      4142454C 
 6739      5F505245 
 6739      4649585F 
 6740              	.LASF548:
 6741 1b8b 5F524545 		.ascii	"_REENT_MBTOWC_STATE(ptr) ((ptr)->_new._reent._mbtow"
 6741      4E545F4D 
 6741      42544F57 
 6741      435F5354 
 6741      41544528 
 6742 1bbe 635F7374 		.ascii	"c_state)\000"
 6742      61746529 
 6742      00
 6743              	.LASF30:
 6744 1bc7 73745F67 		.ascii	"st_gid\000"
 6744      696400
 6745              	.LASF547:
 6746 1bce 5F524545 		.ascii	"_REENT_MBLEN_STATE(ptr) ((ptr)->_new._reent._mblen_"
 6746      4E545F4D 
 6746      424C454E 
 6746      5F535441 
 6746      54452870 
 6747 1c01 73746174 		.ascii	"state)\000"
 6747      652900
 6748              	.LASF572:
 6749 1c08 45424144 		.ascii	"EBADF 9\000"
 6749      46203900 
 6750              	.LASF442:
 6751 1c10 5F5F4E45 		.ascii	"__NEWLIB_H__ 1\000"
 6751      574C4942 
 6751      5F485F5F 
 6751      203100
 6752              	.LASF115:
 6753 1c1f 5F5F4154 		.ascii	"__ATOMIC_ACQUIRE 2\000"
 6753      4F4D4943 
 6753      5F414351 
 6753      55495245 
 6753      203200
 6754              	.LASF677:
 6755 1c32 5F414E53 		.ascii	"_ANSI_STDDEF_H \000"
 6755      495F5354 
 6755      44444546 
 6755      5F482000 
 6756              	.LASF249:
 6757 1c42 5F5F4442 		.ascii	"__DBL_EPSILON__ ((double)2.2204460492503131e-16L)\000"
 6757      4C5F4550 
 6757      53494C4F 
 6757      4E5F5F20 
 6757      2828646F 
ARM GAS  /tmp/ccuKfveS.s 			page 143


 6758              	.LASF12:
 6759 1c74 73697A65 		.ascii	"sizetype\000"
 6759      74797065 
 6759      00
 6760              	.LASF614:
 6761 1c7d 454F504E 		.ascii	"EOPNOTSUPP 95\000"
 6761      4F545355 
 6761      50502039 
 6761      3500
 6762              	.LASF342:
 6763 1c8b 5F5F4143 		.ascii	"__ACCUM_MAX__ 0X7FFFFFFFP-15K\000"
 6763      43554D5F 
 6763      4D41585F 
 6763      5F203058 
 6763      37464646 
 6764              	.LASF18:
 6765 1ca9 696E6F5F 		.ascii	"ino_t\000"
 6765      7400
 6766              	.LASF257:
 6767 1caf 5F5F4C44 		.ascii	"__LDBL_MIN_10_EXP__ (-307)\000"
 6767      424C5F4D 
 6767      494E5F31 
 6767      305F4558 
 6767      505F5F20 
 6768              	.LASF267:
 6769 1cca 5F5F4C44 		.ascii	"__LDBL_HAS_QUIET_NAN__ 1\000"
 6769      424C5F48 
 6769      41535F51 
 6769      55494554 
 6769      5F4E414E 
 6770              	.LASF102:
 6771 1ce3 5F54494D 		.ascii	"_TIME_H_ \000"
 6771      455F485F 
 6771      2000
 6772              	.LASF421:
 6773 1ced 5F5F4743 		.ascii	"__GCC_HAVE_DWARF2_CFI_ASM 1\000"
 6773      435F4841 
 6773      56455F44 
 6773      57415246 
 6773      325F4346 
 6774              	.LASF487:
 6775 1d09 5F5F5F69 		.ascii	"___int8_t_defined 1\000"
 6775      6E74385F 
 6775      745F6465 
 6775      66696E65 
 6775      64203100 
 6776              	.LASF291:
 6777 1d1d 5F5F5346 		.ascii	"__SFRACT_MIN__ (-0.5HR-0.5HR)\000"
 6777      52414354 
 6777      5F4D494E 
 6777      5F5F2028 
 6777      2D302E35 
 6778              	.LASF13:
 6779 1d3b 6C6F6E67 		.ascii	"long unsigned int\000"
 6779      20756E73 
 6779      69676E65 
 6779      6420696E 
ARM GAS  /tmp/ccuKfveS.s 			page 144


 6779      7400
 6780              	.LASF392:
 6781 1d4d 5F5F5341 		.ascii	"__SA_IBIT__ 16\000"
 6781      5F494249 
 6781      545F5F20 
 6781      313600
 6782              	.LASF109:
 6783 1d5c 5F5F474E 		.ascii	"__GNUC__ 4\000"
 6783      55435F5F 
 6783      203400
 6784              	.LASF150:
 6785 1d67 5F5F5549 		.ascii	"__UINT16_TYPE__ short unsigned int\000"
 6785      4E543136 
 6785      5F545950 
 6785      455F5F20 
 6785      73686F72 
 6786              	.LASF54:
 6787 1d8a 69736174 		.ascii	"isatty\000"
 6787      747900
 6788              	.LASF431:
 6789 1d91 5F5F534F 		.ascii	"__SOFTFP__ 1\000"
 6789      46544650 
 6789      5F5F2031 
 6789      00
 6790              	.LASF81:
 6791 1d9e 73746174 		.ascii	"status\000"
 6791      757300
 6792              	.LASF270:
 6793 1da5 5F5F4445 		.ascii	"__DEC32_MAX_EXP__ 97\000"
 6793      4333325F 
 6793      4D41585F 
 6793      4558505F 
 6793      5F203937 
 6794              	.LASF624:
 6795 1dba 45434F4E 		.ascii	"ECONNABORTED 113\000"
 6795      4E41424F 
 6795      52544544 
 6795      20313133 
 6795      00
 6796              	.LASF659:
 6797 1dcb 5F545F53 		.ascii	"_T_SIZE_ \000"
 6797      495A455F 
 6797      2000
 6798              	.LASF594:
 6799 1dd5 45504950 		.ascii	"EPIPE 32\000"
 6799      45203332 
 6799      00
 6800              	.LASF734:
 6801 1dde 747A6E61 		.ascii	"tzname _tzname\000"
 6801      6D65205F 
 6801      747A6E61 
 6801      6D6500
 6802              	.LASF165:
 6803 1ded 5F5F5549 		.ascii	"__UINT_FAST8_TYPE__ unsigned int\000"
 6803      4E545F46 
 6803      41535438 
 6803      5F545950 
ARM GAS  /tmp/ccuKfveS.s 			page 145


 6803      455F5F20 
 6804              	.LASF360:
 6805 1e0e 5F5F4C4C 		.ascii	"__LLACCUM_IBIT__ 32\000"
 6805      41434355 
 6805      4D5F4942 
 6805      49545F5F 
 6805      20333200 
 6806              	.LASF303:
 6807 1e22 5F5F4652 		.ascii	"__FRACT_EPSILON__ 0x1P-15R\000"
 6807      4143545F 
 6807      45505349 
 6807      4C4F4E5F 
 6807      5F203078 
 6808              	.LASF25:
 6809 1e3d 73745F64 		.ascii	"st_dev\000"
 6809      657600
 6810              	.LASF714:
 6811 1e44 70687973 		.ascii	"physadr physadr_t\000"
 6811      61647220 
 6811      70687973 
 6811      6164725F 
 6811      7400
 6812              	.LASF765:
 6813 1e56 535F4952 		.ascii	"S_IRWXU (S_IRUSR | S_IWUSR | S_IXUSR)\000"
 6813      57585520 
 6813      28535F49 
 6813      52555352 
 6813      207C2053 
 6814              	.LASF193:
 6815 1e7c 5F5F5549 		.ascii	"__UINT8_MAX__ 255\000"
 6815      4E54385F 
 6815      4D41585F 
 6815      5F203235 
 6815      3500
 6816              	.LASF427:
 6817 1e8e 5F5F4150 		.ascii	"__APCS_32__ 1\000"
 6817      43535F33 
 6817      325F5F20 
 6817      3100
 6818              	.LASF57:
 6819 1e9c 6C696E6B 		.ascii	"link\000"
 6819      00
 6820              	.LASF174:
 6821 1ea1 5F5F494E 		.ascii	"__INT_MAX__ 2147483647\000"
 6821      545F4D41 
 6821      585F5F20 
 6821      32313437 
 6821      34383336 
 6822              	.LASF707:
 6823 1eb8 6F666673 		.ascii	"offsetof(TYPE,MEMBER) __builtin_offsetof (TYPE, MEM"
 6823      65746F66 
 6823      28545950 
 6823      452C4D45 
 6823      4D424552 
 6824 1eeb 42455229 		.ascii	"BER)\000"
 6824      00
 6825              	.LASF212:
ARM GAS  /tmp/ccuKfveS.s 			page 146


 6826 1ef0 5F5F5549 		.ascii	"__UINT64_C(c) c ## ULL\000"
 6826      4E543634 
 6826      5F432863 
 6826      29206320 
 6826      23232055 
 6827              	.LASF160:
 6828 1f07 5F5F5549 		.ascii	"__UINT_LEAST64_TYPE__ long long unsigned int\000"
 6828      4E545F4C 
 6828      45415354 
 6828      36345F54 
 6828      5950455F 
 6829              	.LASF294:
 6830 1f34 5F5F5553 		.ascii	"__USFRACT_FBIT__ 8\000"
 6830      46524143 
 6830      545F4642 
 6830      49545F5F 
 6830      203800
 6831              	.LASF263:
 6832 1f47 5F5F4C44 		.ascii	"__LDBL_EPSILON__ 2.2204460492503131e-16L\000"
 6832      424C5F45 
 6832      5053494C 
 6832      4F4E5F5F 
 6832      20322E32 
 6833              	.LASF621:
 6834 1f70 454E4F50 		.ascii	"ENOPROTOOPT 109\000"
 6834      524F544F 
 6834      4F505420 
 6834      31303900 
 6835              	.LASF412:
 6836 1f80 5F5F4743 		.ascii	"__GCC_ATOMIC_CHAR16_T_LOCK_FREE 1\000"
 6836      435F4154 
 6836      4F4D4943 
 6836      5F434841 
 6836      5231365F 
 6837              	.LASF38:
 6838 1fa2 73745F73 		.ascii	"st_spare3\000"
 6838      70617265 
 6838      3300
 6839              	.LASF41:
 6840 1fac 73745F73 		.ascii	"st_spare4\000"
 6840      70617265 
 6840      3400
 6841              	.LASF116:
 6842 1fb6 5F5F4154 		.ascii	"__ATOMIC_RELEASE 3\000"
 6842      4F4D4943 
 6842      5F52454C 
 6842      45415345 
 6842      203300
 6843              	.LASF482:
 6844 1fc9 5F454C49 		.ascii	"_ELIDABLE_INLINE __inline__\000"
 6844      4441424C 
 6844      455F494E 
 6844      4C494E45 
 6844      205F5F69 
 6845              	.LASF53:
 6846 1fe5 67657470 		.ascii	"getpid\000"
 6846      696400
ARM GAS  /tmp/ccuKfveS.s 			page 147


 6847              	.LASF226:
 6848 1fec 5F5F464C 		.ascii	"__FLT_MANT_DIG__ 24\000"
 6848      545F4D41 
 6848      4E545F44 
 6848      49475F5F 
 6848      20323400 
 6849              	.LASF609:
 6850 2000 45465459 		.ascii	"EFTYPE 79\000"
 6850      50452037 
 6850      3900
 6851              	.LASF386:
 6852 200a 5F5F5544 		.ascii	"__UDQ_IBIT__ 0\000"
 6852      515F4942 
 6852      49545F5F 
 6852      203000
 6853              	.LASF496:
 6854 2019 5F5F4C4F 		.ascii	"__LOCK_INIT_RECURSIVE(class,lock) static int lock ="
 6854      434B5F49 
 6854      4E49545F 
 6854      52454355 
 6854      52534956 
 6855 204c 20303B00 		.ascii	" 0;\000"
 6856              	.LASF771:
 6857 2050 535F4957 		.ascii	"S_IWGRP 0000020\000"
 6857      47525020 
 6857      30303030 
 6857      30323000 
 6858              	.LASF43:
 6859 2060 5F636C6F 		.ascii	"_close_r\000"
 6859      73655F72 
 6859      00
 6860              	.LASF525:
 6861 2069 5F524545 		.ascii	"_REENT_INIT(var) { 0, &(var).__sf[0], &(var).__sf[1"
 6861      4E545F49 
 6861      4E495428 
 6861      76617229 
 6861      207B2030 
 6862 209c 5D2C2026 		.ascii	"], &(var).__sf[2], 0, \"\", 0, \"C\", 0, _NULL, _NU"
 6862      28766172 
 6862      292E5F5F 
 6862      73665B32 
 6862      5D2C2030 
 6863 20cb 4C4C2C20 		.ascii	"LL, 0, _NULL, _NULL, 0, _NULL, { { 0, _NULL, \"\", "
 6863      302C205F 
 6863      4E554C4C 
 6863      2C205F4E 
 6863      554C4C2C 
 6864 20fc 7B302C20 		.ascii	"{0, 0, 0, 0, 0, 0, 0, 0, 0}, 0, 1, { {_RAND48_SEED_"
 6864      302C2030 
 6864      2C20302C 
 6864      20302C20 
 6864      302C2030 
 6865 212f 302C205F 		.ascii	"0, _RAND48_SEED_1, _RAND48_SEED_2}, {_RAND48_MULT_0"
 6865      52414E44 
 6865      34385F53 
 6865      4545445F 
 6865      312C205F 
ARM GAS  /tmp/ccuKfveS.s 			page 148


 6866 2162 2C205F52 		.ascii	", _RAND48_MULT_1, _RAND48_MULT_2}, _RAND48_ADD }, {"
 6866      414E4434 
 6866      385F4D55 
 6866      4C545F31 
 6866      2C205F52 
 6867 2195 302C207B 		.ascii	"0, {0}}, {0, {0}}, {0, {0}}, \"\", \"\", 0, {0, {0}"
 6867      307D7D2C 
 6867      207B302C 
 6867      207B307D 
 6867      7D2C207B 
 6868 21c4 7D2C207B 		.ascii	"}, {0, {0}}, {0, {0}}, {0, {0}}, {0, {0}} } }, _NUL"
 6868      302C207B 
 6868      307D7D2C 
 6868      207B302C 
 6868      207B307D 
 6869 21f7 4C2C207B 		.ascii	"L, {_NULL, 0, {_NULL}, {{_NULL}, {_NULL}, 0, 0}}, _"
 6869      5F4E554C 
 6869      4C2C2030 
 6869      2C207B5F 
 6869      4E554C4C 
 6870 222a 4E554C4C 		.ascii	"NULL, {_NULL, 0, _NULL} }\000"
 6870      2C207B5F 
 6870      4E554C4C 
 6870      2C20302C 
 6870      205F4E55 
 6871              	.LASF579:
 6872 2244 45455849 		.ascii	"EEXIST 17\000"
 6872      53542031 
 6872      3700
 6873              	.LASF119:
 6874 224e 5F5F4649 		.ascii	"__FINITE_MATH_ONLY__ 0\000"
 6874      4E495445 
 6874      5F4D4154 
 6874      485F4F4E 
 6874      4C595F5F 
 6875              	.LASF680:
 6876 2265 5F545F50 		.ascii	"_T_PTRDIFF_ \000"
 6876      54524449 
 6876      46465F20 
 6876      00
 6877              	.LASF264:
 6878 2272 5F5F4C44 		.ascii	"__LDBL_DENORM_MIN__ 4.9406564584124654e-324L\000"
 6878      424C5F44 
 6878      454E4F52 
 6878      4D5F4D49 
 6878      4E5F5F20 
 6879              	.LASF456:
 6880 229f 5F5F4558 		.ascii	"__EXPORT \000"
 6880      504F5254 
 6880      2000
 6881              	.LASF325:
 6882 22a9 5F5F554C 		.ascii	"__ULLFRACT_IBIT__ 0\000"
 6882      4C465241 
 6882      43545F49 
 6882      4249545F 
 6882      5F203000 
 6883              	.LASF48:
ARM GAS  /tmp/ccuKfveS.s 			page 149


 6884 22bd 61726776 		.ascii	"argv\000"
 6884      00
 6885              	.LASF533:
 6886 22c2 5F524545 		.ascii	"_REENT_CHECK_SIGNAL_BUF(ptr) \000"
 6886      4E545F43 
 6886      4845434B 
 6886      5F534947 
 6886      4E414C5F 
 6887              	.LASF45:
 6888 22e0 7265656E 		.ascii	"reent\000"
 6888      7400
 6889              	.LASF613:
 6890 22e6 454C4F4F 		.ascii	"ELOOP 92\000"
 6890      50203932 
 6890      00
 6891              	.LASF513:
 6892 22ef 5F524545 		.ascii	"_REENT_SMALL_CHECK_INIT(ptr) \000"
 6892      4E545F53 
 6892      4D414C4C 
 6892      5F434845 
 6892      434B5F49 
 6893              	.LASF74:
 6894 230d 5F737461 		.ascii	"_stat_r\000"
 6894      745F7200 
 6895              	.LASF501:
 6896 2315 5F5F6C6F 		.ascii	"__lock_acquire(lock) (_CAST_VOID 0)\000"
 6896      636B5F61 
 6896      63717569 
 6896      7265286C 
 6896      6F636B29 
 6897              	.LASF233:
 6898 2339 5F5F464C 		.ascii	"__FLT_MAX__ 3.4028234663852886e+38F\000"
 6898      545F4D41 
 6898      585F5F20 
 6898      332E3430 
 6898      32383233 
 6899              	.LASF575:
 6900 235d 454E4F4D 		.ascii	"ENOMEM 12\000"
 6900      454D2031 
 6900      3200
 6901              	.LASF344:
 6902 2367 5F5F5541 		.ascii	"__UACCUM_FBIT__ 16\000"
 6902      4343554D 
 6902      5F464249 
 6902      545F5F20 
 6902      313600
 6903              	.LASF308:
 6904 237a 5F5F5546 		.ascii	"__UFRACT_EPSILON__ 0x1P-16UR\000"
 6904      52414354 
 6904      5F455053 
 6904      494C4F4E 
 6904      5F5F2030 
 6905              	.LASF178:
 6906 2397 5F5F5743 		.ascii	"__WCHAR_MIN__ 0U\000"
 6906      4841525F 
 6906      4D494E5F 
 6906      5F203055 
ARM GAS  /tmp/ccuKfveS.s 			page 150


 6906      00
 6907              	.LASF195:
 6908 23a8 5F5F5549 		.ascii	"__UINT32_MAX__ 4294967295UL\000"
 6908      4E543332 
 6908      5F4D4158 
 6908      5F5F2034 
 6908      32393439 
 6909              	.LASF380:
 6910 23c4 5F5F5551 		.ascii	"__UQQ_IBIT__ 0\000"
 6910      515F4942 
 6910      49545F5F 
 6910      203000
 6911              	.LASF592:
 6912 23d3 45524F46 		.ascii	"EROFS 30\000"
 6912      53203330 
 6912      00
 6913              	.LASF356:
 6914 23dc 5F5F554C 		.ascii	"__ULACCUM_MIN__ 0.0ULK\000"
 6914      41434355 
 6914      4D5F4D49 
 6914      4E5F5F20 
 6914      302E3055 
 6915              	.LASF448:
 6916 23f3 5F415445 		.ascii	"_ATEXIT_DYNAMIC_ALLOC 1\000"
 6916      5849545F 
 6916      44594E41 
 6916      4D49435F 
 6916      414C4C4F 
 6917              	.LASF672:
 6918 240b 5F5F6E65 		.ascii	"__need_size_t\000"
 6918      65645F73 
 6918      697A655F 
 6918      7400
 6919              	.LASF261:
 6920 2419 5F5F4C44 		.ascii	"__LDBL_MAX__ 1.7976931348623157e+308L\000"
 6920      424C5F4D 
 6920      41585F5F 
 6920      20312E37 
 6920      39373639 
 6921              	.LASF147:
 6922 243f 5F5F494E 		.ascii	"__INT32_TYPE__ long int\000"
 6922      5433325F 
 6922      54595045 
 6922      5F5F206C 
 6922      6F6E6720 
 6923              	.LASF662:
 6924 2457 5F53495A 		.ascii	"_SIZE_T_ \000"
 6924      455F545F 
 6924      2000
 6925              	.LASF469:
 6926 2461 5F444F54 		.ascii	"_DOTS , ...\000"
 6926      53202C20 
 6926      2E2E2E00 
 6927              	.LASF570:
 6928 246d 45324249 		.ascii	"E2BIG 7\000"
 6928      47203700 
 6929              	.LASF225:
ARM GAS  /tmp/ccuKfveS.s 			page 151


 6930 2475 5F5F464C 		.ascii	"__FLT_RADIX__ 2\000"
 6930      545F5241 
 6930      4449585F 
 6930      5F203200 
 6931              	.LASF5:
 6932 2485 6C6F6E67 		.ascii	"long long int\000"
 6932      206C6F6E 
 6932      6720696E 
 6932      7400
 6933              	.LASF537:
 6934 2493 5F524545 		.ascii	"_REENT_RAND48_MULT(ptr) ((ptr)->_new._reent._r48._m"
 6934      4E545F52 
 6934      414E4434 
 6934      385F4D55 
 6934      4C542870 
 6935 24c6 756C7429 		.ascii	"ult)\000"
 6935      00
 6936              	.LASF708:
 6937 24cb 5F4D4143 		.ascii	"_MACHTYPES_H_ \000"
 6937      48545950 
 6937      45535F48 
 6937      5F2000
 6938              	.LASF623:
 6939 24da 45414444 		.ascii	"EADDRINUSE 112\000"
 6939      52494E55 
 6939      53452031 
 6939      313200
 6940              	.LASF179:
 6941 24e9 5F5F5749 		.ascii	"__WINT_MAX__ 4294967295U\000"
 6941      4E545F4D 
 6941      41585F5F 
 6941      20343239 
 6941      34393637 
 6942              	.LASF679:
 6943 2502 5F505452 		.ascii	"_PTRDIFF_T \000"
 6943      44494646 
 6943      5F542000 
 6944              	.LASF46:
 6945 250e 65786563 		.ascii	"execve\000"
 6945      766500
 6946              	.LASF390:
 6947 2515 5F5F4841 		.ascii	"__HA_IBIT__ 8\000"
 6947      5F494249 
 6947      545F5F20 
 6947      3800
 6948              	.LASF505:
 6949 2523 5F5F6C6F 		.ascii	"__lock_release(lock) (_CAST_VOID 0)\000"
 6949      636B5F72 
 6949      656C6561 
 6949      7365286C 
 6949      6F636B29 
 6950              	.LASF636:
 6951 2547 454E4554 		.ascii	"ENETRESET 126\000"
 6951      52455345 
 6951      54203132 
 6951      3600
 6952              	.LASF603:
ARM GAS  /tmp/ccuKfveS.s 			page 152


 6953 2555 4554494D 		.ascii	"ETIME 62\000"
 6953      45203632 
 6953      00
 6954              	.LASF733:
 6955 255e 5F5F6E65 		.ascii	"__need_inttypes\000"
 6955      65645F69 
 6955      6E747479 
 6955      70657300 
 6956              	.LASF738:
 6957 256e 434C4F43 		.ascii	"CLOCK_DISALLOWED 0\000"
 6957      4B5F4449 
 6957      53414C4C 
 6957      4F574544 
 6957      203000
 6958              	.LASF693:
 6959 2581 5F5F5743 		.ascii	"__WCHAR_T \000"
 6959      4841525F 
 6959      542000
 6960              	.LASF96:
 6961 258c 5F5F5359 		.ascii	"__SYS_CONFIG_H__ \000"
 6961      535F434F 
 6961      4E464947 
 6961      5F485F5F 
 6961      2000
 6962              	.LASF490:
 6963 259e 5F5F5F69 		.ascii	"___int32_t_defined 1\000"
 6963      6E743332 
 6963      5F745F64 
 6963      6566696E 
 6963      65642031 
 6964              	.LASF618:
 6965 25b3 4541464E 		.ascii	"EAFNOSUPPORT 106\000"
 6965      4F535550 
 6965      504F5254 
 6965      20313036 
 6965      00
 6966              	.LASF148:
 6967 25c4 5F5F494E 		.ascii	"__INT64_TYPE__ long long int\000"
 6967      5436345F 
 6967      54595045 
 6967      5F5F206C 
 6967      6F6E6720 
 6968              	.LASF309:
 6969 25e1 5F5F4C46 		.ascii	"__LFRACT_FBIT__ 31\000"
 6969      52414354 
 6969      5F464249 
 6969      545F5F20 
 6969      333100
 6970              	.LASF128:
 6971 25f4 5F5F4348 		.ascii	"__CHAR_BIT__ 8\000"
 6971      41525F42 
 6971      49545F5F 
 6971      203800
 6972              	.LASF423:
 6973 2603 5F5F5349 		.ascii	"__SIZEOF_WCHAR_T__ 4\000"
 6973      5A454F46 
 6973      5F574348 
ARM GAS  /tmp/ccuKfveS.s 			page 153


 6973      41525F54 
 6973      5F5F2034 
 6974              	.LASF646:
 6975 2618 454E4F54 		.ascii	"ENOTRECOVERABLE 141\000"
 6975      5245434F 
 6975      56455241 
 6975      424C4520 
 6975      31343100 
 6976              	.LASF552:
 6977 262c 5F524545 		.ascii	"_REENT_MBSRTOWCS_STATE(ptr) ((ptr)->_new._reent._mb"
 6977      4E545F4D 
 6977      42535254 
 6977      4F574353 
 6977      5F535441 
 6978 265f 7372746F 		.ascii	"srtowcs_state)\000"
 6978      7763735F 
 6978      73746174 
 6978      652900
 6979              	.LASF515:
 6980 266e 5F52414E 		.ascii	"_RAND48_SEED_1 (0xabcd)\000"
 6980      4434385F 
 6980      53454544 
 6980      5F312028 
 6980      30786162 
 6981              	.LASF643:
 6982 2686 45494C53 		.ascii	"EILSEQ 138\000"
 6982      45512031 
 6982      333800
 6983              	.LASF307:
 6984 2691 5F5F5546 		.ascii	"__UFRACT_MAX__ 0XFFFFP-16UR\000"
 6984      52414354 
 6984      5F4D4158 
 6984      5F5F2030 
 6984      58464646 
 6985              	.LASF761:
 6986 26ad 535F4946 		.ascii	"S_IFREG _IFREG\000"
 6986      52454720 
 6986      5F494652 
 6986      454700
 6987              	.LASF757:
 6988 26bc 535F4946 		.ascii	"S_IFMT _IFMT\000"
 6988      4D54205F 
 6988      49464D54 
 6988      00
 6989              	.LASF383:
 6990 26c9 5F5F5553 		.ascii	"__USQ_FBIT__ 32\000"
 6990      515F4642 
 6990      49545F5F 
 6990      20333200 
 6991              	.LASF555:
 6992 26d9 5F524545 		.ascii	"_REENT_L64A_BUF(ptr) ((ptr)->_new._reent._l64a_buf)"
 6992      4E545F4C 
 6992      3634415F 
 6992      42554628 
 6992      70747229 
 6993 270c 00       		.ascii	"\000"
 6994              	.LASF608:
ARM GAS  /tmp/ccuKfveS.s 			page 154


 6995 270d 45424144 		.ascii	"EBADMSG 77\000"
 6995      4D534720 
 6995      373700
 6996              	.LASF713:
 6997 2718 5F53545F 		.ascii	"_ST_INT32 __attribute__ ((__mode__ (__SI__)))\000"
 6997      494E5433 
 6997      32205F5F 
 6997      61747472 
 6997      69627574 
 6998              	.LASF731:
 6999 2746 5F5F636C 		.ascii	"__clockid_t_defined \000"
 6999      6F636B69 
 6999      645F745F 
 6999      64656669 
 6999      6E656420 
 7000              	.LASF133:
 7001 275b 5F5F4259 		.ascii	"__BYTE_ORDER__ __ORDER_LITTLE_ENDIAN__\000"
 7001      54455F4F 
 7001      52444552 
 7001      5F5F205F 
 7001      5F4F5244 
 7002              	.LASF784:
 7003 2782 535F4953 		.ascii	"S_ISREG(m) (((m)&_IFMT) == _IFREG)\000"
 7003      52454728 
 7003      6D292028 
 7003      28286D29 
 7003      265F4946 
 7004              	.LASF323:
 7005 27a5 5F5F4C4C 		.ascii	"__LLFRACT_EPSILON__ 0x1P-63LLR\000"
 7005      46524143 
 7005      545F4550 
 7005      53494C4F 
 7005      4E5F5F20 
 7006              	.LASF462:
 7007 27c4 5F4E4F54 		.ascii	"_NOTHROW \000"
 7007      48524F57 
 7007      2000
 7008              	.LASF530:
 7009 27ce 5F524545 		.ascii	"_REENT_CHECK_ASCTIME_BUF(ptr) \000"
 7009      4E545F43 
 7009      4845434B 
 7009      5F415343 
 7009      54494D45 
 7010              	.LASF95:
 7011 27ed 5F414E53 		.ascii	"_ANSIDECL_H_ \000"
 7011      49444543 
 7011      4C5F485F 
 7011      2000
 7012              	.LASF576:
 7013 27fb 45414343 		.ascii	"EACCES 13\000"
 7013      45532031 
 7013      3300
 7014              	.LASF215:
 7015 2805 5F5F494E 		.ascii	"__INT_FAST32_MAX__ 2147483647\000"
 7015      545F4641 
 7015      53543332 
 7015      5F4D4158 
ARM GAS  /tmp/ccuKfveS.s 			page 155


 7015      5F5F2032 
 7016              	.LASF304:
 7017 2823 5F5F5546 		.ascii	"__UFRACT_FBIT__ 16\000"
 7017      52414354 
 7017      5F464249 
 7017      545F5F20 
 7017      313600
 7018              	.LASF385:
 7019 2836 5F5F5544 		.ascii	"__UDQ_FBIT__ 64\000"
 7019      515F4642 
 7019      49545F5F 
 7019      20363400 
 7020              	.LASF259:
 7021 2846 5F5F4C44 		.ascii	"__LDBL_MAX_10_EXP__ 308\000"
 7021      424C5F4D 
 7021      41585F31 
 7021      305F4558 
 7021      505F5F20 
 7022              	.LASF66:
 7023 285e 72656164 		.ascii	"read\000"
 7023      00
 7024              	.LASF250:
 7025 2863 5F5F4442 		.ascii	"__DBL_DENORM_MIN__ ((double)4.9406564584124654e-324"
 7025      4C5F4445 
 7025      4E4F524D 
 7025      5F4D494E 
 7025      5F5F2028 
 7026 2896 4C2900   		.ascii	"L)\000"
 7027              	.LASF163:
 7028 2899 5F5F494E 		.ascii	"__INT_FAST32_TYPE__ int\000"
 7028      545F4641 
 7028      53543332 
 7028      5F545950 
 7028      455F5F20 
 7029              	.LASF4:
 7030 28b1 756E7369 		.ascii	"unsigned int\000"
 7030      676E6564 
 7030      20696E74 
 7030      00
 7031              	.LASF664:
 7032 28be 5F53495A 		.ascii	"_SIZE_T_DEFINED_ \000"
 7032      455F545F 
 7032      44454649 
 7032      4E45445F 
 7032      2000
 7033              	.LASF602:
 7034 28d0 454E4F44 		.ascii	"ENODATA 61\000"
 7034      41544120 
 7034      363100
 7035              	.LASF85:
 7036 28db 5F777269 		.ascii	"_write_r\000"
 7036      74655F72 
 7036      00
 7037              	.LASF228:
 7038 28e4 5F5F464C 		.ascii	"__FLT_MIN_EXP__ (-125)\000"
 7038      545F4D49 
 7038      4E5F4558 
ARM GAS  /tmp/ccuKfveS.s 			page 156


 7038      505F5F20 
 7038      282D3132 
 7039              	.LASF224:
 7040 28fb 5F5F4445 		.ascii	"__DEC_EVAL_METHOD__ 2\000"
 7040      435F4556 
 7040      414C5F4D 
 7040      4554484F 
 7040      445F5F20 
 7041              	.LASF762:
 7042 2911 535F4946 		.ascii	"S_IFLNK _IFLNK\000"
 7042      4C4E4B20 
 7042      5F49464C 
 7042      4E4B00
 7043              	.LASF335:
 7044 2920 5F5F5553 		.ascii	"__USACCUM_IBIT__ 8\000"
 7044      41434355 
 7044      4D5F4942 
 7044      49545F5F 
 7044      203800
 7045              	.LASF17:
 7046 2933 63616464 		.ascii	"caddr_t\000"
 7046      725F7400 
 7047              	.LASF222:
 7048 293b 5F5F5549 		.ascii	"__UINTPTR_MAX__ 4294967295U\000"
 7048      4E545054 
 7048      525F4D41 
 7048      585F5F20 
 7048      34323934 
 7049              	.LASF227:
 7050 2957 5F5F464C 		.ascii	"__FLT_DIG__ 6\000"
 7050      545F4449 
 7050      475F5F20 
 7050      3600
 7051              	.LASF348:
 7052 2965 5F5F5541 		.ascii	"__UACCUM_EPSILON__ 0x1P-16UK\000"
 7052      4343554D 
 7052      5F455053 
 7052      494C4F4E 
 7052      5F5F2030 
 7053              	.LASF702:
 7054 2982 5F574348 		.ascii	"_WCHAR_T_DECLARED \000"
 7054      41525F54 
 7054      5F444543 
 7054      4C415245 
 7054      442000
 7055              	.LASF722:
 7056 2995 4E464442 		.ascii	"NFDBITS (sizeof (fd_mask) * NBBY)\000"
 7056      49545320 
 7056      2873697A 
 7056      656F6620 
 7056      2866645F 
 7057              	.LASF69:
 7058 29b7 696E6372 		.ascii	"incr\000"
 7058      00
 7059              	.LASF94:
 7060 29bc 5F535953 		.ascii	"_SYS_REENT_H_ \000"
 7060      5F524545 
ARM GAS  /tmp/ccuKfveS.s 			page 157


 7060      4E545F48 
 7060      5F2000
 7061              	.LASF223:
 7062 29cb 5F5F464C 		.ascii	"__FLT_EVAL_METHOD__ 0\000"
 7062      545F4556 
 7062      414C5F4D 
 7062      4554484F 
 7062      445F5F20 
 7063              	.LASF785:
 7064 29e1 535F4953 		.ascii	"S_ISLNK(m) (((m)&_IFMT) == _IFLNK)\000"
 7064      4C4E4B28 
 7064      6D292028 
 7064      28286D29 
 7064      265F4946 
 7065              	.LASF112:
 7066 2a04 5F5F5645 		.ascii	"__VERSION__ \"4.7.4 20130613 (release) [ARM/embedde"
 7066      5253494F 
 7066      4E5F5F20 
 7066      22342E37 
 7066      2E342032 
 7067 2a36 642D345F 		.ascii	"d-4_7-branch revision 200083]\"\000"
 7067      372D6272 
 7067      616E6368 
 7067      20726576 
 7067      6973696F 
 7068              	.LASF106:
 7069 2a55 5F5F5354 		.ascii	"__STDC_UTF_16__ 1\000"
 7069      44435F55 
 7069      54465F31 
 7069      365F5F20 
 7069      3100
 7070              	.LASF519:
 7071 2a67 5F52414E 		.ascii	"_RAND48_MULT_2 (0x0005)\000"
 7071      4434385F 
 7071      4D554C54 
 7071      5F322028 
 7071      30783030 
 7072              	.LASF471:
 7073 2a7f 5F455846 		.ascii	"_EXFUN_NOTHROW(name,proto) name proto _NOTHROW\000"
 7073      554E5F4E 
 7073      4F544852 
 7073      4F57286E 
 7073      616D652C 
 7074              	.LASF605:
 7075 2aae 454E4F4C 		.ascii	"ENOLINK 67\000"
 7075      494E4B20 
 7075      363700
 7076              	.LASF681:
 7077 2ab9 5F545F50 		.ascii	"_T_PTRDIFF \000"
 7077      54524449 
 7077      46462000 
 7078              	.LASF379:
 7079 2ac5 5F5F5551 		.ascii	"__UQQ_FBIT__ 8\000"
 7079      515F4642 
 7079      49545F5F 
 7079      203800
 7080              	.LASF720:
ARM GAS  /tmp/ccuKfveS.s 			page 158


 7081 2ad4 4E424259 		.ascii	"NBBY 8\000"
 7081      203800
 7082              	.LASF276:
 7083 2adb 5F5F4445 		.ascii	"__DEC64_MIN_EXP__ (-382)\000"
 7083      4336345F 
 7083      4D494E5F 
 7083      4558505F 
 7083      5F20282D 
 7084              	.LASF638:
 7085 2af4 454E4F54 		.ascii	"ENOTCONN 128\000"
 7085      434F4E4E 
 7085      20313238 
 7085      00
 7086              	.LASF710:
 7087 2b01 5F54494D 		.ascii	"_TIME_T_ long\000"
 7087      455F545F 
 7087      206C6F6E 
 7087      6700
 7088              	.LASF312:
 7089 2b0f 5F5F4C46 		.ascii	"__LFRACT_MAX__ 0X7FFFFFFFP-31LR\000"
 7089      52414354 
 7089      5F4D4158 
 7089      5F5F2030 
 7089      58374646 
 7090              	.LASF425:
 7091 2b2f 5F5F5349 		.ascii	"__SIZEOF_PTRDIFF_T__ 4\000"
 7091      5A454F46 
 7091      5F505452 
 7091      44494646 
 7091      5F545F5F 
 7092              	.LASF689:
 7093 2b46 5F5F5743 		.ascii	"__WCHAR_T__ \000"
 7093      4841525F 
 7093      545F5F20 
 7093      00
 7094              	.LASF769:
 7095 2b53 535F4952 		.ascii	"S_IRWXG (S_IRGRP | S_IWGRP | S_IXGRP)\000"
 7095      57584720 
 7095      28535F49 
 7095      52475250 
 7095      207C2053 
 7096              	.LASF134:
 7097 2b79 5F5F464C 		.ascii	"__FLOAT_WORD_ORDER__ __ORDER_LITTLE_ENDIAN__\000"
 7097      4F41545F 
 7097      574F5244 
 7097      5F4F5244 
 7097      45525F5F 
 7098              	.LASF701:
 7099 2ba6 5F474343 		.ascii	"_GCC_WCHAR_T \000"
 7099      5F574348 
 7099      41525F54 
 7099      2000
 7100              	.LASF144:
 7101 2bb4 5F5F5349 		.ascii	"__SIG_ATOMIC_TYPE__ int\000"
 7101      475F4154 
 7101      4F4D4943 
 7101      5F545950 
ARM GAS  /tmp/ccuKfveS.s 			page 159


 7101      455F5F20 
 7102              	.LASF736:
 7103 2bcc 434C4F43 		.ascii	"CLOCK_DISABLED 0\000"
 7103      4B5F4449 
 7103      5341424C 
 7103      45442030 
 7103      00
 7104              	.LASF773:
 7105 2bdd 535F4952 		.ascii	"S_IRWXO (S_IROTH | S_IWOTH | S_IXOTH)\000"
 7105      57584F20 
 7105      28535F49 
 7105      524F5448 
 7105      207C2053 
 7106              	.LASF132:
 7107 2c03 5F5F4F52 		.ascii	"__ORDER_PDP_ENDIAN__ 3412\000"
 7107      4445525F 
 7107      5044505F 
 7107      454E4449 
 7107      414E5F5F 
 7108              	.LASF282:
 7109 2c1d 5F5F4445 		.ascii	"__DEC128_MANT_DIG__ 34\000"
 7109      43313238 
 7109      5F4D414E 
 7109      545F4449 
 7109      475F5F20 
 7110              	.LASF187:
 7111 2c34 5F5F5349 		.ascii	"__SIG_ATOMIC_MAX__ 2147483647\000"
 7111      475F4154 
 7111      4F4D4943 
 7111      5F4D4158 
 7111      5F5F2032 
 7112              	.LASF457:
 7113 2c52 5F5F494D 		.ascii	"__IMPORT \000"
 7113      504F5254 
 7113      2000
 7114              	.LASF512:
 7115 2c5c 5F415445 		.ascii	"_ATEXIT_SIZE 32\000"
 7115      5849545F 
 7115      53495A45 
 7115      20333200 
 7116              	.LASF399:
 7117 2c6c 5F5F5553 		.ascii	"__USA_FBIT__ 16\000"
 7117      415F4642 
 7117      49545F5F 
 7117      20313600 
 7118              	.LASF99:
 7119 2c7c 5F4D4143 		.ascii	"_MACHINE__TYPES_H \000"
 7119      48494E45 
 7119      5F5F5459 
 7119      5045535F 
 7119      482000
 7120              	.LASF497:
 7121 2c8f 5F5F6C6F 		.ascii	"__lock_init(lock) (_CAST_VOID 0)\000"
 7121      636B5F69 
 7121      6E697428 
 7121      6C6F636B 
 7121      2920285F 
ARM GAS  /tmp/ccuKfveS.s 			page 160


 7122              	.LASF97:
 7123 2cb0 5F5F4945 		.ascii	"__IEEE_LITTLE_ENDIAN \000"
 7123      45455F4C 
 7123      4954544C 
 7123      455F454E 
 7123      4449414E 
 7124              	.LASF239:
 7125 2cc6 5F5F464C 		.ascii	"__FLT_HAS_QUIET_NAN__ 1\000"
 7125      545F4841 
 7125      535F5155 
 7125      4945545F 
 7125      4E414E5F 
 7126              	.LASF411:
 7127 2cde 5F5F4743 		.ascii	"__GCC_ATOMIC_CHAR_LOCK_FREE 1\000"
 7127      435F4154 
 7127      4F4D4943 
 7127      5F434841 
 7127      525F4C4F 
 7128              	.LASF473:
 7129 2cfc 5F455850 		.ascii	"_EXPARM(name,proto) (* name) proto\000"
 7129      41524D28 
 7129      6E616D65 
 7129      2C70726F 
 7129      746F2920 
 7130              	.LASF92:
 7131 2d1f 2F686F6D 		.ascii	"/home/wrcooke/git/projects/arm_gcc/fortharm\000"
 7131      652F7772 
 7131      636F6F6B 
 7131      652F6769 
 7131      742F7072 
 7132              	.LASF214:
 7133 2d4b 5F5F494E 		.ascii	"__INT_FAST16_MAX__ 2147483647\000"
 7133      545F4641 
 7133      53543136 
 7133      5F4D4158 
 7133      5F5F2032 
 7134              	.LASF313:
 7135 2d69 5F5F4C46 		.ascii	"__LFRACT_EPSILON__ 0x1P-31LR\000"
 7135      52414354 
 7135      5F455053 
 7135      494C4F4E 
 7135      5F5F2030 
 7136              	.LASF460:
 7137 2d86 5F424547 		.ascii	"_BEGIN_STD_C \000"
 7137      494E5F53 
 7137      54445F43 
 7137      2000
 7138              	.LASF79:
 7139 2d94 5F756E6C 		.ascii	"_unlink_r\000"
 7139      696E6B5F 
 7139      7200
 7140              	.LASF197:
 7141 2d9e 5F5F494E 		.ascii	"__INT_LEAST8_MAX__ 127\000"
 7141      545F4C45 
 7141      41535438 
 7141      5F4D4158 
 7141      5F5F2031 
ARM GAS  /tmp/ccuKfveS.s 			page 161


 7142              	.LASF763:
 7143 2db5 535F4946 		.ascii	"S_IFSOCK _IFSOCK\000"
 7143      534F434B 
 7143      205F4946 
 7143      534F434B 
 7143      00
 7144              	.LASF426:
 7145 2dc6 5F5F6172 		.ascii	"__arm__ 1\000"
 7145      6D5F5F20 
 7145      3100
 7146              	.LASF732:
 7147 2dd0 5F5F7469 		.ascii	"__timer_t_defined \000"
 7147      6D65725F 
 7147      745F6465 
 7147      66696E65 
 7147      642000
 7148              	.LASF455:
 7149 2de3 5F5F5241 		.ascii	"__RAND_MAX 0x7fffffff\000"
 7149      4E445F4D 
 7149      41582030 
 7149      78376666 
 7149      66666666 
 7150              	.LASF28:
 7151 2df9 73745F6E 		.ascii	"st_nlink\000"
 7151      6C696E6B 
 7151      00
 7152              	.LASF19:
 7153 2e02 6F66665F 		.ascii	"off_t\000"
 7153      7400
 7154              	.LASF23:
 7155 2e08 6D6F6465 		.ascii	"mode_t\000"
 7155      5F7400
 7156              	.LASF268:
 7157 2e0f 5F5F4445 		.ascii	"__DEC32_MANT_DIG__ 7\000"
 7157      4333325F 
 7157      4D414E54 
 7157      5F444947 
 7157      5F5F2037 
 7158              	.LASF393:
 7159 2e24 5F5F4441 		.ascii	"__DA_FBIT__ 31\000"
 7159      5F464249 
 7159      545F5F20 
 7159      333100
 7160              	.LASF786:
 7161 2e33 535F4953 		.ascii	"S_ISSOCK(m) (((m)&_IFMT) == _IFSOCK)\000"
 7161      534F434B 
 7161      286D2920 
 7161      2828286D 
 7161      29265F49 
 7162              	.LASF485:
 7163 2e58 5F4D4143 		.ascii	"_MACHINE__DEFAULT_TYPES_H \000"
 7163      48494E45 
 7163      5F5F4445 
 7163      4641554C 
 7163      545F5459 
 7164              	.LASF129:
 7165 2e73 5F5F4249 		.ascii	"__BIGGEST_ALIGNMENT__ 8\000"
ARM GAS  /tmp/ccuKfveS.s 			page 162


 7165      47474553 
 7165      545F414C 
 7165      49474E4D 
 7165      454E545F 
 7166              	.LASF336:
 7167 2e8b 5F5F5553 		.ascii	"__USACCUM_MIN__ 0.0UHK\000"
 7167      41434355 
 7167      4D5F4D49 
 7167      4E5F5F20 
 7167      302E3055 
 7168              	.LASF686:
 7169 2ea2 5F474343 		.ascii	"_GCC_PTRDIFF_T \000"
 7169      5F505452 
 7169      44494646 
 7169      5F542000 
 7170              	.LASF396:
 7171 2eb2 5F5F5441 		.ascii	"__TA_IBIT__ 64\000"
 7171      5F494249 
 7171      545F5F20 
 7171      363400
 7172              	.LASF642:
 7173 2ec1 454E4F54 		.ascii	"ENOTSUP 134\000"
 7173      53555020 
 7173      31333400 
 7174              	.LASF218:
 7175 2ecd 5F5F5549 		.ascii	"__UINT_FAST16_MAX__ 4294967295U\000"
 7175      4E545F46 
 7175      41535431 
 7175      365F4D41 
 7175      585F5F20 
 7176              	.LASF739:
 7177 2eed 434C4F43 		.ascii	"CLOCK_REALTIME (clockid_t)1\000"
 7177      4B5F5245 
 7177      414C5449 
 7177      4D452028 
 7177      636C6F63 
 7178              	.LASF657:
 7179 2f09 5F53495A 		.ascii	"_SIZE_T \000"
 7179      455F5420 
 7179      00
 7180              	.LASF698:
 7181 2f12 5F574348 		.ascii	"_WCHAR_T_H \000"
 7181      41525F54 
 7181      5F482000 
 7182              	.LASF718:
 7183 2f1e 5F5F7469 		.ascii	"__time_t_defined \000"
 7183      6D655F74 
 7183      5F646566 
 7183      696E6564 
 7183      2000
 7184              	.LASF211:
 7185 2f30 5F5F5549 		.ascii	"__UINT_LEAST64_MAX__ 18446744073709551615ULL\000"
 7185      4E545F4C 
 7185      45415354 
 7185      36345F4D 
 7185      41585F5F 
 7186              	.LASF33:
ARM GAS  /tmp/ccuKfveS.s 			page 163


 7187 2f5d 73745F61 		.ascii	"st_atime\000"
 7187      74696D65 
 7187      00
 7188              	.LASF584:
 7189 2f66 45494E56 		.ascii	"EINVAL 22\000"
 7189      414C2032 
 7189      3200
 7190              	.LASF213:
 7191 2f70 5F5F494E 		.ascii	"__INT_FAST8_MAX__ 2147483647\000"
 7191      545F4641 
 7191      5354385F 
 7191      4D41585F 
 7191      5F203231 
 7192              	.LASF384:
 7193 2f8d 5F5F5553 		.ascii	"__USQ_IBIT__ 0\000"
 7193      515F4942 
 7193      49545F5F 
 7193      203000
 7194              	.LASF305:
 7195 2f9c 5F5F5546 		.ascii	"__UFRACT_IBIT__ 0\000"
 7195      52414354 
 7195      5F494249 
 7195      545F5F20 
 7195      3000
 7196              	.LASF712:
 7197 2fae 5F54494D 		.ascii	"_TIMER_T_ unsigned long\000"
 7197      45525F54 
 7197      5F20756E 
 7197      7369676E 
 7197      6564206C 
 7198              	.LASF198:
 7199 2fc6 5F5F494E 		.ascii	"__INT8_C(c) c\000"
 7199      54385F43 
 7199      28632920 
 7199      6300
 7200              	.LASF310:
 7201 2fd4 5F5F4C46 		.ascii	"__LFRACT_IBIT__ 0\000"
 7201      52414354 
 7201      5F494249 
 7201      545F5F20 
 7201      3000
 7202              	.LASF676:
 7203 2fe6 5F535444 		.ascii	"_STDDEF_H_ \000"
 7203      4445465F 
 7203      485F2000 
 7204              	.LASF420:
 7205 2ff2 5F5F4743 		.ascii	"__GCC_ATOMIC_POINTER_LOCK_FREE 1\000"
 7205      435F4154 
 7205      4F4D4943 
 7205      5F504F49 
 7205      4E544552 
 7206              	.LASF242:
 7207 3013 5F5F4442 		.ascii	"__DBL_MIN_EXP__ (-1021)\000"
 7207      4C5F4D49 
 7207      4E5F4558 
 7207      505F5F20 
 7207      282D3130 
ARM GAS  /tmp/ccuKfveS.s 			page 164


 7208              	.LASF661:
 7209 302b 5F5F5349 		.ascii	"__SIZE_T \000"
 7209      5A455F54 
 7209      2000
 7210              	.LASF265:
 7211 3035 5F5F4C44 		.ascii	"__LDBL_HAS_DENORM__ 1\000"
 7211      424C5F48 
 7211      41535F44 
 7211      454E4F52 
 7211      4D5F5F20 
 7212              	.LASF413:
 7213 304b 5F5F4743 		.ascii	"__GCC_ATOMIC_CHAR32_T_LOCK_FREE 1\000"
 7213      435F4154 
 7213      4F4D4943 
 7213      5F434841 
 7213      5233325F 
 7214              	.LASF191:
 7215 306d 5F5F494E 		.ascii	"__INT32_MAX__ 2147483647L\000"
 7215      5433325F 
 7215      4D41585F 
 7215      5F203231 
 7215      34373438 
 7216              	.LASF596:
 7217 3087 4552414E 		.ascii	"ERANGE 34\000"
 7217      47452033 
 7217      3400
 7218              	.LASF578:
 7219 3091 45425553 		.ascii	"EBUSY 16\000"
 7219      59203136 
 7219      00
 7220              	.LASF504:
 7221 309a 5F5F6C6F 		.ascii	"__lock_try_acquire_recursive(lock) (_CAST_VOID 0)\000"
 7221      636B5F74 
 7221      72795F61 
 7221      63717569 
 7221      72655F72 
 7222              	.LASF278:
 7223 30cc 5F5F4445 		.ascii	"__DEC64_MIN__ 1E-383DD\000"
 7223      4336345F 
 7223      4D494E5F 
 7223      5F203145 
 7223      2D333833 
 7224              	.LASF493:
 7225 30e3 5F5F4558 		.ascii	"__EXP\000"
 7225      5000
 7226              	.LASF492:
 7227 30e9 5F5F5F69 		.ascii	"___int64_t_defined 1\000"
 7227      6E743634 
 7227      5F745F64 
 7227      6566696E 
 7227      65642031 
 7228              	.LASF632:
 7229 30fe 45444553 		.ascii	"EDESTADDRREQ 121\000"
 7229      54414444 
 7229      52524551 
 7229      20313231 
 7229      00
ARM GAS  /tmp/ccuKfveS.s 			page 165


 7230              	.LASF341:
 7231 310f 5F5F4143 		.ascii	"__ACCUM_MIN__ (-0X1P15K-0X1P15K)\000"
 7231      43554D5F 
 7231      4D494E5F 
 7231      5F20282D 
 7231      30583150 
 7232              	.LASF532:
 7233 3130 5F524545 		.ascii	"_REENT_CHECK_MISC(ptr) \000"
 7233      4E545F43 
 7233      4845434B 
 7233      5F4D4953 
 7233      43287074 
 7234              	.LASF464:
 7235 3148 5F414E44 		.ascii	"_AND ,\000"
 7235      202C00
 7236              	.LASF155:
 7237 314f 5F5F494E 		.ascii	"__INT_LEAST32_TYPE__ long int\000"
 7237      545F4C45 
 7237      41535433 
 7237      325F5459 
 7237      50455F5F 
 7238              	.LASF717:
 7239 316d 5F5F636C 		.ascii	"__clock_t_defined \000"
 7239      6F636B5F 
 7239      745F6465 
 7239      66696E65 
 7239      642000
 7240              	.LASF300:
 7241 3180 5F5F4652 		.ascii	"__FRACT_IBIT__ 0\000"
 7241      4143545F 
 7241      49424954 
 7241      5F5F2030 
 7241      00
 7242              	.LASF84:
 7243 3191 746F646F 		.ascii	"todo\000"
 7243      00
 7244              	.LASF130:
 7245 3196 5F5F4F52 		.ascii	"__ORDER_LITTLE_ENDIAN__ 1234\000"
 7245      4445525F 
 7245      4C495454 
 7245      4C455F45 
 7245      4E444941 
 7246              	.LASF640:
 7247 31b3 45445155 		.ascii	"EDQUOT 132\000"
 7247      4F542031 
 7247      333200
 7248              	.LASF275:
 7249 31be 5F5F4445 		.ascii	"__DEC64_MANT_DIG__ 16\000"
 7249      4336345F 
 7249      4D414E54 
 7249      5F444947 
 7249      5F5F2031 
 7250              	.LASF6:
 7251 31d4 6C6F6E67 		.ascii	"long long unsigned int\000"
 7251      206C6F6E 
 7251      6720756E 
 7251      7369676E 
ARM GAS  /tmp/ccuKfveS.s 			page 166


 7251      65642069 
 7252              	.LASF229:
 7253 31eb 5F5F464C 		.ascii	"__FLT_MIN_10_EXP__ (-37)\000"
 7253      545F4D49 
 7253      4E5F3130 
 7253      5F455850 
 7253      5F5F2028 
 7254              	.LASF355:
 7255 3204 5F5F554C 		.ascii	"__ULACCUM_IBIT__ 32\000"
 7255      41434355 
 7255      4D5F4942 
 7255      49545F5F 
 7255      20333200 
 7256              	.LASF137:
 7257 3218 5F5F5054 		.ascii	"__PTRDIFF_TYPE__ int\000"
 7257      52444946 
 7257      465F5459 
 7257      50455F5F 
 7257      20696E74 
 7258              	.LASF665:
 7259 322d 5F53495A 		.ascii	"_SIZE_T_DEFINED \000"
 7259      455F545F 
 7259      44454649 
 7259      4E454420 
 7259      00
 7260              	.LASF375:
 7261 323e 5F5F4451 		.ascii	"__DQ_FBIT__ 63\000"
 7261      5F464249 
 7261      545F5F20 
 7261      363300
 7262              	.LASF682:
 7263 324d 5F5F5054 		.ascii	"__PTRDIFF_T \000"
 7263      52444946 
 7263      465F5420 
 7263      00
 7264              	.LASF382:
 7265 325a 5F5F5548 		.ascii	"__UHQ_IBIT__ 0\000"
 7265      515F4942 
 7265      49545F5F 
 7265      203000
 7266              	.LASF549:
 7267 3269 5F524545 		.ascii	"_REENT_WCTOMB_STATE(ptr) ((ptr)->_new._reent._wctom"
 7267      4E545F57 
 7267      43544F4D 
 7267      425F5354 
 7267      41544528 
 7268 329c 625F7374 		.ascii	"b_state)\000"
 7268      61746529 
 7268      00
 7269              	.LASF162:
 7270 32a5 5F5F494E 		.ascii	"__INT_FAST16_TYPE__ int\000"
 7270      545F4641 
 7270      53543136 
 7270      5F545950 
 7270      455F5F20 
 7271              	.LASF495:
 7272 32bd 5F5F4C4F 		.ascii	"__LOCK_INIT(class,lock) static int lock = 0;\000"
ARM GAS  /tmp/ccuKfveS.s 			page 167


 7272      434B5F49 
 7272      4E495428 
 7272      636C6173 
 7272      732C6C6F 
 7273              	.LASF331:
 7274 32ea 5F5F5341 		.ascii	"__SACCUM_MIN__ (-0X1P7HK-0X1P7HK)\000"
 7274      4343554D 
 7274      5F4D494E 
 7274      5F5F2028 
 7274      2D305831 
 7275              	.LASF317:
 7276 330c 5F5F554C 		.ascii	"__ULFRACT_MAX__ 0XFFFFFFFFP-32ULR\000"
 7276      46524143 
 7276      545F4D41 
 7276      585F5F20 
 7276      30584646 
 7277              	.LASF158:
 7278 332e 5F5F5549 		.ascii	"__UINT_LEAST16_TYPE__ short unsigned int\000"
 7278      4E545F4C 
 7278      45415354 
 7278      31365F54 
 7278      5950455F 
 7279              	.LASF775:
 7280 3357 535F4957 		.ascii	"S_IWOTH 0000002\000"
 7280      4F544820 
 7280      30303030 
 7280      30303200 
 7281              	.LASF352:
 7282 3367 5F5F4C41 		.ascii	"__LACCUM_MAX__ 0X7FFFFFFFFFFFFFFFP-31LK\000"
 7282      4343554D 
 7282      5F4D4158 
 7282      5F5F2030 
 7282      58374646 
 7283              	.LASF142:
 7284 338f 5F5F4348 		.ascii	"__CHAR16_TYPE__ short unsigned int\000"
 7284      41523136 
 7284      5F545950 
 7284      455F5F20 
 7284      73686F72 
 7285              	.LASF550:
 7286 33b2 5F524545 		.ascii	"_REENT_MBRLEN_STATE(ptr) ((ptr)->_new._reent._mbrle"
 7286      4E545F4D 
 7286      42524C45 
 7286      4E5F5354 
 7286      41544528 
 7287 33e5 6E5F7374 		.ascii	"n_state)\000"
 7287      61746529 
 7287      00
 7288              	.LASF207:
 7289 33ee 5F5F5549 		.ascii	"__UINT_LEAST16_MAX__ 65535\000"
 7289      4E545F4C 
 7289      45415354 
 7289      31365F4D 
 7289      41585F5F 
 7290              	.LASF387:
 7291 3409 5F5F5554 		.ascii	"__UTQ_FBIT__ 128\000"
 7291      515F4642 
ARM GAS  /tmp/ccuKfveS.s 			page 168


 7291      49545F5F 
 7291      20313238 
 7291      00
 7292              	.LASF543:
 7293 341a 5F524545 		.ascii	"_REENT_ASCTIME_BUF(ptr) ((ptr)->_new._reent._asctim"
 7293      4E545F41 
 7293      53435449 
 7293      4D455F42 
 7293      55462870 
 7294 344d 655F6275 		.ascii	"e_buf)\000"
 7294      662900
 7295              	.LASF363:
 7296 3454 5F5F4C4C 		.ascii	"__LLACCUM_EPSILON__ 0x1P-31LLK\000"
 7296      41434355 
 7296      4D5F4550 
 7296      53494C4F 
 7296      4E5F5F20 
 7297              	.LASF365:
 7298 3473 5F5F554C 		.ascii	"__ULLACCUM_IBIT__ 32\000"
 7298      4C414343 
 7298      554D5F49 
 7298      4249545F 
 7298      5F203332 
 7299              	.LASF541:
 7300 3488 5F524545 		.ascii	"_REENT_MP_P5S(ptr) ((ptr)->_p5s)\000"
 7300      4E545F4D 
 7300      505F5035 
 7300      53287074 
 7300      72292028 
 7301              	.LASF91:
 7302 34a9 73797363 		.ascii	"syscall.c\000"
 7302      616C6C2E 
 7302      6300
 7303              	.LASF697:
 7304 34b3 5F574348 		.ascii	"_WCHAR_T_DEFINED \000"
 7304      41525F54 
 7304      5F444546 
 7304      494E4544 
 7304      2000
 7305              	.LASF357:
 7306 34c5 5F5F554C 		.ascii	"__ULACCUM_MAX__ 0XFFFFFFFFFFFFFFFFP-32ULK\000"
 7306      41434355 
 7306      4D5F4D41 
 7306      585F5F20 
 7306      30584646 
 7307              	.LASF49:
 7308 34ef 5F666F72 		.ascii	"_fork_r\000"
 7308      6B5F7200 
 7309              	.LASF200:
 7310 34f7 5F5F494E 		.ascii	"__INT16_C(c) c\000"
 7310      5431365F 
 7310      43286329 
 7310      206300
 7311              	.LASF316:
 7312 3506 5F5F554C 		.ascii	"__ULFRACT_MIN__ 0.0ULR\000"
 7312      46524143 
 7312      545F4D49 
ARM GAS  /tmp/ccuKfveS.s 			page 169


 7312      4E5F5F20 
 7312      302E3055 
 7313              	.LASF744:
 7314 351d 5F494642 		.ascii	"_IFBLK 0060000\000"
 7314      4C4B2030 
 7314      30363030 
 7314      303000
 7315              	.LASF647:
 7316 352c 454F574E 		.ascii	"EOWNERDEAD 142\000"
 7316      45524445 
 7316      41442031 
 7316      343200
 7317              	.LASF553:
 7318 353b 5F524545 		.ascii	"_REENT_WCRTOMB_STATE(ptr) ((ptr)->_new._reent._wcrt"
 7318      4E545F57 
 7318      4352544F 
 7318      4D425F53 
 7318      54415445 
 7319 356e 6F6D625F 		.ascii	"omb_state)\000"
 7319      73746174 
 7319      652900
 7320              	.LASF563:
 7321 3579 5F5F6572 		.ascii	"__errno_r(ptr) ((ptr)->_errno)\000"
 7321      726E6F5F 
 7321      72287074 
 7321      72292028 
 7321      28707472 
 7322              	.LASF663:
 7323 3598 5F425344 		.ascii	"_BSD_SIZE_T_ \000"
 7323      5F53495A 
 7323      455F545F 
 7323      2000
 7324              	.LASF566:
 7325 35a6 45535243 		.ascii	"ESRCH 3\000"
 7325      48203300 
 7326              	.LASF694:
 7327 35ae 5F574348 		.ascii	"_WCHAR_T_ \000"
 7327      41525F54 
 7327      5F2000
 7328              	.LASF203:
 7329 35b9 5F5F494E 		.ascii	"__INT_LEAST64_MAX__ 9223372036854775807LL\000"
 7329      545F4C45 
 7329      41535436 
 7329      345F4D41 
 7329      585F5F20 
 7330              	.LASF692:
 7331 35e3 5F545F57 		.ascii	"_T_WCHAR \000"
 7331      43484152 
 7331      2000
 7332              	.LASF678:
 7333 35ed 5F5F5354 		.ascii	"__STDDEF_H__ \000"
 7333      44444546 
 7333      5F485F5F 
 7333      2000
 7334              	.LASF620:
 7335 35fb 454E4F54 		.ascii	"ENOTSOCK 108\000"
 7335      534F434B 
ARM GAS  /tmp/ccuKfveS.s 			page 170


 7335      20313038 
 7335      00
 7336              	.LASF770:
 7337 3608 535F4952 		.ascii	"S_IRGRP 0000040\000"
 7337      47525020 
 7337      30303030 
 7337      30343000 
 7338              	.LASF182:
 7339 3618 5F5F5349 		.ascii	"__SIZE_MAX__ 4294967295U\000"
 7339      5A455F4D 
 7339      41585F5F 
 7339      20343239 
 7339      34393637 
 7340              	.LASF711:
 7341 3631 5F434C4F 		.ascii	"_CLOCKID_T_ unsigned long\000"
 7341      434B4944 
 7341      5F545F20 
 7341      756E7369 
 7341      676E6564 
 7342              	.LASF529:
 7343 364b 5F524545 		.ascii	"_REENT_CHECK_TM(ptr) \000"
 7343      4E545F43 
 7343      4845434B 
 7343      5F544D28 
 7343      70747229 
 7344              	.LASF52:
 7345 3661 666F726B 		.ascii	"fork\000"
 7345      00
 7346              	.LASF388:
 7347 3666 5F5F5554 		.ascii	"__UTQ_IBIT__ 0\000"
 7347      515F4942 
 7347      49545F5F 
 7347      203000
 7348              	.LASF391:
 7349 3675 5F5F5341 		.ascii	"__SA_FBIT__ 15\000"
 7349      5F464249 
 7349      545F5F20 
 7349      313500
 7350              	.LASF700:
 7351 3684 5F5F494E 		.ascii	"__INT_WCHAR_T_H \000"
 7351      545F5743 
 7351      4841525F 
 7351      545F4820 
 7351      00
 7352              	.LASF477:
 7353 3695 5F434153 		.ascii	"_CAST_VOID (void)\000"
 7353      545F564F 
 7353      49442028 
 7353      766F6964 
 7353      2900
 7354              	.LASF438:
 7355 36a7 5F5F454C 		.ascii	"__ELF__ 1\000"
 7355      465F5F20 
 7355      3100
 7356              	.LASF430:
 7357 36b1 5F5F5448 		.ascii	"__THUMBEL__ 1\000"
 7357      554D4245 
ARM GAS  /tmp/ccuKfveS.s 			page 171


 7357      4C5F5F20 
 7357      3100
 7358              	.LASF649:
 7359 36bf 5F5F454C 		.ascii	"__ELASTERROR 2000\000"
 7359      41535445 
 7359      52524F52 
 7359      20323030 
 7359      3000
 7360              	.LASF370:
 7361 36d1 5F5F5151 		.ascii	"__QQ_IBIT__ 0\000"
 7361      5F494249 
 7361      545F5F20 
 7361      3000
 7362              	.LASF221:
 7363 36df 5F5F494E 		.ascii	"__INTPTR_MAX__ 2147483647\000"
 7363      54505452 
 7363      5F4D4158 
 7363      5F5F2032 
 7363      31343734 
 7364              	.LASF777:
 7365 36f9 41434345 		.ascii	"ACCESSPERMS (S_IRWXU | S_IRWXG | S_IRWXO)\000"
 7365      53535045 
 7365      524D5320 
 7365      28535F49 
 7365      52575855 
 7366              	.LASF652:
 7367 3723 434C4F43 		.ascii	"CLOCKS_PER_SEC _CLOCKS_PER_SEC_\000"
 7367      4B535F50 
 7367      45525F53 
 7367      4543205F 
 7367      434C4F43 
 7368              	.LASF359:
 7369 3743 5F5F4C4C 		.ascii	"__LLACCUM_FBIT__ 31\000"
 7369      41434355 
 7369      4D5F4642 
 7369      49545F5F 
 7369      20333100 
 7370              	.LASF185:
 7371 3757 5F5F5549 		.ascii	"__UINTMAX_MAX__ 18446744073709551615ULL\000"
 7371      4E544D41 
 7371      585F4D41 
 7371      585F5F20 
 7371      31383434 
 7372              	.LASF141:
 7373 377f 5F5F5549 		.ascii	"__UINTMAX_TYPE__ long long unsigned int\000"
 7373      4E544D41 
 7373      585F5459 
 7373      50455F5F 
 7373      206C6F6E 
 7374              	.LASF465:
 7375 37a7 5F4E4F41 		.ascii	"_NOARGS void\000"
 7375      52475320 
 7375      766F6964 
 7375      00
 7376              	.LASF159:
 7377 37b4 5F5F5549 		.ascii	"__UINT_LEAST32_TYPE__ long unsigned int\000"
 7377      4E545F4C 
ARM GAS  /tmp/ccuKfveS.s 			page 172


 7377      45415354 
 7377      33325F54 
 7377      5950455F 
 7378              	.LASF110:
 7379 37dc 5F5F474E 		.ascii	"__GNUC_MINOR__ 7\000"
 7379      55435F4D 
 7379      494E4F52 
 7379      5F5F2037 
 7379      00
 7380              	.LASF518:
 7381 37ed 5F52414E 		.ascii	"_RAND48_MULT_1 (0xdeec)\000"
 7381      4434385F 
 7381      4D554C54 
 7381      5F312028 
 7381      30786465 
 7382              	.LASF140:
 7383 3805 5F5F494E 		.ascii	"__INTMAX_TYPE__ long long int\000"
 7383      544D4158 
 7383      5F545950 
 7383      455F5F20 
 7383      6C6F6E67 
 7384              	.LASF416:
 7385 3823 5F5F4743 		.ascii	"__GCC_ATOMIC_INT_LOCK_FREE 1\000"
 7385      435F4154 
 7385      4F4D4943 
 7385      5F494E54 
 7385      5F4C4F43 
 7386              	.LASF201:
 7387 3840 5F5F494E 		.ascii	"__INT_LEAST32_MAX__ 2147483647L\000"
 7387      545F4C45 
 7387      41535433 
 7387      325F4D41 
 7387      585F5F20 
 7388              	.LASF616:
 7389 3860 45434F4E 		.ascii	"ECONNRESET 104\000"
 7389      4E524553 
 7389      45542031 
 7389      303400
 7390              	.LASF565:
 7391 386f 454E4F45 		.ascii	"ENOENT 2\000"
 7391      4E542032 
 7391      00
 7392              	.LASF514:
 7393 3878 5F52414E 		.ascii	"_RAND48_SEED_0 (0x330e)\000"
 7393      4434385F 
 7393      53454544 
 7393      5F302028 
 7393      30783333 
 7394              	.LASF511:
 7395 3890 5F5F4C6F 		.ascii	"__Long long\000"
 7395      6E67206C 
 7395      6F6E6700 
 7396              	.LASF670:
 7397 389c 5F53495A 		.ascii	"_SIZET_ \000"
 7397      45545F20 
 7397      00
 7398              	.LASF338:
ARM GAS  /tmp/ccuKfveS.s 			page 173


 7399 38a5 5F5F5553 		.ascii	"__USACCUM_EPSILON__ 0x1P-8UHK\000"
 7399      41434355 
 7399      4D5F4550 
 7399      53494C4F 
 7399      4E5F5F20 
 7400              	.LASF253:
 7401 38c3 5F5F4442 		.ascii	"__DBL_HAS_QUIET_NAN__ 1\000"
 7401      4C5F4841 
 7401      535F5155 
 7401      4945545F 
 7401      4E414E5F 
 7402              	.LASF35:
 7403 38db 73745F6D 		.ascii	"st_mtime\000"
 7403      74696D65 
 7403      00
 7404              	.LASF484:
 7405 38e4 5F4E4F49 		.ascii	"_NOINLINE_STATIC _NOINLINE static\000"
 7405      4E4C494E 
 7405      455F5354 
 7405      41544943 
 7405      205F4E4F 
 7406              	.LASF322:
 7407 3906 5F5F4C4C 		.ascii	"__LLFRACT_MAX__ 0X7FFFFFFFFFFFFFFFP-63LLR\000"
 7407      46524143 
 7407      545F4D41 
 7407      585F5F20 
 7407      30583746 
 7408              	.LASF284:
 7409 3930 5F5F4445 		.ascii	"__DEC128_MAX_EXP__ 6145\000"
 7409      43313238 
 7409      5F4D4158 
 7409      5F455850 
 7409      5F5F2036 
 7410              	.LASF641:
 7411 3948 45535441 		.ascii	"ESTALE 133\000"
 7411      4C452031 
 7411      333300
 7412              	.LASF181:
 7413 3953 5F5F5054 		.ascii	"__PTRDIFF_MAX__ 2147483647\000"
 7413      52444946 
 7413      465F4D41 
 7413      585F5F20 
 7413      32313437 
 7414              	.LASF332:
 7415 396e 5F5F5341 		.ascii	"__SACCUM_MAX__ 0X7FFFP-7HK\000"
 7415      4343554D 
 7415      5F4D4158 
 7415      5F5F2030 
 7415      58374646 
 7416              	.LASF561:
 7417 3989 5F474C4F 		.ascii	"_GLOBAL_REENT _global_impure_ptr\000"
 7417      42414C5F 
 7417      5245454E 
 7417      54205F67 
 7417      6C6F6261 
 7418              	.LASF170:
 7419 39aa 5F5F5549 		.ascii	"__UINTPTR_TYPE__ unsigned int\000"
ARM GAS  /tmp/ccuKfveS.s 			page 174


 7419      4E545054 
 7419      525F5459 
 7419      50455F5F 
 7419      20756E73 
 7420              	.LASF405:
 7421 39c8 5F5F5245 		.ascii	"__REGISTER_PREFIX__ \000"
 7421      47495354 
 7421      45525F50 
 7421      52454649 
 7421      585F5F20 
 7422              	.LASF241:
 7423 39dd 5F5F4442 		.ascii	"__DBL_DIG__ 15\000"
 7423      4C5F4449 
 7423      475F5F20 
 7423      313500
 7424              	.LASF318:
 7425 39ec 5F5F554C 		.ascii	"__ULFRACT_EPSILON__ 0x1P-32ULR\000"
 7425      46524143 
 7425      545F4550 
 7425      53494C4F 
 7425      4E5F5F20 
 7426              	.LASF127:
 7427 3a0b 5F5F5349 		.ascii	"__SIZEOF_SIZE_T__ 4\000"
 7427      5A454F46 
 7427      5F53495A 
 7427      455F545F 
 7427      5F203400 
 7428              	.LASF47:
 7429 3a1f 6E616D65 		.ascii	"name\000"
 7429      00
 7430              	.LASF152:
 7431 3a24 5F5F5549 		.ascii	"__UINT64_TYPE__ long long unsigned int\000"
 7431      4E543634 
 7431      5F545950 
 7431      455F5F20 
 7431      6C6F6E67 
 7432              	.LASF285:
 7433 3a4b 5F5F4445 		.ascii	"__DEC128_MIN__ 1E-6143DL\000"
 7433      43313238 
 7433      5F4D494E 
 7433      5F5F2031 
 7433      452D3631 
 7434              	.LASF204:
 7435 3a64 5F5F494E 		.ascii	"__INT64_C(c) c ## LL\000"
 7435      5436345F 
 7435      43286329 
 7435      20632023 
 7435      23204C4C 
 7436              	.LASF447:
 7437 3a79 48415645 		.ascii	"HAVE_INITFINI_ARRAY 1\000"
 7437      5F494E49 
 7437      5446494E 
 7437      495F4152 
 7437      52415920 
 7438              	.LASF459:
 7439 3a8f 5F484156 		.ascii	"_HAVE_STDC \000"
 7439      455F5354 
ARM GAS  /tmp/ccuKfveS.s 			page 175


 7439      44432000 
 7440              	.LASF728:
 7441 3a9b 46445F5A 		.ascii	"FD_ZERO(p) (__extension__ (void)({ size_t __i; char"
 7441      45524F28 
 7441      70292028 
 7441      5F5F6578 
 7441      74656E73 
 7442 3ace 202A5F5F 		.ascii	" *__tmp = (char *)p; for (__i = 0; __i < sizeof (*("
 7442      746D7020 
 7442      3D202863 
 7442      68617220 
 7442      2A29703B 
 7443 3b01 7029293B 		.ascii	"p)); ++__i) *__tmp++ = 0; }))\000"
 7443      202B2B5F 
 7443      5F692920 
 7443      2A5F5F74 
 7443      6D702B2B 
 7444              	.LASF262:
 7445 3b1f 5F5F4C44 		.ascii	"__LDBL_MIN__ 2.2250738585072014e-308L\000"
 7445      424C5F4D 
 7445      494E5F5F 
 7445      20322E32 
 7445      32353037 
 7446              	.LASF340:
 7447 3b45 5F5F4143 		.ascii	"__ACCUM_IBIT__ 16\000"
 7447      43554D5F 
 7447      49424954 
 7447      5F5F2031 
 7447      3600
 7448              	.LASF724:
 7449 3b57 66645F73 		.ascii	"fd_set _types_fd_set\000"
 7449      6574205F 
 7449      74797065 
 7449      735F6664 
 7449      5F736574 
 7450              	.LASF194:
 7451 3b6c 5F5F5549 		.ascii	"__UINT16_MAX__ 65535\000"
 7451      4E543136 
 7451      5F4D4158 
 7451      5F5F2036 
 7451      35353335 
 7452              	.LASF443:
 7453 3b81 5F4E4557 		.ascii	"_NEWLIB_VERSION \"1.19.0\"\000"
 7453      4C49425F 
 7453      56455253 
 7453      494F4E20 
 7453      22312E31 
 7454              	.LASF2:
 7455 3b9a 73686F72 		.ascii	"short int\000"
 7455      7420696E 
 7455      7400
 7456              	.LASF675:
 7457 3ba4 5F535444 		.ascii	"_STDDEF_H \000"
 7457      4445465F 
 7457      482000
 7458              	.LASF208:
 7459 3baf 5F5F5549 		.ascii	"__UINT16_C(c) c\000"
ARM GAS  /tmp/ccuKfveS.s 			page 176


 7459      4E543136 
 7459      5F432863 
 7459      29206300 
 7460              	.LASF481:
 7461 3bbf 5F415454 		.ascii	"_ATTRIBUTE(attrs) __attribute__ (attrs)\000"
 7461      52494255 
 7461      54452861 
 7461      74747273 
 7461      29205F5F 
 7462              	.LASF402:
 7463 3be7 5F5F5544 		.ascii	"__UDA_IBIT__ 32\000"
 7463      415F4942 
 7463      49545F5F 
 7463      20333200 
 7464              	.LASF64:
 7465 3bf7 6D6F6465 		.ascii	"mode\000"
 7465      00
 7466              	.LASF726:
 7467 3bfc 46445F43 		.ascii	"FD_CLR(n,p) ((p)->fds_bits[(n)/NFDBITS] &= ~(1L << "
 7467      4C52286E 
 7467      2C702920 
 7467      28287029 
 7467      2D3E6664 
 7468 3c2f 28286E29 		.ascii	"((n) % NFDBITS)))\000"
 7468      2025204E 
 7468      46444249 
 7468      54532929 
 7468      2900
 7469              	.LASF408:
 7470 3c41 5F5F4E4F 		.ascii	"__NO_INLINE__ 1\000"
 7470      5F494E4C 
 7470      494E455F 
 7470      5F203100 
 7471              	.LASF626:
 7472 3c51 454E4554 		.ascii	"ENETDOWN 115\000"
 7472      444F574E 
 7472      20313135 
 7472      00
 7473              	.LASF113:
 7474 3c5e 5F5F4154 		.ascii	"__ATOMIC_RELAXED 0\000"
 7474      4F4D4943 
 7474      5F52454C 
 7474      41584544 
 7474      203000
 7475              	.LASF568:
 7476 3c71 45494F20 		.ascii	"EIO 5\000"
 7476      3500
 7477              	.LASF559:
 7478 3c77 5F5F4154 		.ascii	"__ATTRIBUTE_IMPURE_PTR__ \000"
 7478      54524942 
 7478      5554455F 
 7478      494D5055 
 7478      52455F50 
 7479              	.LASF252:
 7480 3c91 5F5F4442 		.ascii	"__DBL_HAS_INFINITY__ 1\000"
 7480      4C5F4841 
 7480      535F494E 
ARM GAS  /tmp/ccuKfveS.s 			page 177


 7480      46494E49 
 7480      54595F5F 
 7481              	.LASF410:
 7482 3ca8 5F5F4743 		.ascii	"__GCC_ATOMIC_BOOL_LOCK_FREE 1\000"
 7482      435F4154 
 7482      4F4D4943 
 7482      5F424F4F 
 7482      4C5F4C4F 
 7483              	.LASF517:
 7484 3cc6 5F52414E 		.ascii	"_RAND48_MULT_0 (0xe66d)\000"
 7484      4434385F 
 7484      4D554C54 
 7484      5F302028 
 7484      30786536 
 7485              	.LASF585:
 7486 3cde 454E4649 		.ascii	"ENFILE 23\000"
 7486      4C452032 
 7486      3300
 7487              	.LASF567:
 7488 3ce8 45494E54 		.ascii	"EINTR 4\000"
 7488      52203400 
 7489              	.LASF50:
 7490 3cf0 66737461 		.ascii	"fstat\000"
 7490      7400
 7491              	.LASF439:
 7492 3cf6 5F5F5553 		.ascii	"__USES_INITFINI__ 1\000"
 7492      45535F49 
 7492      4E495446 
 7492      494E495F 
 7492      5F203100 
 7493              	.LASF749:
 7494 3d0a 535F424C 		.ascii	"S_BLKSIZE 1024\000"
 7494      4B53495A 
 7494      45203130 
 7494      323400
 7495              	.LASF173:
 7496 3d19 5F5F5348 		.ascii	"__SHRT_MAX__ 32767\000"
 7496      52545F4D 
 7496      41585F5F 
 7496      20333237 
 7496      363700
 7497              	.LASF687:
 7498 3d2c 5F5F6E65 		.ascii	"__need_ptrdiff_t\000"
 7498      65645F70 
 7498      74726469 
 7498      66665F74 
 7498      00
 7499              	.LASF246:
 7500 3d3d 5F5F4442 		.ascii	"__DBL_DECIMAL_DIG__ 17\000"
 7500      4C5F4445 
 7500      43494D41 
 7500      4C5F4449 
 7500      475F5F20 
 7501              	.LASF683:
 7502 3d54 5F505452 		.ascii	"_PTRDIFF_T_ \000"
 7502      44494646 
 7502      5F545F20 
ARM GAS  /tmp/ccuKfveS.s 			page 178


 7502      00
 7503              	.LASF209:
 7504 3d61 5F5F5549 		.ascii	"__UINT_LEAST32_MAX__ 4294967295UL\000"
 7504      4E545F4C 
 7504      45415354 
 7504      33325F4D 
 7504      41585F5F 
 7505              	.LASF354:
 7506 3d83 5F5F554C 		.ascii	"__ULACCUM_FBIT__ 32\000"
 7506      41434355 
 7506      4D5F4642 
 7506      49545F5F 
 7506      20333200 
 7507              	.LASF506:
 7508 3d97 5F5F6C6F 		.ascii	"__lock_release_recursive(lock) (_CAST_VOID 0)\000"
 7508      636B5F72 
 7508      656C6561 
 7508      73655F72 
 7508      65637572 
 7509              	.LASF445:
 7510 3dc5 5F57414E 		.ascii	"_WANT_REGISTER_FINI 1\000"
 7510      545F5245 
 7510      47495354 
 7510      45525F46 
 7510      494E4920 
 7511              	.LASF569:
 7512 3ddb 454E5849 		.ascii	"ENXIO 6\000"
 7512      4F203600 
 7513              	.LASF175:
 7514 3de3 5F5F4C4F 		.ascii	"__LONG_MAX__ 2147483647L\000"
 7514      4E475F4D 
 7514      41585F5F 
 7514      20323134 
 7514      37343833 
 7515              	.LASF71:
 7516 3dfc 70726576 		.ascii	"prev_heap_end\000"
 7516      5F686561 
 7516      705F656E 
 7516      6400
 7517              	.LASF369:
 7518 3e0a 5F5F5151 		.ascii	"__QQ_FBIT__ 7\000"
 7518      5F464249 
 7518      545F5F20 
 7518      3700
 7519              	.LASF772:
 7520 3e18 535F4958 		.ascii	"S_IXGRP 0000010\000"
 7520      47525020 
 7520      30303030 
 7520      30313000 
 7521              	.LASF87:
 7522 3e28 5F5F656E 		.ascii	"__env\000"
 7522      7600
 7523              	.LASF735:
 7524 3e2e 434C4F43 		.ascii	"CLOCK_ENABLED 1\000"
 7524      4B5F454E 
 7524      41424C45 
 7524      44203100 
ARM GAS  /tmp/ccuKfveS.s 			page 179


 7525              	.LASF404:
 7526 3e3e 5F5F5554 		.ascii	"__UTA_IBIT__ 64\000"
 7526      415F4942 
 7526      49545F5F 
 7526      20363400 
 7527              	.LASF328:
 7528 3e4e 5F5F554C 		.ascii	"__ULLFRACT_EPSILON__ 0x1P-64ULLR\000"
 7528      4C465241 
 7528      43545F45 
 7528      5053494C 
 7528      4F4E5F5F 
 7529              	.LASF424:
 7530 3e6f 5F5F5349 		.ascii	"__SIZEOF_WINT_T__ 4\000"
 7530      5A454F46 
 7530      5F57494E 
 7530      545F545F 
 7530      5F203400 
 7531              	.LASF56:
 7532 3e83 6B696C6C 		.ascii	"kill\000"
 7532      00
 7533              	.LASF604:
 7534 3e88 454E4F53 		.ascii	"ENOSR 63\000"
 7534      52203633 
 7534      00
 7535              	.LASF104:
 7536 3e91 5F5F5354 		.ascii	"__STDC__ 1\000"
 7536      44435F5F 
 7536      203100
 7537              	.LASF470:
 7538 3e9c 5F564F49 		.ascii	"_VOID void\000"
 7538      4420766F 
 7538      696400
 7539              	.LASF351:
 7540 3ea7 5F5F4C41 		.ascii	"__LACCUM_MIN__ (-0X1P31LK-0X1P31LK)\000"
 7540      4343554D 
 7540      5F4D494E 
 7540      5F5F2028 
 7540      2D305831 
 7541              	.LASF269:
 7542 3ecb 5F5F4445 		.ascii	"__DEC32_MIN_EXP__ (-94)\000"
 7542      4333325F 
 7542      4D494E5F 
 7542      4558505F 
 7542      5F20282D 
 7543              	.LASF366:
 7544 3ee3 5F5F554C 		.ascii	"__ULLACCUM_MIN__ 0.0ULLK\000"
 7544      4C414343 
 7544      554D5F4D 
 7544      494E5F5F 
 7544      20302E30 
 7545              	.LASF699:
 7546 3efc 5F5F5F69 		.ascii	"___int_wchar_t_h \000"
 7546      6E745F77 
 7546      63686172 
 7546      5F745F68 
 7546      2000
 7547              	.LASF60:
ARM GAS  /tmp/ccuKfveS.s 			page 180


 7548 3f0e 5F6C7365 		.ascii	"_lseek_r\000"
 7548      656B5F72 
 7548      00
 7549              	.LASF11:
 7550 3f17 5F5F6769 		.ascii	"__gid_t\000"
 7550      645F7400 
 7551              	.LASF22:
 7552 3f1f 6769645F 		.ascii	"gid_t\000"
 7552      7400
 7553              	.LASF27:
 7554 3f25 73745F6D 		.ascii	"st_mode\000"
 7554      6F646500 
 7555              	.LASF10:
 7556 3f2d 5F5F7569 		.ascii	"__uid_t\000"
 7556      645F7400 
 7557              	.LASF767:
 7558 3f35 535F4957 		.ascii	"S_IWUSR 0000200\000"
 7558      55535220 
 7558      30303030 
 7558      32303000 
 7559              	.LASF151:
 7560 3f45 5F5F5549 		.ascii	"__UINT32_TYPE__ long unsigned int\000"
 7560      4E543332 
 7560      5F545950 
 7560      455F5F20 
 7560      6C6F6E67 
 7561              	.LASF651:
 7562 3f67 5F434C4F 		.ascii	"_CLOCKS_PER_SEC_ 100\000"
 7562      434B535F 
 7562      5045525F 
 7562      5345435F 
 7562      20313030 
 7563              	.LASF669:
 7564 3f7c 5F474343 		.ascii	"_GCC_SIZE_T \000"
 7564      5F53495A 
 7564      455F5420 
 7564      00
 7565              	.LASF752:
 7566 3f89 535F4953 		.ascii	"S_ISVTX 0001000\000"
 7566      56545820 
 7566      30303031 
 7566      30303000 
 7567              	.LASF326:
 7568 3f99 5F5F554C 		.ascii	"__ULLFRACT_MIN__ 0.0ULLR\000"
 7568      4C465241 
 7568      43545F4D 
 7568      494E5F5F 
 7568      20302E30 
 7569              	.LASF691:
 7570 3fb2 5F545F57 		.ascii	"_T_WCHAR_ \000"
 7570      43484152 
 7570      5F2000
 7571              	.LASF716:
 7572 3fbd 5F425344 		.ascii	"_BSDTYPES_DEFINED \000"
 7572      54595045 
 7572      535F4445 
 7572      46494E45 
ARM GAS  /tmp/ccuKfveS.s 			page 181


 7572      442000
 7573              	.LASF527:
 7574 3fd0 5F524545 		.ascii	"_REENT_CHECK_RAND48(ptr) \000"
 7574      4E545F43 
 7574      4845434B 
 7574      5F52414E 
 7574      44343828 
 7575              	.LASF727:
 7576 3fea 46445F49 		.ascii	"FD_ISSET(n,p) ((p)->fds_bits[(n)/NFDBITS] & (1L << "
 7576      53534554 
 7576      286E2C70 
 7576      29202828 
 7576      70292D3E 
 7577 401d 28286E29 		.ascii	"((n) % NFDBITS)))\000"
 7577      2025204E 
 7577      46444249 
 7577      54532929 
 7577      2900
 7578              	.LASF120:
 7579 402f 5F5F5349 		.ascii	"__SIZEOF_INT__ 4\000"
 7579      5A454F46 
 7579      5F494E54 
 7579      5F5F2034 
 7579      00
 7580              	.LASF703:
 7581 4040 5F425344 		.ascii	"_BSD_WCHAR_T_\000"
 7581      5F574348 
 7581      41525F54 
 7581      5F00
 7582              	.LASF320:
 7583 404e 5F5F4C4C 		.ascii	"__LLFRACT_IBIT__ 0\000"
 7583      46524143 
 7583      545F4942 
 7583      49545F5F 
 7583      203000
 7584              	.LASF758:
 7585 4061 535F4946 		.ascii	"S_IFDIR _IFDIR\000"
 7585      44495220 
 7585      5F494644 
 7585      495200
 7586              	.LASF333:
 7587 4070 5F5F5341 		.ascii	"__SACCUM_EPSILON__ 0x1P-7HK\000"
 7587      4343554D 
 7587      5F455053 
 7587      494C4F4E 
 7587      5F5F2030 
 7588              	.LASF599:
 7589 408c 45444541 		.ascii	"EDEADLK 45\000"
 7589      444C4B20 
 7589      343500
 7590              	.LASF166:
 7591 4097 5F5F5549 		.ascii	"__UINT_FAST16_TYPE__ unsigned int\000"
 7591      4E545F46 
 7591      41535431 
 7591      365F5459 
 7591      50455F5F 
 7592              	.LASF398:
ARM GAS  /tmp/ccuKfveS.s 			page 182


 7593 40b9 5F5F5548 		.ascii	"__UHA_IBIT__ 8\000"
 7593      415F4942 
 7593      49545F5F 
 7593      203800
 7594              	.LASF100:
 7595 40c8 5F5F6E65 		.ascii	"__need_wint_t \000"
 7595      65645F77 
 7595      696E745F 
 7595      742000
 7596              	.LASF343:
 7597 40d7 5F5F4143 		.ascii	"__ACCUM_EPSILON__ 0x1P-15K\000"
 7597      43554D5F 
 7597      45505349 
 7597      4C4F4E5F 
 7597      5F203078 
 7598              	.LASF358:
 7599 40f2 5F5F554C 		.ascii	"__ULACCUM_EPSILON__ 0x1P-32ULK\000"
 7599      41434355 
 7599      4D5F4550 
 7599      53494C4F 
 7599      4E5F5F20 
 7600              	.LASF255:
 7601 4111 5F5F4C44 		.ascii	"__LDBL_DIG__ 15\000"
 7601      424C5F44 
 7601      49475F5F 
 7601      20313500 
 7602              	.LASF180:
 7603 4121 5F5F5749 		.ascii	"__WINT_MIN__ 0U\000"
 7603      4E545F4D 
 7603      494E5F5F 
 7603      20305500 
 7604              	.LASF8:
 7605 4131 5F6F6666 		.ascii	"_off_t\000"
 7605      5F7400
 7606              	.LASF743:
 7607 4138 5F494643 		.ascii	"_IFCHR 0020000\000"
 7607      48522030 
 7607      30323030 
 7607      303000
 7608              	.LASF280:
 7609 4147 5F5F4445 		.ascii	"__DEC64_EPSILON__ 1E-15DD\000"
 7609      4336345F 
 7609      45505349 
 7609      4C4F4E5F 
 7609      5F203145 
 7610              	.LASF75:
 7611 4161 70737461 		.ascii	"pstat\000"
 7611      7400
 7612              	.LASF741:
 7613 4167 5F49464D 		.ascii	"_IFMT 0170000\000"
 7613      54203031 
 7613      37303030 
 7613      3000
 7614              	.LASF65:
 7615 4175 5F6F7065 		.ascii	"_open_r\000"
 7615      6E5F7200 
 7616              	.LASF154:
ARM GAS  /tmp/ccuKfveS.s 			page 183


 7617 417d 5F5F494E 		.ascii	"__INT_LEAST16_TYPE__ short int\000"
 7617      545F4C45 
 7617      41535431 
 7617      365F5459 
 7617      50455F5F 
 7618              	.LASF247:
 7619 419c 5F5F4442 		.ascii	"__DBL_MAX__ ((double)1.7976931348623157e+308L)\000"
 7619      4C5F4D41 
 7619      585F5F20 
 7619      2828646F 
 7619      75626C65 
 7620              	.LASF463:
 7621 41cb 5F505452 		.ascii	"_PTR void *\000"
 7621      20766F69 
 7621      64202A00 
 7622              	.LASF319:
 7623 41d7 5F5F4C4C 		.ascii	"__LLFRACT_FBIT__ 63\000"
 7623      46524143 
 7623      545F4642 
 7623      49545F5F 
 7623      20363300 
 7624              	.LASF688:
 7625 41eb 5F5F7763 		.ascii	"__wchar_t__ \000"
 7625      6861725F 
 7625      745F5F20 
 7625      00
 7626              	.LASF428:
 7627 41f8 5F5F7468 		.ascii	"__thumb__ 1\000"
 7627      756D625F 
 7627      5F203100 
 7628              	.LASF429:
 7629 4204 5F5F4152 		.ascii	"__ARMEL__ 1\000"
 7629      4D454C5F 
 7629      5F203100 
 7630              	.LASF498:
 7631 4210 5F5F6C6F 		.ascii	"__lock_init_recursive(lock) (_CAST_VOID 0)\000"
 7631      636B5F69 
 7631      6E69745F 
 7631      72656375 
 7631      72736976 
 7632              	.LASF371:
 7633 423b 5F5F4851 		.ascii	"__HQ_FBIT__ 15\000"
 7633      5F464249 
 7633      545F5F20 
 7633      313500
 7634              	.LASF581:
 7635 424a 454E4F44 		.ascii	"ENODEV 19\000"
 7635      45562031 
 7635      3900
 7636              	.LASF556:
 7637 4254 5F524545 		.ascii	"_REENT_SIGNAL_BUF(ptr) ((ptr)->_new._reent._signal_"
 7637      4E545F53 
 7637      49474E41 
 7637      4C5F4255 
 7637      46287074 
 7638 4287 62756629 		.ascii	"buf)\000"
 7638      00
ARM GAS  /tmp/ccuKfveS.s 			page 184


 7639              	.LASF754:
 7640 428c 535F4957 		.ascii	"S_IWRITE 0000200\000"
 7640      52495445 
 7640      20303030 
 7640      30323030 
 7640      00
 7641              	.LASF600:
 7642 429d 454E4F4C 		.ascii	"ENOLCK 46\000"
 7642      434B2034 
 7642      3600
 7643              	.LASF290:
 7644 42a7 5F5F5346 		.ascii	"__SFRACT_IBIT__ 0\000"
 7644      52414354 
 7644      5F494249 
 7644      545F5F20 
 7644      3000
 7645              	.LASF76:
 7646 42b9 5F667374 		.ascii	"_fstat_r\000"
 7646      61745F72 
 7646      00
 7647              	.LASF723:
 7648 42c2 686F776D 		.ascii	"howmany(x,y) (((x)+((y)-1))/(y))\000"
 7648      616E7928 
 7648      782C7929 
 7648      20282828 
 7648      78292B28 
 7649              	.LASF520:
 7650 42e3 5F52414E 		.ascii	"_RAND48_ADD (0x000b)\000"
 7650      4434385F 
 7650      41444420 
 7650      28307830 
 7650      30306229 
 7651              	.LASF434:
 7652 42f8 5F5F4152 		.ascii	"__ARM_ARCH_6M__ 1\000"
 7652      4D5F4152 
 7652      43485F36 
 7652      4D5F5F20 
 7652      3100
 7653              	.LASF67:
 7654 430a 5F726561 		.ascii	"_read_r\000"
 7654      645F7200 
 7655              	.LASF292:
 7656 4312 5F5F5346 		.ascii	"__SFRACT_MAX__ 0X7FP-7HR\000"
 7656      52414354 
 7656      5F4D4158 
 7656      5F5F2030 
 7656      58374650 
 7657              	.LASF719:
 7658 432b 5F535953 		.ascii	"_SYS_TYPES_FD_SET \000"
 7658      5F545950 
 7658      45535F46 
 7658      445F5345 
 7658      542000
 7659              	.LASF26:
 7660 433e 73745F69 		.ascii	"st_ino\000"
 7660      6E6F00
 7661              	.LASF595:
ARM GAS  /tmp/ccuKfveS.s 			page 185


 7662 4345 45444F4D 		.ascii	"EDOM 33\000"
 7662      20333300 
 7663              	.LASF635:
 7664 434d 45414444 		.ascii	"EADDRNOTAVAIL 125\000"
 7664      524E4F54 
 7664      41564149 
 7664      4C203132 
 7664      3500
 7665              	.LASF633:
 7666 435f 454D5347 		.ascii	"EMSGSIZE 122\000"
 7666      53495A45 
 7666      20313232 
 7666      00
 7667              	.LASF394:
 7668 436c 5F5F4441 		.ascii	"__DA_IBIT__ 32\000"
 7668      5F494249 
 7668      545F5F20 
 7668      333200
 7669              	.LASF117:
 7670 437b 5F5F4154 		.ascii	"__ATOMIC_ACQ_REL 4\000"
 7670      4F4D4943 
 7670      5F414351 
 7670      5F52454C 
 7670      203400
 7671              	.LASF756:
 7672 438e 535F454E 		.ascii	"S_ENFMT 0002000\000"
 7672      464D5420 
 7672      30303032 
 7672      30303000 
 7673              	.LASF611:
 7674 439e 454E4F54 		.ascii	"ENOTEMPTY 90\000"
 7674      454D5054 
 7674      59203930 
 7674      00
 7675              	.LASF243:
 7676 43ab 5F5F4442 		.ascii	"__DBL_MIN_10_EXP__ (-307)\000"
 7676      4C5F4D49 
 7676      4E5F3130 
 7676      5F455850 
 7676      5F5F2028 
 7677              	.LASF627:
 7678 43c5 4554494D 		.ascii	"ETIMEDOUT 116\000"
 7678      45444F55 
 7678      54203131 
 7678      3600
 7679              	.LASF58:
 7680 43d3 5F6C696E 		.ascii	"_link_r\000"
 7680      6B5F7200 
 7681              	.LASF444:
 7682 43db 5F57414E 		.ascii	"_WANT_IO_LONG_LONG 1\000"
 7682      545F494F 
 7682      5F4C4F4E 
 7682      475F4C4F 
 7682      4E472031 
 7683              	.LASF42:
 7684 43f0 636C6F73 		.ascii	"close\000"
 7684      6500
ARM GAS  /tmp/ccuKfveS.s 			page 186


 7685              	.LASF494:
 7686 43f6 5F5F5359 		.ascii	"__SYS_LOCK_H__ \000"
 7686      535F4C4F 
 7686      434B5F48 
 7686      5F5F2000 
 7687              	.LASF289:
 7688 4406 5F5F5346 		.ascii	"__SFRACT_FBIT__ 7\000"
 7688      52414354 
 7688      5F464249 
 7688      545F5F20 
 7688      3700
 7689              	.LASF522:
 7690 4418 5F524545 		.ascii	"_REENT_ASCTIME_SIZE 26\000"
 7690      4E545F41 
 7690      53435449 
 7690      4D455F53 
 7690      495A4520 
 7691              	.LASF219:
 7692 442f 5F5F5549 		.ascii	"__UINT_FAST32_MAX__ 4294967295U\000"
 7692      4E545F46 
 7692      41535433 
 7692      325F4D41 
 7692      585F5F20 
 7693              	.LASF205:
 7694 444f 5F5F5549 		.ascii	"__UINT_LEAST8_MAX__ 255\000"
 7694      4E545F4C 
 7694      45415354 
 7694      385F4D41 
 7694      585F5F20 
 7695              	.LASF526:
 7696 4467 5F524545 		.ascii	"_REENT_INIT_PTR(var) { (var)->_errno = 0; (var)->_s"
 7696      4E545F49 
 7696      4E49545F 
 7696      50545228 
 7696      76617229 
 7697 449a 7464696E 		.ascii	"tdin = &(var)->__sf[0]; (var)->_stdout = &(var)->__"
 7697      203D2026 
 7697      28766172 
 7697      292D3E5F 
 7697      5F73665B 
 7698 44cd 73665B31 		.ascii	"sf[1]; (var)->_stderr = &(var)->__sf[2]; (var)->_in"
 7698      5D3B2028 
 7698      76617229 
 7698      2D3E5F73 
 7698      74646572 
 7699 4500 63203D20 		.ascii	"c = 0; memset(&(var)->_emergency, 0, sizeof((var)->"
 7699      303B206D 
 7699      656D7365 
 7699      74282628 
 7699      76617229 
 7700 4533 5F656D65 		.ascii	"_emergency)); (var)->_current_category = 0; (var)->"
 7700      7267656E 
 7700      63792929 
 7700      3B202876 
 7700      6172292D 
 7701 4566 5F637572 		.ascii	"_current_locale = \"C\"; (var)->__sdidinit = 0; (va"
 7701      72656E74 
ARM GAS  /tmp/ccuKfveS.s 			page 187


 7701      5F6C6F63 
 7701      616C6520 
 7701      3D202243 
 7702 4597 72292D3E 		.ascii	"r)->__cleanup = _NULL; (var)->_result = _NULL; (var"
 7702      5F5F636C 
 7702      65616E75 
 7702      70203D20 
 7702      5F4E554C 
 7703 45ca 292D3E5F 		.ascii	")->_result_k = 0; (var)->_p5s = _NULL; (var)->_free"
 7703      72657375 
 7703      6C745F6B 
 7703      203D2030 
 7703      3B202876 
 7704 45fd 6C697374 		.ascii	"list = _NULL; (var)->_cvtlen = 0; (var)->_cvtbuf = "
 7704      203D205F 
 7704      4E554C4C 
 7704      3B202876 
 7704      6172292D 
 7705 4630 5F4E554C 		.ascii	"_NULL; (var)->_new._reent._unused_rand = 0; (var)->"
 7705      4C3B2028 
 7705      76617229 
 7705      2D3E5F6E 
 7705      65772E5F 
 7706 4663 5F6E6577 		.ascii	"_new._reent._strtok_last = _NULL; (var)->_new._reen"
 7706      2E5F7265 
 7706      656E742E 
 7706      5F737472 
 7706      746F6B5F 
 7707 4696 742E5F61 		.ascii	"t._asctime_buf[0] = 0; memset(&(var)->_new._reent._"
 7707      73637469 
 7707      6D655F62 
 7707      75665B30 
 7707      5D203D20 
 7708 46c9 6C6F6361 		.ascii	"localtime_buf, 0, sizeof((var)->_new._reent._localt"
 7708      6C74696D 
 7708      655F6275 
 7708      662C2030 
 7708      2C207369 
 7709 46fc 696D655F 		.ascii	"ime_buf)); (var)->_new._reent._gamma_signgam = 0; ("
 7709      62756629 
 7709      293B2028 
 7709      76617229 
 7709      2D3E5F6E 
 7710 472f 76617229 		.ascii	"var)->_new._reent._rand_next = 1; (var)->_new._reen"
 7710      2D3E5F6E 
 7710      65772E5F 
 7710      7265656E 
 7710      742E5F72 
 7711 4762 742E5F72 		.ascii	"t._r48._seed[0] = _RAND48_SEED_0; (var)->_new._reen"
 7711      34382E5F 
 7711      73656564 
 7711      5B305D20 
 7711      3D205F52 
 7712 4795 742E5F72 		.ascii	"t._r48._seed[1] = _RAND48_SEED_1; (var)->_new._reen"
 7712      34382E5F 
 7712      73656564 
 7712      5B315D20 
ARM GAS  /tmp/ccuKfveS.s 			page 188


 7712      3D205F52 
 7713 47c8 742E5F72 		.ascii	"t._r48._seed[2] = _RAND48_SEED_2; (var)->_new._reen"
 7713      34382E5F 
 7713      73656564 
 7713      5B325D20 
 7713      3D205F52 
 7714 47fb 742E5F72 		.ascii	"t._r48._mult[0] = _RAND48_MULT_0; (var)->_new._reen"
 7714      34382E5F 
 7714      6D756C74 
 7714      5B305D20 
 7714      3D205F52 
 7715 482e 742E5F72 		.ascii	"t._r48._mult[1] = _RAND48_MULT_1; (var)->_new._reen"
 7715      34382E5F 
 7715      6D756C74 
 7715      5B315D20 
 7715      3D205F52 
 7716 4861 742E5F72 		.ascii	"t._r48._mult[2] = _RAND48_MULT_2; (var)->_new._reen"
 7716      34382E5F 
 7716      6D756C74 
 7716      5B325D20 
 7716      3D205F52 
 7717 4894 742E5F72 		.ascii	"t._r48._add = _RAND48_ADD; (var)->_new._reent._mble"
 7717      34382E5F 
 7717      61646420 
 7717      3D205F52 
 7717      414E4434 
 7718 48c7 6E5F7374 		.ascii	"n_state.__count = 0; (var)->_new._reent._mblen_stat"
 7718      6174652E 
 7718      5F5F636F 
 7718      756E7420 
 7718      3D20303B 
 7719 48fa 652E5F5F 		.ascii	"e.__value.__wch = 0; (var)->_new._reent._mbtowc_sta"
 7719      76616C75 
 7719      652E5F5F 
 7719      77636820 
 7719      3D20303B 
 7720 492d 74652E5F 		.ascii	"te.__count = 0; (var)->_new._reent._mbtowc_state.__"
 7720      5F636F75 
 7720      6E74203D 
 7720      20303B20 
 7720      28766172 
 7721 4960 76616C75 		.ascii	"value.__wch = 0; (var)->_new._reent._wctomb_state._"
 7721      652E5F5F 
 7721      77636820 
 7721      3D20303B 
 7721      20287661 
 7722 4993 5F636F75 		.ascii	"_count = 0; (var)->_new._reent._wctomb_state.__valu"
 7722      6E74203D 
 7722      20303B20 
 7722      28766172 
 7722      292D3E5F 
 7723 49c6 652E5F5F 		.ascii	"e.__wch = 0; (var)->_new._reent._mbrlen_state.__cou"
 7723      77636820 
 7723      3D20303B 
 7723      20287661 
 7723      72292D3E 
 7724 49f9 6E74203D 		.ascii	"nt = 0; (var)->_new._reent._mbrlen_state.__value.__"
ARM GAS  /tmp/ccuKfveS.s 			page 189


 7724      20303B20 
 7724      28766172 
 7724      292D3E5F 
 7724      6E65772E 
 7725 4a2c 77636820 		.ascii	"wch = 0; (var)->_new._reent._mbrtowc_state.__count "
 7725      3D20303B 
 7725      20287661 
 7725      72292D3E 
 7725      5F6E6577 
 7726 4a5f 3D20303B 		.ascii	"= 0; (var)->_new._reent._mbrtowc_state.__value.__wc"
 7726      20287661 
 7726      72292D3E 
 7726      5F6E6577 
 7726      2E5F7265 
 7727 4a92 68203D20 		.ascii	"h = 0; (var)->_new._reent._mbsrtowcs_state.__count "
 7727      303B2028 
 7727      76617229 
 7727      2D3E5F6E 
 7727      65772E5F 
 7728 4ac5 3D20303B 		.ascii	"= 0; (var)->_new._reent._mbsrtowcs_state.__value.__"
 7728      20287661 
 7728      72292D3E 
 7728      5F6E6577 
 7728      2E5F7265 
 7729 4af8 77636820 		.ascii	"wch = 0; (var)->_new._reent._wcrtomb_state.__count "
 7729      3D20303B 
 7729      20287661 
 7729      72292D3E 
 7729      5F6E6577 
 7730 4b2b 3D20303B 		.ascii	"= 0; (var)->_new._reent._wcrtomb_state.__value.__wc"
 7730      20287661 
 7730      72292D3E 
 7730      5F6E6577 
 7730      2E5F7265 
 7731 4b5e 68203D20 		.ascii	"h = 0; (var)->_new._reent._wcsrtombs_state.__count "
 7731      303B2028 
 7731      76617229 
 7731      2D3E5F6E 
 7731      65772E5F 
 7732 4b91 3D20303B 		.ascii	"= 0; (var)->_new._reent._wcsrtombs_state.__value.__"
 7732      20287661 
 7732      72292D3E 
 7732      5F6E6577 
 7732      2E5F7265 
 7733 4bc4 77636820 		.ascii	"wch = 0; (var)->_new._reent._l64a_buf[0] = '\\0'; ("
 7733      3D20303B 
 7733      20287661 
 7733      72292D3E 
 7733      5F6E6577 
 7734 4bf6 76617229 		.ascii	"var)->_new._reent._signal_buf[0] = '\\0'; (var)->_n"
 7734      2D3E5F6E 
 7734      65772E5F 
 7734      7265656E 
 7734      742E5F73 
 7735 4c28 65772E5F 		.ascii	"ew._reent._getd"
 7735      7265656E 
 7735      742E5F67 
ARM GAS  /tmp/ccuKfveS.s 			page 190


 7735      657464
 7736 4c37 6174655F 		.ascii	"ate_err = 0; (var)->_atexit = _NULL; (var)->_atexit"
 7736      65727220 
 7736      3D20303B 
 7736      20287661 
 7736      72292D3E 
 7737 4c6a 302E5F6E 		.ascii	"0._next = _NULL; (var)->_atexit0._ind = 0; (var)->_"
 7737      65787420 
 7737      3D205F4E 
 7737      554C4C3B 
 7737      20287661 
 7738 4c9d 61746578 		.ascii	"atexit0._fns[0] = _NULL; (var)->_atexit0._on_exit_a"
 7738      6974302E 
 7738      5F666E73 
 7738      5B305D20 
 7738      3D205F4E 
 7739 4cd0 7267732E 		.ascii	"rgs._fntypes = 0; (var)->_atexit0._on_exit_args._fn"
 7739      5F666E74 
 7739      79706573 
 7739      203D2030 
 7739      3B202876 
 7740 4d03 61726773 		.ascii	"args[0] = _NULL; (var)->_sig_func = _NULL; (var)->_"
 7740      5B305D20 
 7740      3D205F4E 
 7740      554C4C3B 
 7740      20287661 
 7741 4d36 5F73676C 		.ascii	"_sglue._next = _NULL; (var)->__sglue._niobs = 0; (v"
 7741      75652E5F 
 7741      6E657874 
 7741      203D205F 
 7741      4E554C4C 
 7742 4d69 6172292D 		.ascii	"ar)->__sglue._iobs = _NULL; memset(&(var)->__sf, 0,"
 7742      3E5F5F73 
 7742      676C7565 
 7742      2E5F696F 
 7742      6273203D 
 7743 4d9c 2073697A 		.ascii	" sizeof((var)->__sf)); }\000"
 7743      656F6628 
 7743      28766172 
 7743      292D3E5F 
 7743      5F736629 
 7744              	.LASF240:
 7745 4db5 5F5F4442 		.ascii	"__DBL_MANT_DIG__ 53\000"
 7745      4C5F4D41 
 7745      4E545F44 
 7745      49475F5F 
 7745      20353300 
 7746              	.LASF315:
 7747 4dc9 5F5F554C 		.ascii	"__ULFRACT_IBIT__ 0\000"
 7747      46524143 
 7747      545F4942 
 7747      49545F5F 
 7747      203000
 7748              	.LASF101:
 7749 4ddc 5F535953 		.ascii	"_SYS_STAT_H \000"
 7749      5F535441 
 7749      545F4820 
ARM GAS  /tmp/ccuKfveS.s 			page 191


 7749      00
 7750              	.LASF436:
 7751 4de9 5F5F4152 		.ascii	"__ARM_EABI__ 1\000"
 7751      4D5F4541 
 7751      42495F5F 
 7751      203100
 7752              	.LASF156:
 7753 4df8 5F5F494E 		.ascii	"__INT_LEAST64_TYPE__ long long int\000"
 7753      545F4C45 
 7753      41535436 
 7753      345F5459 
 7753      50455F5F 
 7754              	.LASF329:
 7755 4e1b 5F5F5341 		.ascii	"__SACCUM_FBIT__ 7\000"
 7755      4343554D 
 7755      5F464249 
 7755      545F5F20 
 7755      3700
 7756              		.ident	"GCC: (GNU Tools for ARM Embedded Processors) 4.7.4 20130613 (release) [ARM/embedded-4_7-br
ARM GAS  /tmp/ccuKfveS.s 			page 192


DEFINED SYMBOLS
                            *ABS*:00000000 syscall.c
     /tmp/ccuKfveS.s:48     .text.close:00000000 $t
     /tmp/ccuKfveS.s:53     .text.close:00000000 close
     /tmp/ccuKfveS.s:85     .text._close_r:00000000 $t
     /tmp/ccuKfveS.s:90     .text._close_r:00000000 _close_r
     /tmp/ccuKfveS.s:123    .bss.__env:00000000 __env
     /tmp/ccuKfveS.s:120    .bss.__env:00000000 $d
     /tmp/ccuKfveS.s:130    .data.environ:00000000 environ
     /tmp/ccuKfveS.s:127    .data.environ:00000000 $d
     /tmp/ccuKfveS.s:133    .text.execve:00000000 $t
     /tmp/ccuKfveS.s:138    .text.execve:00000000 execve
     /tmp/ccuKfveS.s:172    .text.execve:00000020 $d
     /tmp/ccuKfveS.s:177    .text.fork:00000000 $t
     /tmp/ccuKfveS.s:182    .text.fork:00000000 fork
     /tmp/ccuKfveS.s:209    .text.fork:00000014 $d
     /tmp/ccuKfveS.s:214    .text._fork_r:00000000 $t
     /tmp/ccuKfveS.s:219    .text._fork_r:00000000 _fork_r
     /tmp/ccuKfveS.s:248    .text.fstat:00000000 $t
     /tmp/ccuKfveS.s:253    .text.fstat:00000000 fstat
     /tmp/ccuKfveS.s:290    .text.getpid:00000000 $t
     /tmp/ccuKfveS.s:295    .text.getpid:00000000 getpid
     /tmp/ccuKfveS.s:318    .text.isatty:00000000 $t
     /tmp/ccuKfveS.s:323    .text.isatty:00000000 isatty
     /tmp/ccuKfveS.s:354    .text._isatty_r:00000000 $t
     /tmp/ccuKfveS.s:359    .text._isatty_r:00000000 _isatty_r
     /tmp/ccuKfveS.s:388    .text.kill:00000000 $t
     /tmp/ccuKfveS.s:393    .text.kill:00000000 kill
     /tmp/ccuKfveS.s:426    .text.kill:0000001c $d
     /tmp/ccuKfveS.s:431    .text.link:00000000 $t
     /tmp/ccuKfveS.s:436    .text.link:00000000 link
     /tmp/ccuKfveS.s:469    .text.link:0000001c $d
     /tmp/ccuKfveS.s:474    .text._link_r:00000000 $t
     /tmp/ccuKfveS.s:479    .text._link_r:00000000 _link_r
     /tmp/ccuKfveS.s:510    .text.lseek:00000000 $t
     /tmp/ccuKfveS.s:515    .text.lseek:00000000 lseek
     /tmp/ccuKfveS.s:545    .text._lseek_r:00000000 $t
     /tmp/ccuKfveS.s:550    .text._lseek_r:00000000 _lseek_r
     /tmp/ccuKfveS.s:584    .text.open:00000000 $t
     /tmp/ccuKfveS.s:589    .text.open:00000000 open
     /tmp/ccuKfveS.s:619    .text._open_r:00000000 $t
     /tmp/ccuKfveS.s:624    .text._open_r:00000000 _open_r
     /tmp/ccuKfveS.s:655    .text.read:00000000 $t
     /tmp/ccuKfveS.s:660    .text.read:00000000 read
     /tmp/ccuKfveS.s:693    .text._read_r:00000000 $t
     /tmp/ccuKfveS.s:698    .text._read_r:00000000 _read_r
     /tmp/ccuKfveS.s:729    .text.sbrk:00000000 $t
     /tmp/ccuKfveS.s:734    .text.sbrk:00000000 sbrk
     /tmp/ccuKfveS.s:782    .text.sbrk:00000034 $d
     /tmp/ccuKfveS.s:1225   .bss.heap_end.4468:00000000 heap_end.4468
     /tmp/ccuKfveS.s:788    .text._sbrk_r:00000000 $t
     /tmp/ccuKfveS.s:793    .text._sbrk_r:00000000 _sbrk_r
     /tmp/ccuKfveS.s:822    .text.stat:00000000 $t
     /tmp/ccuKfveS.s:827    .text.stat:00000000 stat
     /tmp/ccuKfveS.s:861    .text._stat_r:00000000 $t
     /tmp/ccuKfveS.s:866    .text._stat_r:00000000 _stat_r
     /tmp/ccuKfveS.s:896    .text._fstat_r:00000000 $t
ARM GAS  /tmp/ccuKfveS.s 			page 193


     /tmp/ccuKfveS.s:901    .text._fstat_r:00000000 _fstat_r
     /tmp/ccuKfveS.s:931    .text.times:00000000 $t
     /tmp/ccuKfveS.s:936    .text.times:00000000 times
     /tmp/ccuKfveS.s:965    .text.unlink:00000000 $t
     /tmp/ccuKfveS.s:970    .text.unlink:00000000 unlink
     /tmp/ccuKfveS.s:1002   .text.unlink:0000001c $d
     /tmp/ccuKfveS.s:1007   .text._unlink_r:00000000 $t
     /tmp/ccuKfveS.s:1012   .text._unlink_r:00000000 _unlink_r
     /tmp/ccuKfveS.s:1042   .text.wait:00000000 $t
     /tmp/ccuKfveS.s:1047   .text.wait:00000000 wait
     /tmp/ccuKfveS.s:1079   .text.wait:0000001c $d
     /tmp/ccuKfveS.s:1084   .text._wait_r:00000000 $t
     /tmp/ccuKfveS.s:1089   .text._wait_r:00000000 _wait_r
     /tmp/ccuKfveS.s:1119   .text.write:00000000 $t
     /tmp/ccuKfveS.s:1124   .text.write:00000000 write
     /tmp/ccuKfveS.s:1179   .text._write_r:00000000 $t
     /tmp/ccuKfveS.s:1184   .text._write_r:00000000 _write_r
     /tmp/ccuKfveS.s:1222   .bss.heap_end.4468:00000000 $d
                     .debug_frame:00000010 $d
                           .group:00000000 wm4.1.f1278402288c5169f387e8af663aceac
                           .group:00000000 wm4.errno.h.2.ba016d646105af6cad23be83630b6a3f
                           .group:00000000 wm4.newlib.h.8.a9901dc52d1357e3e94003403d43f8b5
                           .group:00000000 wm4.features.h.22.b72b3baab2bb2eab3661375590100b6b
                           .group:00000000 wm4.config.h.193.5fb8ef056cdff92dec3dee9552839d8c
                           .group:00000000 wm4._ansi.h.23.7aefdac4826acebbfc9f3822a0aeb14c
                           .group:00000000 wm4._default_types.h.6.5e12cd604db8ce00b62bb2f02708eaf3
                           .group:00000000 wm4.lock.h.2.9bc98482741e5e2a9450b12934a684ea
                           .group:00000000 wm4.stddef.h.349.31f4c5baff3fa2689010b32028da9c47
                           .group:00000000 wm4.reent.h.16.9e42f0e588b85e70b2bf6572af57ce64
                           .group:00000000 wm4.errno.h.14.84e5a50cdf375f3e6c7abc27b8e42963
                           .group:00000000 wm4.time.h.2.9857e62ad6ac99431e29d58067232314
                           .group:00000000 wm4.time.h.24.c499d4c1915694df17abb795fd34b719
                           .group:00000000 wm4.stddef.h.187.9e651b6b8b16e149c1353259404973ea
                           .group:00000000 wm4.types.h.23.0d949686bbcadd1621462d4fa1f884f9
                           .group:00000000 wm4.stddef.h.40.cf962ebbec441b3ac67502735f0765db
                           .group:00000000 wm4.types.h.2.e9cec8c90ab35f77d9f499e06ae02400
                           .group:00000000 wm4.types.h.80.1f2c84c0d57dd52dd9936095d9ac218e
                           .group:00000000 wm4.time.h.124.10ced469f846269cafc58b59c853e1bb
                           .group:00000000 wm4.stat.h.69.169a67369ef31f6ea38a12bc9ba4e5dd

UNDEFINED SYMBOLS
serial_send
errno
_end
