ARM GAS  /tmp/ccbcqdrp.s 			page 1


   1              		.cpu cortex-m0
   2              		.fpu softvfp
   3              		.eabi_attribute 20, 1	@ Tag_ABI_FP_denormal
   4              		.eabi_attribute 21, 1	@ Tag_ABI_FP_exceptions
   5              		.eabi_attribute 23, 3	@ Tag_ABI_FP_number_model
   6              		.eabi_attribute 24, 1	@ Tag_ABI_align8_needed
   7              		.eabi_attribute 25, 1	@ Tag_ABI_align8_preserved
   8              		.eabi_attribute 26, 1	@ Tag_ABI_enum_size
   9              		.eabi_attribute 30, 6	@ Tag_ABI_optimization_goals
  10              		.eabi_attribute 34, 0	@ Tag_CPU_unaligned_access
  11              		.eabi_attribute 18, 4	@ Tag_ABI_PCS_wchar_t
  12              		.file	"system_LPC11xx.c"
  13              	@ GNU C (GNU Tools for ARM Embedded Processors) version 4.7.4 20130613 (release) [ARM/embedded-4_7-
  14              	@	compiled by GNU C version 4.3.6, GMP version 4.3.2, MPFR version 2.4.2, MPC version 0.8.1
  15              	@ GGC heuristics: --param ggc-min-expand=100 --param ggc-min-heapsize=131072
  16              	@ options passed:  -I . -I /home/wrcooke/git/projects/arm_gcc/include
  17              	@ -imultilib armv6-m
  18              	@ -iprefix /opt/gcc-arm-none-eabi-4_7-2013q2/bin/../lib/gcc/arm-none-eabi/4.7.4/
  19              	@ -isysroot /opt/gcc-arm-none-eabi-4_7-2013q2/bin/../arm-none-eabi
  20              	@ -MD out/system_LPC11xx.d -MF out/system_LPC11xx.d -MP
  21              	@ -MQ out/system_LPC11xx.o -D__USES_INITFINI__
  22              	@ /home/wrcooke/git/projects/arm_gcc/src/system_LPC11xx.c -mcpu=cortex-m0
  23              	@ -mthumb -auxbase-strip out/system_LPC11xx.o -g -ggdb3 -O0 -Wall
  24              	@ -Wstrict-prototypes -Wextra -std=gnu99 -ffunction-sections
  25              	@ -fdata-sections -fverbose-asm
  26              	@ options enabled:  -fauto-inc-dec -fbranch-count-reg -fcommon
  27              	@ -fdata-sections -fdebug-types-section -fdelete-null-pointer-checks
  28              	@ -fdwarf2-cfi-asm -fearly-inlining -feliminate-unused-debug-types
  29              	@ -ffunction-cse -ffunction-sections -fgcse-lm -fgnu-runtime -fident
  30              	@ -finline-atomics -fira-hoist-pressure -fira-share-save-slots
  31              	@ -fira-share-spill-slots -fivopts -fkeep-static-consts
  32              	@ -fleading-underscore -fmath-errno -fmerge-debug-strings
  33              	@ -fmove-loop-invariants -fpeephole -fprefetch-loop-arrays
  34              	@ -freg-struct-return -fsched-critical-path-heuristic
  35              	@ -fsched-dep-count-heuristic -fsched-group-heuristic -fsched-interblock
  36              	@ -fsched-last-insn-heuristic -fsched-rank-heuristic -fsched-spec
  37              	@ -fsched-spec-insn-heuristic -fsched-stalled-insns-dep -fshow-column
  38              	@ -fsigned-zeros -fsplit-ivs-in-unroller -fstrict-volatile-bitfields
  39              	@ -ftrapping-math -ftree-cselim -ftree-forwprop -ftree-loop-if-convert
  40              	@ -ftree-loop-im -ftree-loop-ivcanon -ftree-loop-optimize
  41              	@ -ftree-parallelize-loops= -ftree-phiprop -ftree-pta -ftree-reassoc
  42              	@ -ftree-scev-cprop -ftree-slp-vectorize -ftree-vect-loop-version
  43              	@ -funit-at-a-time -fverbose-asm -fzero-initialized-in-bss -mlittle-endian
  44              	@ -msched-prolog -mthumb -mvectorize-with-neon-quad
  45              	
  46              		.text
  47              	.Ltext0:
  48              		.cfi_sections	.debug_frame
  49              		.global	SystemCoreClock
  50              		.section	.data.SystemCoreClock,"aw",%progbits
  51              		.align	2
  52              		.type	SystemCoreClock, %object
  53              		.size	SystemCoreClock, 4
  54              	SystemCoreClock:
  55 0000 006CDC02 		.word	48000000
  56              		.section	.text.SystemCoreClockUpdate,"ax",%progbits
  57              		.align	2
ARM GAS  /tmp/ccbcqdrp.s 			page 2


  58              		.global	SystemCoreClockUpdate
  59              		.code	16
  60              		.thumb_func
  61              		.type	SystemCoreClockUpdate, %function
  62              	SystemCoreClockUpdate:
  63              	.LFB33:
  64              		.file 1 "/home/wrcooke/git/projects/arm_gcc/src/system_LPC11xx.c"
   1:/home/wrcooke/git/projects/arm_gcc/src/system_LPC11xx.c **** /**************************************************************************//**
   2:/home/wrcooke/git/projects/arm_gcc/src/system_LPC11xx.c ****  * @file     system_<Device>.c
   3:/home/wrcooke/git/projects/arm_gcc/src/system_LPC11xx.c ****  * @brief    CMSIS Cortex-M# Device Peripheral Access Layer Source File for
   4:/home/wrcooke/git/projects/arm_gcc/src/system_LPC11xx.c ****  *           Device <Device>
   5:/home/wrcooke/git/projects/arm_gcc/src/system_LPC11xx.c ****  * @version  V3.01
   6:/home/wrcooke/git/projects/arm_gcc/src/system_LPC11xx.c ****  * @date     06. March 2012
   7:/home/wrcooke/git/projects/arm_gcc/src/system_LPC11xx.c ****  *
   8:/home/wrcooke/git/projects/arm_gcc/src/system_LPC11xx.c ****  * @note
   9:/home/wrcooke/git/projects/arm_gcc/src/system_LPC11xx.c ****  * Copyright (C) 2010-2012 ARM Limited. All rights reserved.
  10:/home/wrcooke/git/projects/arm_gcc/src/system_LPC11xx.c ****  *
  11:/home/wrcooke/git/projects/arm_gcc/src/system_LPC11xx.c ****  * @par
  12:/home/wrcooke/git/projects/arm_gcc/src/system_LPC11xx.c ****  * ARM Limited (ARM) is supplying this software for use with Cortex-M 
  13:/home/wrcooke/git/projects/arm_gcc/src/system_LPC11xx.c ****  * processor based microcontrollers.  This file can be freely distributed 
  14:/home/wrcooke/git/projects/arm_gcc/src/system_LPC11xx.c ****  * within development tools that are supporting such ARM based processors. 
  15:/home/wrcooke/git/projects/arm_gcc/src/system_LPC11xx.c ****  *
  16:/home/wrcooke/git/projects/arm_gcc/src/system_LPC11xx.c ****  * @par
  17:/home/wrcooke/git/projects/arm_gcc/src/system_LPC11xx.c ****  * THIS SOFTWARE IS PROVIDED "AS IS".  NO WARRANTIES, WHETHER EXPRESS, IMPLIED
  18:/home/wrcooke/git/projects/arm_gcc/src/system_LPC11xx.c ****  * OR STATUTORY, INCLUDING, BUT NOT LIMITED TO, IMPLIED WARRANTIES OF
  19:/home/wrcooke/git/projects/arm_gcc/src/system_LPC11xx.c ****  * MERCHANTABILITY AND FITNESS FOR A PARTICULAR PURPOSE APPLY TO THIS SOFTWARE.
  20:/home/wrcooke/git/projects/arm_gcc/src/system_LPC11xx.c ****  * ARM SHALL NOT, IN ANY CIRCUMSTANCES, BE LIABLE FOR SPECIAL, INCIDENTAL, OR
  21:/home/wrcooke/git/projects/arm_gcc/src/system_LPC11xx.c ****  * CONSEQUENTIAL DAMAGES, FOR ANY REASON WHATSOEVER.
  22:/home/wrcooke/git/projects/arm_gcc/src/system_LPC11xx.c ****  *
  23:/home/wrcooke/git/projects/arm_gcc/src/system_LPC11xx.c ****  ******************************************************************************/
  24:/home/wrcooke/git/projects/arm_gcc/src/system_LPC11xx.c **** 
  25:/home/wrcooke/git/projects/arm_gcc/src/system_LPC11xx.c **** 
  26:/home/wrcooke/git/projects/arm_gcc/src/system_LPC11xx.c **** #include <stdint.h>
  27:/home/wrcooke/git/projects/arm_gcc/src/system_LPC11xx.c **** #include "LPC11xx.h"
  28:/home/wrcooke/git/projects/arm_gcc/src/system_LPC11xx.c **** 
  29:/home/wrcooke/git/projects/arm_gcc/src/system_LPC11xx.c **** 
  30:/home/wrcooke/git/projects/arm_gcc/src/system_LPC11xx.c **** /*----------------------------------------------------------------------------
  31:/home/wrcooke/git/projects/arm_gcc/src/system_LPC11xx.c ****   DEFINES
  32:/home/wrcooke/git/projects/arm_gcc/src/system_LPC11xx.c ****  *----------------------------------------------------------------------------*/
  33:/home/wrcooke/git/projects/arm_gcc/src/system_LPC11xx.c ****     
  34:/home/wrcooke/git/projects/arm_gcc/src/system_LPC11xx.c **** /*----------------------------------------------------------------------------
  35:/home/wrcooke/git/projects/arm_gcc/src/system_LPC11xx.c ****   Define clocks
  36:/home/wrcooke/git/projects/arm_gcc/src/system_LPC11xx.c ****  *----------------------------------------------------------------------------*/
  37:/home/wrcooke/git/projects/arm_gcc/src/system_LPC11xx.c **** /* ToDo: add here your necessary defines for device initialization     
  38:/home/wrcooke/git/projects/arm_gcc/src/system_LPC11xx.c ****          following is an example for different system frequencies             */
  39:/home/wrcooke/git/projects/arm_gcc/src/system_LPC11xx.c **** #define __HSI             ( 6000000UL)
  40:/home/wrcooke/git/projects/arm_gcc/src/system_LPC11xx.c **** #define __XTAL            (12000000UL)    /* Oscillator frequency             */
  41:/home/wrcooke/git/projects/arm_gcc/src/system_LPC11xx.c **** #define __SYS_OSC_CLK     (    ___HSI)    /* Main oscillator frequency        */
  42:/home/wrcooke/git/projects/arm_gcc/src/system_LPC11xx.c **** 
  43:/home/wrcooke/git/projects/arm_gcc/src/system_LPC11xx.c **** //#define __SYSTEM_CLOCK    (4*__XTAL)
  44:/home/wrcooke/git/projects/arm_gcc/src/system_LPC11xx.c **** #define __SYSTEM_CLOCK      (4*__XTAL)
  45:/home/wrcooke/git/projects/arm_gcc/src/system_LPC11xx.c **** 
  46:/home/wrcooke/git/projects/arm_gcc/src/system_LPC11xx.c **** /*----------------------------------------------------------------------------
  47:/home/wrcooke/git/projects/arm_gcc/src/system_LPC11xx.c ****   Clock Variable definitions
  48:/home/wrcooke/git/projects/arm_gcc/src/system_LPC11xx.c ****  *----------------------------------------------------------------------------*/
  49:/home/wrcooke/git/projects/arm_gcc/src/system_LPC11xx.c **** /* ToDo: initialize SystemCoreClock with the system core clock frequency value
  50:/home/wrcooke/git/projects/arm_gcc/src/system_LPC11xx.c ****          achieved after system intitialization.
ARM GAS  /tmp/ccbcqdrp.s 			page 3


  51:/home/wrcooke/git/projects/arm_gcc/src/system_LPC11xx.c ****          This means system core clock frequency after call to SystemInit()    */
  52:/home/wrcooke/git/projects/arm_gcc/src/system_LPC11xx.c **** uint32_t SystemCoreClock = __SYSTEM_CLOCK;  /*!< System Clock Frequency (Core Clock)*/
  53:/home/wrcooke/git/projects/arm_gcc/src/system_LPC11xx.c **** 
  54:/home/wrcooke/git/projects/arm_gcc/src/system_LPC11xx.c **** 
  55:/home/wrcooke/git/projects/arm_gcc/src/system_LPC11xx.c **** /*----------------------------------------------------------------------------
  56:/home/wrcooke/git/projects/arm_gcc/src/system_LPC11xx.c ****   Clock functions
  57:/home/wrcooke/git/projects/arm_gcc/src/system_LPC11xx.c ****  *----------------------------------------------------------------------------*/
  58:/home/wrcooke/git/projects/arm_gcc/src/system_LPC11xx.c **** void SystemCoreClockUpdate (void)            /* Get Core Clock Frequency      */
  59:/home/wrcooke/git/projects/arm_gcc/src/system_LPC11xx.c **** {
  65              		.loc 1 59 0
  66              		.cfi_startproc
  67 0000 80B5     		push	{r7, lr}	@
  68              	.LCFI0:
  69              		.cfi_def_cfa_offset 8
  70              		.cfi_offset 7, -8
  71              		.cfi_offset 14, -4
  72 0002 00AF     		add	r7, sp, #0	@,,
  73              	.LCFI1:
  74              		.cfi_def_cfa_register 7
  60:/home/wrcooke/git/projects/arm_gcc/src/system_LPC11xx.c **** /* ToDo: add code to calculate the system frequency based upon the current
  61:/home/wrcooke/git/projects/arm_gcc/src/system_LPC11xx.c ****          register settings.
  62:/home/wrcooke/git/projects/arm_gcc/src/system_LPC11xx.c ****          This function can be used to retrieve the system core clock frequeny
  63:/home/wrcooke/git/projects/arm_gcc/src/system_LPC11xx.c ****          after user changed register sittings.                                */
  64:/home/wrcooke/git/projects/arm_gcc/src/system_LPC11xx.c ****   SystemCoreClock = __SYSTEM_CLOCK;
  75              		.loc 1 64 0
  76 0004 024B     		ldr	r3, .L2	@ tmp134,
  77 0006 034A     		ldr	r2, .L2+4	@ tmp135,
  78 0008 1A60     		str	r2, [r3]	@ tmp135, SystemCoreClock
  65:/home/wrcooke/git/projects/arm_gcc/src/system_LPC11xx.c **** }
  79              		.loc 1 65 0
  80 000a BD46     		mov	sp, r7	@,
  81              		@ sp needed for prologue	@
  82 000c 80BD     		pop	{r7, pc}
  83              	.L3:
  84 000e C046     		.align	2
  85              	.L2:
  86 0010 00000000 		.word	SystemCoreClock
  87 0014 006CDC02 		.word	48000000
  88              		.cfi_endproc
  89              	.LFE33:
  90              		.size	SystemCoreClockUpdate, .-SystemCoreClockUpdate
  91              		.section	.text.SystemInit,"ax",%progbits
  92              		.align	2
  93              		.global	SystemInit
  94              		.code	16
  95              		.thumb_func
  96              		.type	SystemInit, %function
  97              	SystemInit:
  98              	.LFB34:
  66:/home/wrcooke/git/projects/arm_gcc/src/system_LPC11xx.c **** 
  67:/home/wrcooke/git/projects/arm_gcc/src/system_LPC11xx.c **** /**
  68:/home/wrcooke/git/projects/arm_gcc/src/system_LPC11xx.c ****  * Initialize the system
  69:/home/wrcooke/git/projects/arm_gcc/src/system_LPC11xx.c ****  *
  70:/home/wrcooke/git/projects/arm_gcc/src/system_LPC11xx.c ****  * @param  none
  71:/home/wrcooke/git/projects/arm_gcc/src/system_LPC11xx.c ****  * @return none
  72:/home/wrcooke/git/projects/arm_gcc/src/system_LPC11xx.c ****  *
  73:/home/wrcooke/git/projects/arm_gcc/src/system_LPC11xx.c ****  * @brief  Setup the microcontroller system.
ARM GAS  /tmp/ccbcqdrp.s 			page 4


  74:/home/wrcooke/git/projects/arm_gcc/src/system_LPC11xx.c ****  *         Initialize the System.
  75:/home/wrcooke/git/projects/arm_gcc/src/system_LPC11xx.c ****  */
  76:/home/wrcooke/git/projects/arm_gcc/src/system_LPC11xx.c **** void SystemInit (void)
  77:/home/wrcooke/git/projects/arm_gcc/src/system_LPC11xx.c **** {
  99              		.loc 1 77 0
 100              		.cfi_startproc
 101 0000 80B5     		push	{r7, lr}	@
 102              	.LCFI2:
 103              		.cfi_def_cfa_offset 8
 104              		.cfi_offset 7, -8
 105              		.cfi_offset 14, -4
 106 0002 00AF     		add	r7, sp, #0	@,,
 107              	.LCFI3:
 108              		.cfi_def_cfa_register 7
  78:/home/wrcooke/git/projects/arm_gcc/src/system_LPC11xx.c **** /* ToDo: add code to initialize the system
  79:/home/wrcooke/git/projects/arm_gcc/src/system_LPC11xx.c ****          do not use global variables because this function is called before
  80:/home/wrcooke/git/projects/arm_gcc/src/system_LPC11xx.c ****          reaching pre-main. RW section maybe overwritten afterwards.          */
  81:/home/wrcooke/git/projects/arm_gcc/src/system_LPC11xx.c ****   SystemCoreClock = __SYSTEM_CLOCK;
 109              		.loc 1 81 0
 110 0004 024B     		ldr	r3, .L5	@ tmp134,
 111 0006 034A     		ldr	r2, .L5+4	@ tmp135,
 112 0008 1A60     		str	r2, [r3]	@ tmp135, SystemCoreClock
  82:/home/wrcooke/git/projects/arm_gcc/src/system_LPC11xx.c **** }
 113              		.loc 1 82 0
 114 000a BD46     		mov	sp, r7	@,
 115              		@ sp needed for prologue	@
 116 000c 80BD     		pop	{r7, pc}
 117              	.L6:
 118 000e C046     		.align	2
 119              	.L5:
 120 0010 00000000 		.word	SystemCoreClock
 121 0014 006CDC02 		.word	48000000
 122              		.cfi_endproc
 123              	.LFE34:
 124              		.size	SystemInit, .-SystemInit
 125              		.text
 126              	.Letext0:
 127              		.file 2 "/opt/gcc-arm-none-eabi-4_7-2013q2/bin/../lib/gcc/arm-none-eabi/4.7.4/../../../../arm-none