ARM GAS  /tmp/ccCzidv9.s 			page 1


   1              		.cpu cortex-m0
   2              		.fpu softvfp
   3              		.eabi_attribute 20, 1	@ Tag_ABI_FP_denormal
   4              		.eabi_attribute 21, 1	@ Tag_ABI_FP_exceptions
   5              		.eabi_attribute 23, 3	@ Tag_ABI_FP_number_model
   6              		.eabi_attribute 24, 1	@ Tag_ABI_align8_needed
   7              		.eabi_attribute 25, 1	@ Tag_ABI_align8_preserved
   8              		.eabi_attribute 26, 1	@ Tag_ABI_enum_size
   9              		.eabi_attribute 30, 6	@ Tag_ABI_optimization_goals
  10              		.eabi_attribute 34, 0	@ Tag_CPU_unaligned_access
  11              		.eabi_attribute 18, 4	@ Tag_ABI_PCS_wchar_t
  12              		.file	"timers.c"
  13              	@ GNU C (GNU Tools for ARM Embedded Processors) version 4.7.4 20130613 (release) [ARM/embedded-4_7-
  14              	@	compiled by GNU C version 4.3.6, GMP version 4.3.2, MPFR version 2.4.2, MPC version 0.8.1
  15              	@ GGC heuristics: --param ggc-min-expand=100 --param ggc-min-heapsize=131072
  16              	@ options passed:  -I . -I /home/wrcooke/git/projects/arm_gcc/include
  17              	@ -imultilib armv6-m
  18              	@ -iprefix /opt/gcc-arm-none-eabi-4_7-2013q2/bin/../lib/gcc/arm-none-eabi/4.7.4/
  19              	@ -isysroot /opt/gcc-arm-none-eabi-4_7-2013q2/bin/../arm-none-eabi
  20              	@ -MD out/timers.d -MF out/timers.d -MP -MQ out/timers.o
  21              	@ -D__USES_INITFINI__ timers.c -mcpu=cortex-m0 -mthumb
  22              	@ -auxbase-strip out/timers.o -g -ggdb3 -O0 -Wall -Wstrict-prototypes
  23              	@ -Wextra -std=gnu99 -ffunction-sections -fdata-sections -fverbose-asm
  24              	@ options enabled:  -fauto-inc-dec -fbranch-count-reg -fcommon
  25              	@ -fdata-sections -fdebug-types-section -fdelete-null-pointer-checks
  26              	@ -fdwarf2-cfi-asm -fearly-inlining -feliminate-unused-debug-types
  27              	@ -ffunction-cse -ffunction-sections -fgcse-lm -fgnu-runtime -fident
  28              	@ -finline-atomics -fira-hoist-pressure -fira-share-save-slots
  29              	@ -fira-share-spill-slots -fivopts -fkeep-static-consts
  30              	@ -fleading-underscore -fmath-errno -fmerge-debug-strings
  31              	@ -fmove-loop-invariants -fpeephole -fprefetch-loop-arrays
  32              	@ -freg-struct-return -fsched-critical-path-heuristic
  33              	@ -fsched-dep-count-heuristic -fsched-group-heuristic -fsched-interblock
  34              	@ -fsched-last-insn-heuristic -fsched-rank-heuristic -fsched-spec
  35              	@ -fsched-spec-insn-heuristic -fsched-stalled-insns-dep -fshow-column
  36              	@ -fsigned-zeros -fsplit-ivs-in-unroller -fstrict-volatile-bitfields
  37              	@ -ftrapping-math -ftree-cselim -ftree-forwprop -ftree-loop-if-convert
  38              	@ -ftree-loop-im -ftree-loop-ivcanon -ftree-loop-optimize
  39              	@ -ftree-parallelize-loops= -ftree-phiprop -ftree-pta -ftree-reassoc
  40              	@ -ftree-scev-cprop -ftree-slp-vectorize -ftree-vect-loop-version
  41              	@ -funit-at-a-time -fverbose-asm -fzero-initialized-in-bss -mlittle-endian
  42              	@ -msched-prolog -mthumb -mvectorize-with-neon-quad
  43              	
  44              		.text
  45              	.Ltext0:
  46              		.cfi_sections	.debug_frame
  47              		.section	.text.NVIC_EnableIRQ,"ax",%progbits
  48              		.align	2
  49              		.code	16
  50              		.thumb_func
  51              		.type	NVIC_EnableIRQ, %function
  52              	NVIC_EnableIRQ:
  53              	.LFB24:
  54              		.file 1 "/home/wrcooke/git/projects/arm_gcc/include/core_cm0.h"
   1:/home/wrcooke/git/projects/arm_gcc/include/core_cm0.h **** /**************************************************************************//**
   2:/home/wrcooke/git/projects/arm_gcc/include/core_cm0.h ****  * @file     core_cm0.h
   3:/home/wrcooke/git/projects/arm_gcc/include/core_cm0.h ****  * @brief    CMSIS Cortex-M0 Core Peripheral Access Layer Header File
ARM GAS  /tmp/ccCzidv9.s 			page 2


   4:/home/wrcooke/git/projects/arm_gcc/include/core_cm0.h ****  * @version  V3.01
   5:/home/wrcooke/git/projects/arm_gcc/include/core_cm0.h ****  * @date     13. March 2012
   6:/home/wrcooke/git/projects/arm_gcc/include/core_cm0.h ****  *
   7:/home/wrcooke/git/projects/arm_gcc/include/core_cm0.h ****  * @note
   8:/home/wrcooke/git/projects/arm_gcc/include/core_cm0.h ****  * Copyright (C) 2009-2012 ARM Limited. All rights reserved.
   9:/home/wrcooke/git/projects/arm_gcc/include/core_cm0.h ****  *
  10:/home/wrcooke/git/projects/arm_gcc/include/core_cm0.h ****  * @par
  11:/home/wrcooke/git/projects/arm_gcc/include/core_cm0.h ****  * ARM Limited (ARM) is supplying this software for use with Cortex-M
  12:/home/wrcooke/git/projects/arm_gcc/include/core_cm0.h ****  * processor based microcontrollers.  This file can be freely distributed
  13:/home/wrcooke/git/projects/arm_gcc/include/core_cm0.h ****  * within development tools that are supporting such ARM based processors.
  14:/home/wrcooke/git/projects/arm_gcc/include/core_cm0.h ****  *
  15:/home/wrcooke/git/projects/arm_gcc/include/core_cm0.h ****  * @par
  16:/home/wrcooke/git/projects/arm_gcc/include/core_cm0.h ****  * THIS SOFTWARE IS PROVIDED "AS IS".  NO WARRANTIES, WHETHER EXPRESS, IMPLIED
  17:/home/wrcooke/git/projects/arm_gcc/include/core_cm0.h ****  * OR STATUTORY, INCLUDING, BUT NOT LIMITED TO, IMPLIED WARRANTIES OF
  18:/home/wrcooke/git/projects/arm_gcc/include/core_cm0.h ****  * MERCHANTABILITY AND FITNESS FOR A PARTICULAR PURPOSE APPLY TO THIS SOFTWARE.
  19:/home/wrcooke/git/projects/arm_gcc/include/core_cm0.h ****  * ARM SHALL NOT, IN ANY CIRCUMSTANCES, BE LIABLE FOR SPECIAL, INCIDENTAL, OR
  20:/home/wrcooke/git/projects/arm_gcc/include/core_cm0.h ****  * CONSEQUENTIAL DAMAGES, FOR ANY REASON WHATSOEVER.
  21:/home/wrcooke/git/projects/arm_gcc/include/core_cm0.h ****  *
  22:/home/wrcooke/git/projects/arm_gcc/include/core_cm0.h ****  ******************************************************************************/
  23:/home/wrcooke/git/projects/arm_gcc/include/core_cm0.h **** #if defined ( __ICCARM__ )
  24:/home/wrcooke/git/projects/arm_gcc/include/core_cm0.h ****  #pragma system_include  /* treat file as system include file for MISRA check */
  25:/home/wrcooke/git/projects/arm_gcc/include/core_cm0.h **** #endif
  26:/home/wrcooke/git/projects/arm_gcc/include/core_cm0.h **** 
  27:/home/wrcooke/git/projects/arm_gcc/include/core_cm0.h **** #ifdef __cplusplus
  28:/home/wrcooke/git/projects/arm_gcc/include/core_cm0.h ****  extern "C" {
  29:/home/wrcooke/git/projects/arm_gcc/include/core_cm0.h **** #endif
  30:/home/wrcooke/git/projects/arm_gcc/include/core_cm0.h **** 
  31:/home/wrcooke/git/projects/arm_gcc/include/core_cm0.h **** #ifndef __CORE_CM0_H_GENERIC
  32:/home/wrcooke/git/projects/arm_gcc/include/core_cm0.h **** #define __CORE_CM0_H_GENERIC
  33:/home/wrcooke/git/projects/arm_gcc/include/core_cm0.h **** 
  34:/home/wrcooke/git/projects/arm_gcc/include/core_cm0.h **** /** \page CMSIS_MISRA_Exceptions  MISRA-C:2004 Compliance Exceptions
  35:/home/wrcooke/git/projects/arm_gcc/include/core_cm0.h ****   CMSIS violates the following MISRA-C:2004 rules:
  36:/home/wrcooke/git/projects/arm_gcc/include/core_cm0.h **** 
  37:/home/wrcooke/git/projects/arm_gcc/include/core_cm0.h ****    \li Required Rule 8.5, object/function definition in header file.<br>
  38:/home/wrcooke/git/projects/arm_gcc/include/core_cm0.h ****      Function definitions in header files are used to allow 'inlining'.
  39:/home/wrcooke/git/projects/arm_gcc/include/core_cm0.h **** 
  40:/home/wrcooke/git/projects/arm_gcc/include/core_cm0.h ****    \li Required Rule 18.4, declaration of union type or object of union type: '{...}'.<br>
  41:/home/wrcooke/git/projects/arm_gcc/include/core_cm0.h ****      Unions are used for effective representation of core registers.
  42:/home/wrcooke/git/projects/arm_gcc/include/core_cm0.h **** 
  43:/home/wrcooke/git/projects/arm_gcc/include/core_cm0.h ****    \li Advisory Rule 19.7, Function-like macro defined.<br>
  44:/home/wrcooke/git/projects/arm_gcc/include/core_cm0.h ****      Function-like macros are used to allow more efficient code.
  45:/home/wrcooke/git/projects/arm_gcc/include/core_cm0.h ****  */
  46:/home/wrcooke/git/projects/arm_gcc/include/core_cm0.h **** 
  47:/home/wrcooke/git/projects/arm_gcc/include/core_cm0.h **** 
  48:/home/wrcooke/git/projects/arm_gcc/include/core_cm0.h **** /*******************************************************************************
  49:/home/wrcooke/git/projects/arm_gcc/include/core_cm0.h ****  *                 CMSIS definitions
  50:/home/wrcooke/git/projects/arm_gcc/include/core_cm0.h ****  ******************************************************************************/
  51:/home/wrcooke/git/projects/arm_gcc/include/core_cm0.h **** /** \ingroup Cortex_M0
  52:/home/wrcooke/git/projects/arm_gcc/include/core_cm0.h ****   @{
  53:/home/wrcooke/git/projects/arm_gcc/include/core_cm0.h ****  */
  54:/home/wrcooke/git/projects/arm_gcc/include/core_cm0.h **** 
  55:/home/wrcooke/git/projects/arm_gcc/include/core_cm0.h **** /*  CMSIS CM0 definitions */
  56:/home/wrcooke/git/projects/arm_gcc/include/core_cm0.h **** #define __CM0_CMSIS_VERSION_MAIN  (0x03)                                   /*!< [31:16] CMSIS HAL m
  57:/home/wrcooke/git/projects/arm_gcc/include/core_cm0.h **** #define __CM0_CMSIS_VERSION_SUB   (0x01)                                   /*!< [15:0]  CMSIS HAL s
  58:/home/wrcooke/git/projects/arm_gcc/include/core_cm0.h **** #define __CM0_CMSIS_VERSION       ((__CM0_CMSIS_VERSION_MAIN << 16) | \
  59:/home/wrcooke/git/projects/arm_gcc/include/core_cm0.h ****                                     __CM0_CMSIS_VERSION_SUB          )     /*!< CMSIS HAL version n
  60:/home/wrcooke/git/projects/arm_gcc/include/core_cm0.h **** 
ARM GAS  /tmp/ccCzidv9.s 			page 3


  61:/home/wrcooke/git/projects/arm_gcc/include/core_cm0.h **** #define __CORTEX_M                (0x00)                                   /*!< Cortex-M Core      
  62:/home/wrcooke/git/projects/arm_gcc/include/core_cm0.h **** 
  63:/home/wrcooke/git/projects/arm_gcc/include/core_cm0.h **** 
  64:/home/wrcooke/git/projects/arm_gcc/include/core_cm0.h **** #if   defined ( __CC_ARM )
  65:/home/wrcooke/git/projects/arm_gcc/include/core_cm0.h ****   #define __ASM            __asm                                      /*!< asm keyword for ARM Comp
  66:/home/wrcooke/git/projects/arm_gcc/include/core_cm0.h ****   #define __INLINE         __inline                                   /*!< inline keyword for ARM C
  67:/home/wrcooke/git/projects/arm_gcc/include/core_cm0.h ****   #define __STATIC_INLINE  static __inline
  68:/home/wrcooke/git/projects/arm_gcc/include/core_cm0.h **** 
  69:/home/wrcooke/git/projects/arm_gcc/include/core_cm0.h **** #elif defined ( __ICCARM__ )
  70:/home/wrcooke/git/projects/arm_gcc/include/core_cm0.h ****   #define __ASM            __asm                                      /*!< asm keyword for IAR Comp
  71:/home/wrcooke/git/projects/arm_gcc/include/core_cm0.h ****   #define __INLINE         inline                                     /*!< inline keyword for IAR C
  72:/home/wrcooke/git/projects/arm_gcc/include/core_cm0.h ****   #define __STATIC_INLINE  static inline
  73:/home/wrcooke/git/projects/arm_gcc/include/core_cm0.h **** 
  74:/home/wrcooke/git/projects/arm_gcc/include/core_cm0.h **** #elif defined ( __GNUC__ )
  75:/home/wrcooke/git/projects/arm_gcc/include/core_cm0.h ****   #define __ASM            __asm                                      /*!< asm keyword for GNU Comp
  76:/home/wrcooke/git/projects/arm_gcc/include/core_cm0.h ****   #define __INLINE         inline                                     /*!< inline keyword for GNU C
  77:/home/wrcooke/git/projects/arm_gcc/include/core_cm0.h ****   #define __STATIC_INLINE  static inline
  78:/home/wrcooke/git/projects/arm_gcc/include/core_cm0.h **** 
  79:/home/wrcooke/git/projects/arm_gcc/include/core_cm0.h **** #elif defined ( __TASKING__ )
  80:/home/wrcooke/git/projects/arm_gcc/include/core_cm0.h ****   #define __ASM            __asm                                      /*!< asm keyword for TASKING 
  81:/home/wrcooke/git/projects/arm_gcc/include/core_cm0.h ****   #define __INLINE         inline                                     /*!< inline keyword for TASKI
  82:/home/wrcooke/git/projects/arm_gcc/include/core_cm0.h ****   #define __STATIC_INLINE  static inline
  83:/home/wrcooke/git/projects/arm_gcc/include/core_cm0.h **** 
  84:/home/wrcooke/git/projects/arm_gcc/include/core_cm0.h **** #endif
  85:/home/wrcooke/git/projects/arm_gcc/include/core_cm0.h **** 
  86:/home/wrcooke/git/projects/arm_gcc/include/core_cm0.h **** /** __FPU_USED indicates whether an FPU is used or not. This core does not support an FPU at all
  87:/home/wrcooke/git/projects/arm_gcc/include/core_cm0.h **** */
  88:/home/wrcooke/git/projects/arm_gcc/include/core_cm0.h **** #define __FPU_USED       0
  89:/home/wrcooke/git/projects/arm_gcc/include/core_cm0.h **** 
  90:/home/wrcooke/git/projects/arm_gcc/include/core_cm0.h **** #if defined ( __CC_ARM )
  91:/home/wrcooke/git/projects/arm_gcc/include/core_cm0.h ****   #if defined __TARGET_FPU_VFP
  92:/home/wrcooke/git/projects/arm_gcc/include/core_cm0.h ****     #warning "Compiler generates FPU instructions for a device without an FPU (check __FPU_PRESENT)
  93:/home/wrcooke/git/projects/arm_gcc/include/core_cm0.h ****   #endif
  94:/home/wrcooke/git/projects/arm_gcc/include/core_cm0.h **** 
  95:/home/wrcooke/git/projects/arm_gcc/include/core_cm0.h **** #elif defined ( __ICCARM__ )
  96:/home/wrcooke/git/projects/arm_gcc/include/core_cm0.h ****   #if defined __ARMVFP__
  97:/home/wrcooke/git/projects/arm_gcc/include/core_cm0.h ****     #warning "Compiler generates FPU instructions for a device without an FPU (check __FPU_PRESENT)
  98:/home/wrcooke/git/projects/arm_gcc/include/core_cm0.h ****   #endif
  99:/home/wrcooke/git/projects/arm_gcc/include/core_cm0.h **** 
 100:/home/wrcooke/git/projects/arm_gcc/include/core_cm0.h **** #elif defined ( __GNUC__ )
 101:/home/wrcooke/git/projects/arm_gcc/include/core_cm0.h ****   #if defined (__VFP_FP__) && !defined(__SOFTFP__)
 102:/home/wrcooke/git/projects/arm_gcc/include/core_cm0.h ****     #warning "Compiler generates FPU instructions for a device without an FPU (check __FPU_PRESENT)
 103:/home/wrcooke/git/projects/arm_gcc/include/core_cm0.h ****   #endif
 104:/home/wrcooke/git/projects/arm_gcc/include/core_cm0.h **** 
 105:/home/wrcooke/git/projects/arm_gcc/include/core_cm0.h **** #elif defined ( __TASKING__ )
 106:/home/wrcooke/git/projects/arm_gcc/include/core_cm0.h ****   #if defined __FPU_VFP__
 107:/home/wrcooke/git/projects/arm_gcc/include/core_cm0.h ****     #error "Compiler generates FPU instructions for a device without an FPU (check __FPU_PRESENT)"
 108:/home/wrcooke/git/projects/arm_gcc/include/core_cm0.h ****   #endif
 109:/home/wrcooke/git/projects/arm_gcc/include/core_cm0.h **** #endif
 110:/home/wrcooke/git/projects/arm_gcc/include/core_cm0.h **** 
 111:/home/wrcooke/git/projects/arm_gcc/include/core_cm0.h **** #include <stdint.h>                      /* standard types definitions                      */
 112:/home/wrcooke/git/projects/arm_gcc/include/core_cm0.h **** #include "core_cmInstr.h"                /* Core Instruction Access                         */
 113:/home/wrcooke/git/projects/arm_gcc/include/core_cm0.h **** #include "core_cmFunc.h"                 /* Core Function Access                            */
 114:/home/wrcooke/git/projects/arm_gcc/include/core_cm0.h **** 
 115:/home/wrcooke/git/projects/arm_gcc/include/core_cm0.h **** #endif /* __CORE_CM0_H_GENERIC */
 116:/home/wrcooke/git/projects/arm_gcc/include/core_cm0.h **** 
 117:/home/wrcooke/git/projects/arm_gcc/include/core_cm0.h **** #ifndef __CMSIS_GENERIC
ARM GAS  /tmp/ccCzidv9.s 			page 4


 118:/home/wrcooke/git/projects/arm_gcc/include/core_cm0.h **** 
 119:/home/wrcooke/git/projects/arm_gcc/include/core_cm0.h **** #ifndef __CORE_CM0_H_DEPENDANT
 120:/home/wrcooke/git/projects/arm_gcc/include/core_cm0.h **** #define __CORE_CM0_H_DEPENDANT
 121:/home/wrcooke/git/projects/arm_gcc/include/core_cm0.h **** 
 122:/home/wrcooke/git/projects/arm_gcc/include/core_cm0.h **** /* check device defines and use defaults */
 123:/home/wrcooke/git/projects/arm_gcc/include/core_cm0.h **** #if defined __CHECK_DEVICE_DEFINES
 124:/home/wrcooke/git/projects/arm_gcc/include/core_cm0.h ****   #ifndef __CM0_REV
 125:/home/wrcooke/git/projects/arm_gcc/include/core_cm0.h ****     #define __CM0_REV               0x0000
 126:/home/wrcooke/git/projects/arm_gcc/include/core_cm0.h ****     #warning "__CM0_REV not defined in device header file; using default!"
 127:/home/wrcooke/git/projects/arm_gcc/include/core_cm0.h ****   #endif
 128:/home/wrcooke/git/projects/arm_gcc/include/core_cm0.h **** 
 129:/home/wrcooke/git/projects/arm_gcc/include/core_cm0.h ****   #ifndef __NVIC_PRIO_BITS
 130:/home/wrcooke/git/projects/arm_gcc/include/core_cm0.h ****     #define __NVIC_PRIO_BITS          2
 131:/home/wrcooke/git/projects/arm_gcc/include/core_cm0.h ****     #warning "__NVIC_PRIO_BITS not defined in device header file; using default!"
 132:/home/wrcooke/git/projects/arm_gcc/include/core_cm0.h ****   #endif
 133:/home/wrcooke/git/projects/arm_gcc/include/core_cm0.h **** 
 134:/home/wrcooke/git/projects/arm_gcc/include/core_cm0.h ****   #ifndef __Vendor_SysTickConfig
 135:/home/wrcooke/git/projects/arm_gcc/include/core_cm0.h ****     #define __Vendor_SysTickConfig    0
 136:/home/wrcooke/git/projects/arm_gcc/include/core_cm0.h ****     #warning "__Vendor_SysTickConfig not defined in device header file; using default!"
 137:/home/wrcooke/git/projects/arm_gcc/include/core_cm0.h ****   #endif
 138:/home/wrcooke/git/projects/arm_gcc/include/core_cm0.h **** #endif
 139:/home/wrcooke/git/projects/arm_gcc/include/core_cm0.h **** 
 140:/home/wrcooke/git/projects/arm_gcc/include/core_cm0.h **** /* IO definitions (access restrictions to peripheral registers) */
 141:/home/wrcooke/git/projects/arm_gcc/include/core_cm0.h **** /**
 142:/home/wrcooke/git/projects/arm_gcc/include/core_cm0.h ****     \defgroup CMSIS_glob_defs CMSIS Global Defines
 143:/home/wrcooke/git/projects/arm_gcc/include/core_cm0.h **** 
 144:/home/wrcooke/git/projects/arm_gcc/include/core_cm0.h ****     <strong>IO Type Qualifiers</strong> are used
 145:/home/wrcooke/git/projects/arm_gcc/include/core_cm0.h ****     \li to specify the access to peripheral variables.
 146:/home/wrcooke/git/projects/arm_gcc/include/core_cm0.h ****     \li for automatic generation of peripheral register debug information.
 147:/home/wrcooke/git/projects/arm_gcc/include/core_cm0.h **** */
 148:/home/wrcooke/git/projects/arm_gcc/include/core_cm0.h **** #ifdef __cplusplus
 149:/home/wrcooke/git/projects/arm_gcc/include/core_cm0.h ****   #define   __I     volatile             /*!< Defines 'read only' permissions                 */
 150:/home/wrcooke/git/projects/arm_gcc/include/core_cm0.h **** #else
 151:/home/wrcooke/git/projects/arm_gcc/include/core_cm0.h ****   #define   __I     volatile const       /*!< Defines 'read only' permissions                 */
 152:/home/wrcooke/git/projects/arm_gcc/include/core_cm0.h **** #endif
 153:/home/wrcooke/git/projects/arm_gcc/include/core_cm0.h **** #define     __O     volatile             /*!< Defines 'write only' permissions                */
 154:/home/wrcooke/git/projects/arm_gcc/include/core_cm0.h **** #define     __IO    volatile             /*!< Defines 'read / write' permissions              */
 155:/home/wrcooke/git/projects/arm_gcc/include/core_cm0.h **** 
 156:/home/wrcooke/git/projects/arm_gcc/include/core_cm0.h **** /*@} end of group Cortex_M0 */
 157:/home/wrcooke/git/projects/arm_gcc/include/core_cm0.h **** 
 158:/home/wrcooke/git/projects/arm_gcc/include/core_cm0.h **** 
 159:/home/wrcooke/git/projects/arm_gcc/include/core_cm0.h **** 
 160:/home/wrcooke/git/projects/arm_gcc/include/core_cm0.h **** /*******************************************************************************
 161:/home/wrcooke/git/projects/arm_gcc/include/core_cm0.h ****  *                 Register Abstraction
 162:/home/wrcooke/git/projects/arm_gcc/include/core_cm0.h ****   Core Register contain:
 163:/home/wrcooke/git/projects/arm_gcc/include/core_cm0.h ****   - Core Register
 164:/home/wrcooke/git/projects/arm_gcc/include/core_cm0.h ****   - Core NVIC Register
 165:/home/wrcooke/git/projects/arm_gcc/include/core_cm0.h ****   - Core SCB Register
 166:/home/wrcooke/git/projects/arm_gcc/include/core_cm0.h ****   - Core SysTick Register
 167:/home/wrcooke/git/projects/arm_gcc/include/core_cm0.h ****  ******************************************************************************/
 168:/home/wrcooke/git/projects/arm_gcc/include/core_cm0.h **** /** \defgroup CMSIS_core_register Defines and Type Definitions
 169:/home/wrcooke/git/projects/arm_gcc/include/core_cm0.h ****     \brief Type definitions and defines for Cortex-M processor based devices.
 170:/home/wrcooke/git/projects/arm_gcc/include/core_cm0.h **** */
 171:/home/wrcooke/git/projects/arm_gcc/include/core_cm0.h **** 
 172:/home/wrcooke/git/projects/arm_gcc/include/core_cm0.h **** /** \ingroup    CMSIS_core_register
 173:/home/wrcooke/git/projects/arm_gcc/include/core_cm0.h ****     \defgroup   CMSIS_CORE  Status and Control Registers
 174:/home/wrcooke/git/projects/arm_gcc/include/core_cm0.h ****     \brief  Core Register type definitions.
ARM GAS  /tmp/ccCzidv9.s 			page 5


 175:/home/wrcooke/git/projects/arm_gcc/include/core_cm0.h ****   @{
 176:/home/wrcooke/git/projects/arm_gcc/include/core_cm0.h ****  */
 177:/home/wrcooke/git/projects/arm_gcc/include/core_cm0.h **** 
 178:/home/wrcooke/git/projects/arm_gcc/include/core_cm0.h **** /** \brief  Union type to access the Application Program Status Register (APSR).
 179:/home/wrcooke/git/projects/arm_gcc/include/core_cm0.h ****  */
 180:/home/wrcooke/git/projects/arm_gcc/include/core_cm0.h **** typedef union
 181:/home/wrcooke/git/projects/arm_gcc/include/core_cm0.h **** {
 182:/home/wrcooke/git/projects/arm_gcc/include/core_cm0.h ****   struct
 183:/home/wrcooke/git/projects/arm_gcc/include/core_cm0.h ****   {
 184:/home/wrcooke/git/projects/arm_gcc/include/core_cm0.h **** #if (__CORTEX_M != 0x04)
 185:/home/wrcooke/git/projects/arm_gcc/include/core_cm0.h ****     uint32_t _reserved0:27;              /*!< bit:  0..26  Reserved                           */
 186:/home/wrcooke/git/projects/arm_gcc/include/core_cm0.h **** #else
 187:/home/wrcooke/git/projects/arm_gcc/include/core_cm0.h ****     uint32_t _reserved0:16;              /*!< bit:  0..15  Reserved                           */
 188:/home/wrcooke/git/projects/arm_gcc/include/core_cm0.h ****     uint32_t GE:4;                       /*!< bit: 16..19  Greater than or Equal flags        */
 189:/home/wrcooke/git/projects/arm_gcc/include/core_cm0.h ****     uint32_t _reserved1:7;               /*!< bit: 20..26  Reserved                           */
 190:/home/wrcooke/git/projects/arm_gcc/include/core_cm0.h **** #endif
 191:/home/wrcooke/git/projects/arm_gcc/include/core_cm0.h ****     uint32_t Q:1;                        /*!< bit:     27  Saturation condition flag          */
 192:/home/wrcooke/git/projects/arm_gcc/include/core_cm0.h ****     uint32_t V:1;                        /*!< bit:     28  Overflow condition code flag       */
 193:/home/wrcooke/git/projects/arm_gcc/include/core_cm0.h ****     uint32_t C:1;                        /*!< bit:     29  Carry condition code flag          */
 194:/home/wrcooke/git/projects/arm_gcc/include/core_cm0.h ****     uint32_t Z:1;                        /*!< bit:     30  Zero condition code flag           */
 195:/home/wrcooke/git/projects/arm_gcc/include/core_cm0.h ****     uint32_t N:1;                        /*!< bit:     31  Negative condition code flag       */
 196:/home/wrcooke/git/projects/arm_gcc/include/core_cm0.h ****   } b;                                   /*!< Structure used for bit  access                  */
 197:/home/wrcooke/git/projects/arm_gcc/include/core_cm0.h ****   uint32_t w;                            /*!< Type      used for word access                  */
 198:/home/wrcooke/git/projects/arm_gcc/include/core_cm0.h **** } APSR_Type;
 199:/home/wrcooke/git/projects/arm_gcc/include/core_cm0.h **** 
 200:/home/wrcooke/git/projects/arm_gcc/include/core_cm0.h **** 
 201:/home/wrcooke/git/projects/arm_gcc/include/core_cm0.h **** /** \brief  Union type to access the Interrupt Program Status Register (IPSR).
 202:/home/wrcooke/git/projects/arm_gcc/include/core_cm0.h ****  */
 203:/home/wrcooke/git/projects/arm_gcc/include/core_cm0.h **** typedef union
 204:/home/wrcooke/git/projects/arm_gcc/include/core_cm0.h **** {
 205:/home/wrcooke/git/projects/arm_gcc/include/core_cm0.h ****   struct
 206:/home/wrcooke/git/projects/arm_gcc/include/core_cm0.h ****   {
 207:/home/wrcooke/git/projects/arm_gcc/include/core_cm0.h ****     uint32_t ISR:9;                      /*!< bit:  0.. 8  Exception number                   */
 208:/home/wrcooke/git/projects/arm_gcc/include/core_cm0.h ****     uint32_t _reserved0:23;              /*!< bit:  9..31  Reserved                           */
 209:/home/wrcooke/git/projects/arm_gcc/include/core_cm0.h ****   } b;                                   /*!< Structure used for bit  access                  */
 210:/home/wrcooke/git/projects/arm_gcc/include/core_cm0.h ****   uint32_t w;                            /*!< Type      used for word access                  */
 211:/home/wrcooke/git/projects/arm_gcc/include/core_cm0.h **** } IPSR_Type;
 212:/home/wrcooke/git/projects/arm_gcc/include/core_cm0.h **** 
 213:/home/wrcooke/git/projects/arm_gcc/include/core_cm0.h **** 
 214:/home/wrcooke/git/projects/arm_gcc/include/core_cm0.h **** /** \brief  Union type to access the Special-Purpose Program Status Registers (xPSR).
 215:/home/wrcooke/git/projects/arm_gcc/include/core_cm0.h ****  */
 216:/home/wrcooke/git/projects/arm_gcc/include/core_cm0.h **** typedef union
 217:/home/wrcooke/git/projects/arm_gcc/include/core_cm0.h **** {
 218:/home/wrcooke/git/projects/arm_gcc/include/core_cm0.h ****   struct
 219:/home/wrcooke/git/projects/arm_gcc/include/core_cm0.h ****   {
 220:/home/wrcooke/git/projects/arm_gcc/include/core_cm0.h ****     uint32_t ISR:9;                      /*!< bit:  0.. 8  Exception number                   */
 221:/home/wrcooke/git/projects/arm_gcc/include/core_cm0.h **** #if (__CORTEX_M != 0x04)
 222:/home/wrcooke/git/projects/arm_gcc/include/core_cm0.h ****     uint32_t _reserved0:15;              /*!< bit:  9..23  Reserved                           */
 223:/home/wrcooke/git/projects/arm_gcc/include/core_cm0.h **** #else
 224:/home/wrcooke/git/projects/arm_gcc/include/core_cm0.h ****     uint32_t _reserved0:7;               /*!< bit:  9..15  Reserved                           */
 225:/home/wrcooke/git/projects/arm_gcc/include/core_cm0.h ****     uint32_t GE:4;                       /*!< bit: 16..19  Greater than or Equal flags        */
 226:/home/wrcooke/git/projects/arm_gcc/include/core_cm0.h ****     uint32_t _reserved1:4;               /*!< bit: 20..23  Reserved                           */
 227:/home/wrcooke/git/projects/arm_gcc/include/core_cm0.h **** #endif
 228:/home/wrcooke/git/projects/arm_gcc/include/core_cm0.h ****     uint32_t T:1;                        /*!< bit:     24  Thumb bit        (read 0)          */
 229:/home/wrcooke/git/projects/arm_gcc/include/core_cm0.h ****     uint32_t IT:2;                       /*!< bit: 25..26  saved IT state   (read 0)          */
 230:/home/wrcooke/git/projects/arm_gcc/include/core_cm0.h ****     uint32_t Q:1;                        /*!< bit:     27  Saturation condition flag          */
 231:/home/wrcooke/git/projects/arm_gcc/include/core_cm0.h ****     uint32_t V:1;                        /*!< bit:     28  Overflow condition code flag       */
ARM GAS  /tmp/ccCzidv9.s 			page 6


 232:/home/wrcooke/git/projects/arm_gcc/include/core_cm0.h ****     uint32_t C:1;                        /*!< bit:     29  Carry condition code flag          */
 233:/home/wrcooke/git/projects/arm_gcc/include/core_cm0.h ****     uint32_t Z:1;                        /*!< bit:     30  Zero condition code flag           */
 234:/home/wrcooke/git/projects/arm_gcc/include/core_cm0.h ****     uint32_t N:1;                        /*!< bit:     31  Negative condition code flag       */
 235:/home/wrcooke/git/projects/arm_gcc/include/core_cm0.h ****   } b;                                   /*!< Structure used for bit  access                  */
 236:/home/wrcooke/git/projects/arm_gcc/include/core_cm0.h ****   uint32_t w;                            /*!< Type      used for word access                  */
 237:/home/wrcooke/git/projects/arm_gcc/include/core_cm0.h **** } xPSR_Type;
 238:/home/wrcooke/git/projects/arm_gcc/include/core_cm0.h **** 
 239:/home/wrcooke/git/projects/arm_gcc/include/core_cm0.h **** 
 240:/home/wrcooke/git/projects/arm_gcc/include/core_cm0.h **** /** \brief  Union type to access the Control Registers (CONTROL).
 241:/home/wrcooke/git/projects/arm_gcc/include/core_cm0.h ****  */
 242:/home/wrcooke/git/projects/arm_gcc/include/core_cm0.h **** typedef union
 243:/home/wrcooke/git/projects/arm_gcc/include/core_cm0.h **** {
 244:/home/wrcooke/git/projects/arm_gcc/include/core_cm0.h ****   struct
 245:/home/wrcooke/git/projects/arm_gcc/include/core_cm0.h ****   {
 246:/home/wrcooke/git/projects/arm_gcc/include/core_cm0.h ****     uint32_t nPRIV:1;                    /*!< bit:      0  Execution privilege in Thread mode */
 247:/home/wrcooke/git/projects/arm_gcc/include/core_cm0.h ****     uint32_t SPSEL:1;                    /*!< bit:      1  Stack to be used                   */
 248:/home/wrcooke/git/projects/arm_gcc/include/core_cm0.h ****     uint32_t FPCA:1;                     /*!< bit:      2  FP extension active flag           */
 249:/home/wrcooke/git/projects/arm_gcc/include/core_cm0.h ****     uint32_t _reserved0:29;              /*!< bit:  3..31  Reserved                           */
 250:/home/wrcooke/git/projects/arm_gcc/include/core_cm0.h ****   } b;                                   /*!< Structure used for bit  access                  */
 251:/home/wrcooke/git/projects/arm_gcc/include/core_cm0.h ****   uint32_t w;                            /*!< Type      used for word access                  */
 252:/home/wrcooke/git/projects/arm_gcc/include/core_cm0.h **** } CONTROL_Type;
 253:/home/wrcooke/git/projects/arm_gcc/include/core_cm0.h **** 
 254:/home/wrcooke/git/projects/arm_gcc/include/core_cm0.h **** /*@} end of group CMSIS_CORE */
 255:/home/wrcooke/git/projects/arm_gcc/include/core_cm0.h **** 
 256:/home/wrcooke/git/projects/arm_gcc/include/core_cm0.h **** 
 257:/home/wrcooke/git/projects/arm_gcc/include/core_cm0.h **** /** \ingroup    CMSIS_core_register
 258:/home/wrcooke/git/projects/arm_gcc/include/core_cm0.h ****     \defgroup   CMSIS_NVIC  Nested Vectored Interrupt Controller (NVIC)
 259:/home/wrcooke/git/projects/arm_gcc/include/core_cm0.h ****     \brief      Type definitions for the NVIC Registers
 260:/home/wrcooke/git/projects/arm_gcc/include/core_cm0.h ****   @{
 261:/home/wrcooke/git/projects/arm_gcc/include/core_cm0.h ****  */
 262:/home/wrcooke/git/projects/arm_gcc/include/core_cm0.h **** 
 263:/home/wrcooke/git/projects/arm_gcc/include/core_cm0.h **** /** \brief  Structure type to access the Nested Vectored Interrupt Controller (NVIC).
 264:/home/wrcooke/git/projects/arm_gcc/include/core_cm0.h ****  */
 265:/home/wrcooke/git/projects/arm_gcc/include/core_cm0.h **** typedef struct
 266:/home/wrcooke/git/projects/arm_gcc/include/core_cm0.h **** {
 267:/home/wrcooke/git/projects/arm_gcc/include/core_cm0.h ****   __IO uint32_t ISER[1];                 /*!< Offset: 0x000 (R/W)  Interrupt Set Enable Register   
 268:/home/wrcooke/git/projects/arm_gcc/include/core_cm0.h ****        uint32_t RESERVED0[31];
 269:/home/wrcooke/git/projects/arm_gcc/include/core_cm0.h ****   __IO uint32_t ICER[1];                 /*!< Offset: 0x080 (R/W)  Interrupt Clear Enable Register 
 270:/home/wrcooke/git/projects/arm_gcc/include/core_cm0.h ****        uint32_t RSERVED1[31];
 271:/home/wrcooke/git/projects/arm_gcc/include/core_cm0.h ****   __IO uint32_t ISPR[1];                 /*!< Offset: 0x100 (R/W)  Interrupt Set Pending Register  
 272:/home/wrcooke/git/projects/arm_gcc/include/core_cm0.h ****        uint32_t RESERVED2[31];
 273:/home/wrcooke/git/projects/arm_gcc/include/core_cm0.h ****   __IO uint32_t ICPR[1];                 /*!< Offset: 0x180 (R/W)  Interrupt Clear Pending Register
 274:/home/wrcooke/git/projects/arm_gcc/include/core_cm0.h ****        uint32_t RESERVED3[31];
 275:/home/wrcooke/git/projects/arm_gcc/include/core_cm0.h ****        uint32_t RESERVED4[64];
 276:/home/wrcooke/git/projects/arm_gcc/include/core_cm0.h ****   __IO uint32_t IP[8];                   /*!< Offset: 0x300 (R/W)  Interrupt Priority Register     
 277:/home/wrcooke/git/projects/arm_gcc/include/core_cm0.h **** }  NVIC_Type;
 278:/home/wrcooke/git/projects/arm_gcc/include/core_cm0.h **** 
 279:/home/wrcooke/git/projects/arm_gcc/include/core_cm0.h **** /*@} end of group CMSIS_NVIC */
 280:/home/wrcooke/git/projects/arm_gcc/include/core_cm0.h **** 
 281:/home/wrcooke/git/projects/arm_gcc/include/core_cm0.h **** 
 282:/home/wrcooke/git/projects/arm_gcc/include/core_cm0.h **** /** \ingroup  CMSIS_core_register
 283:/home/wrcooke/git/projects/arm_gcc/include/core_cm0.h ****     \defgroup CMSIS_SCB     System Control Block (SCB)
 284:/home/wrcooke/git/projects/arm_gcc/include/core_cm0.h ****     \brief      Type definitions for the System Control Block Registers
 285:/home/wrcooke/git/projects/arm_gcc/include/core_cm0.h ****   @{
 286:/home/wrcooke/git/projects/arm_gcc/include/core_cm0.h ****  */
 287:/home/wrcooke/git/projects/arm_gcc/include/core_cm0.h **** 
 288:/home/wrcooke/git/projects/arm_gcc/include/core_cm0.h **** /** \brief  Structure type to access the System Control Block (SCB).
ARM GAS  /tmp/ccCzidv9.s 			page 7


 289:/home/wrcooke/git/projects/arm_gcc/include/core_cm0.h ****  */
 290:/home/wrcooke/git/projects/arm_gcc/include/core_cm0.h **** typedef struct
 291:/home/wrcooke/git/projects/arm_gcc/include/core_cm0.h **** {
 292:/home/wrcooke/git/projects/arm_gcc/include/core_cm0.h ****   __I  uint32_t CPUID;                   /*!< Offset: 0x000 (R/ )  CPUID Base Register             
 293:/home/wrcooke/git/projects/arm_gcc/include/core_cm0.h ****   __IO uint32_t ICSR;                    /*!< Offset: 0x004 (R/W)  Interrupt Control and State Regi
 294:/home/wrcooke/git/projects/arm_gcc/include/core_cm0.h ****        uint32_t RESERVED0;
 295:/home/wrcooke/git/projects/arm_gcc/include/core_cm0.h ****   __IO uint32_t AIRCR;                   /*!< Offset: 0x00C (R/W)  Application Interrupt and Reset 
 296:/home/wrcooke/git/projects/arm_gcc/include/core_cm0.h ****   __IO uint32_t SCR;                     /*!< Offset: 0x010 (R/W)  System Control Register         
 297:/home/wrcooke/git/projects/arm_gcc/include/core_cm0.h ****   __IO uint32_t CCR;                     /*!< Offset: 0x014 (R/W)  Configuration Control Register  
 298:/home/wrcooke/git/projects/arm_gcc/include/core_cm0.h ****        uint32_t RESERVED1;
 299:/home/wrcooke/git/projects/arm_gcc/include/core_cm0.h ****   __IO uint32_t SHP[2];                  /*!< Offset: 0x01C (R/W)  System Handlers Priority Registe
 300:/home/wrcooke/git/projects/arm_gcc/include/core_cm0.h ****   __IO uint32_t SHCSR;                   /*!< Offset: 0x024 (R/W)  System Handler Control and State
 301:/home/wrcooke/git/projects/arm_gcc/include/core_cm0.h **** } SCB_Type;
 302:/home/wrcooke/git/projects/arm_gcc/include/core_cm0.h **** 
 303:/home/wrcooke/git/projects/arm_gcc/include/core_cm0.h **** /* SCB CPUID Register Definitions */
 304:/home/wrcooke/git/projects/arm_gcc/include/core_cm0.h **** #define SCB_CPUID_IMPLEMENTER_Pos          24                                             /*!< SCB 
 305:/home/wrcooke/git/projects/arm_gcc/include/core_cm0.h **** #define SCB_CPUID_IMPLEMENTER_Msk          (0xFFUL << SCB_CPUID_IMPLEMENTER_Pos)          /*!< SCB 
 306:/home/wrcooke/git/projects/arm_gcc/include/core_cm0.h **** 
 307:/home/wrcooke/git/projects/arm_gcc/include/core_cm0.h **** #define SCB_CPUID_VARIANT_Pos              20                                             /*!< SCB 
 308:/home/wrcooke/git/projects/arm_gcc/include/core_cm0.h **** #define SCB_CPUID_VARIANT_Msk              (0xFUL << SCB_CPUID_VARIANT_Pos)               /*!< SCB 
 309:/home/wrcooke/git/projects/arm_gcc/include/core_cm0.h **** 
 310:/home/wrcooke/git/projects/arm_gcc/include/core_cm0.h **** #define SCB_CPUID_ARCHITECTURE_Pos         16                                             /*!< SCB 
 311:/home/wrcooke/git/projects/arm_gcc/include/core_cm0.h **** #define SCB_CPUID_ARCHITECTURE_Msk         (0xFUL << SCB_CPUID_ARCHITECTURE_Pos)          /*!< SCB 
 312:/home/wrcooke/git/projects/arm_gcc/include/core_cm0.h **** 
 313:/home/wrcooke/git/projects/arm_gcc/include/core_cm0.h **** #define SCB_CPUID_PARTNO_Pos                4                                             /*!< SCB 
 314:/home/wrcooke/git/projects/arm_gcc/include/core_cm0.h **** #define SCB_CPUID_PARTNO_Msk               (0xFFFUL << SCB_CPUID_PARTNO_Pos)              /*!< SCB 
 315:/home/wrcooke/git/projects/arm_gcc/include/core_cm0.h **** 
 316:/home/wrcooke/git/projects/arm_gcc/include/core_cm0.h **** #define SCB_CPUID_REVISION_Pos              0                                             /*!< SCB 
 317:/home/wrcooke/git/projects/arm_gcc/include/core_cm0.h **** #define SCB_CPUID_REVISION_Msk             (0xFUL << SCB_CPUID_REVISION_Pos)              /*!< SCB 
 318:/home/wrcooke/git/projects/arm_gcc/include/core_cm0.h **** 
 319:/home/wrcooke/git/projects/arm_gcc/include/core_cm0.h **** /* SCB Interrupt Control State Register Definitions */
 320:/home/wrcooke/git/projects/arm_gcc/include/core_cm0.h **** #define SCB_ICSR_NMIPENDSET_Pos            31                                             /*!< SCB 
 321:/home/wrcooke/git/projects/arm_gcc/include/core_cm0.h **** #define SCB_ICSR_NMIPENDSET_Msk            (1UL << SCB_ICSR_NMIPENDSET_Pos)               /*!< SCB 
 322:/home/wrcooke/git/projects/arm_gcc/include/core_cm0.h **** 
 323:/home/wrcooke/git/projects/arm_gcc/include/core_cm0.h **** #define SCB_ICSR_PENDSVSET_Pos             28                                             /*!< SCB 
 324:/home/wrcooke/git/projects/arm_gcc/include/core_cm0.h **** #define SCB_ICSR_PENDSVSET_Msk             (1UL << SCB_ICSR_PENDSVSET_Pos)                /*!< SCB 
 325:/home/wrcooke/git/projects/arm_gcc/include/core_cm0.h **** 
 326:/home/wrcooke/git/projects/arm_gcc/include/core_cm0.h **** #define SCB_ICSR_PENDSVCLR_Pos             27                                             /*!< SCB 
 327:/home/wrcooke/git/projects/arm_gcc/include/core_cm0.h **** #define SCB_ICSR_PENDSVCLR_Msk             (1UL << SCB_ICSR_PENDSVCLR_Pos)                /*!< SCB 
 328:/home/wrcooke/git/projects/arm_gcc/include/core_cm0.h **** 
 329:/home/wrcooke/git/projects/arm_gcc/include/core_cm0.h **** #define SCB_ICSR_PENDSTSET_Pos             26                                             /*!< SCB 
 330:/home/wrcooke/git/projects/arm_gcc/include/core_cm0.h **** #define SCB_ICSR_PENDSTSET_Msk             (1UL << SCB_ICSR_PENDSTSET_Pos)                /*!< SCB 
 331:/home/wrcooke/git/projects/arm_gcc/include/core_cm0.h **** 
 332:/home/wrcooke/git/projects/arm_gcc/include/core_cm0.h **** #define SCB_ICSR_PENDSTCLR_Pos             25                                             /*!< SCB 
 333:/home/wrcooke/git/projects/arm_gcc/include/core_cm0.h **** #define SCB_ICSR_PENDSTCLR_Msk             (1UL << SCB_ICSR_PENDSTCLR_Pos)                /*!< SCB 
 334:/home/wrcooke/git/projects/arm_gcc/include/core_cm0.h **** 
 335:/home/wrcooke/git/projects/arm_gcc/include/core_cm0.h **** #define SCB_ICSR_ISRPREEMPT_Pos            23                                             /*!< SCB 
 336:/home/wrcooke/git/projects/arm_gcc/include/core_cm0.h **** #define SCB_ICSR_ISRPREEMPT_Msk            (1UL << SCB_ICSR_ISRPREEMPT_Pos)               /*!< SCB 
 337:/home/wrcooke/git/projects/arm_gcc/include/core_cm0.h **** 
 338:/home/wrcooke/git/projects/arm_gcc/include/core_cm0.h **** #define SCB_ICSR_ISRPENDING_Pos            22                                             /*!< SCB 
 339:/home/wrcooke/git/projects/arm_gcc/include/core_cm0.h **** #define SCB_ICSR_ISRPENDING_Msk            (1UL << SCB_ICSR_ISRPENDING_Pos)               /*!< SCB 
 340:/home/wrcooke/git/projects/arm_gcc/include/core_cm0.h **** 
 341:/home/wrcooke/git/projects/arm_gcc/include/core_cm0.h **** #define SCB_ICSR_VECTPENDING_Pos           12                                             /*!< SCB 
 342:/home/wrcooke/git/projects/arm_gcc/include/core_cm0.h **** #define SCB_ICSR_VECTPENDING_Msk           (0x1FFUL << SCB_ICSR_VECTPENDING_Pos)          /*!< SCB 
 343:/home/wrcooke/git/projects/arm_gcc/include/core_cm0.h **** 
 344:/home/wrcooke/git/projects/arm_gcc/include/core_cm0.h **** #define SCB_ICSR_VECTACTIVE_Pos             0                                             /*!< SCB 
 345:/home/wrcooke/git/projects/arm_gcc/include/core_cm0.h **** #define SCB_ICSR_VECTACTIVE_Msk            (0x1FFUL << SCB_ICSR_VECTACTIVE_Pos)           /*!< SCB 
ARM GAS  /tmp/ccCzidv9.s 			page 8


 346:/home/wrcooke/git/projects/arm_gcc/include/core_cm0.h **** 
 347:/home/wrcooke/git/projects/arm_gcc/include/core_cm0.h **** /* SCB Application Interrupt and Reset Control Register Definitions */
 348:/home/wrcooke/git/projects/arm_gcc/include/core_cm0.h **** #define SCB_AIRCR_VECTKEY_Pos              16                                             /*!< SCB 
 349:/home/wrcooke/git/projects/arm_gcc/include/core_cm0.h **** #define SCB_AIRCR_VECTKEY_Msk              (0xFFFFUL << SCB_AIRCR_VECTKEY_Pos)            /*!< SCB 
 350:/home/wrcooke/git/projects/arm_gcc/include/core_cm0.h **** 
 351:/home/wrcooke/git/projects/arm_gcc/include/core_cm0.h **** #define SCB_AIRCR_VECTKEYSTAT_Pos          16                                             /*!< SCB 
 352:/home/wrcooke/git/projects/arm_gcc/include/core_cm0.h **** #define SCB_AIRCR_VECTKEYSTAT_Msk          (0xFFFFUL << SCB_AIRCR_VECTKEYSTAT_Pos)        /*!< SCB 
 353:/home/wrcooke/git/projects/arm_gcc/include/core_cm0.h **** 
 354:/home/wrcooke/git/projects/arm_gcc/include/core_cm0.h **** #define SCB_AIRCR_ENDIANESS_Pos            15                                             /*!< SCB 
 355:/home/wrcooke/git/projects/arm_gcc/include/core_cm0.h **** #define SCB_AIRCR_ENDIANESS_Msk            (1UL << SCB_AIRCR_ENDIANESS_Pos)               /*!< SCB 
 356:/home/wrcooke/git/projects/arm_gcc/include/core_cm0.h **** 
 357:/home/wrcooke/git/projects/arm_gcc/include/core_cm0.h **** #define SCB_AIRCR_SYSRESETREQ_Pos           2                                             /*!< SCB 
 358:/home/wrcooke/git/projects/arm_gcc/include/core_cm0.h **** #define SCB_AIRCR_SYSRESETREQ_Msk          (1UL << SCB_AIRCR_SYSRESETREQ_Pos)             /*!< SCB 
 359:/home/wrcooke/git/projects/arm_gcc/include/core_cm0.h **** 
 360:/home/wrcooke/git/projects/arm_gcc/include/core_cm0.h **** #define SCB_AIRCR_VECTCLRACTIVE_Pos         1                                             /*!< SCB 
 361:/home/wrcooke/git/projects/arm_gcc/include/core_cm0.h **** #define SCB_AIRCR_VECTCLRACTIVE_Msk        (1UL << SCB_AIRCR_VECTCLRACTIVE_Pos)           /*!< SCB 
 362:/home/wrcooke/git/projects/arm_gcc/include/core_cm0.h **** 
 363:/home/wrcooke/git/projects/arm_gcc/include/core_cm0.h **** /* SCB System Control Register Definitions */
 364:/home/wrcooke/git/projects/arm_gcc/include/core_cm0.h **** #define SCB_SCR_SEVONPEND_Pos               4                                             /*!< SCB 
 365:/home/wrcooke/git/projects/arm_gcc/include/core_cm0.h **** #define SCB_SCR_SEVONPEND_Msk              (1UL << SCB_SCR_SEVONPEND_Pos)                 /*!< SCB 
 366:/home/wrcooke/git/projects/arm_gcc/include/core_cm0.h **** 
 367:/home/wrcooke/git/projects/arm_gcc/include/core_cm0.h **** #define SCB_SCR_SLEEPDEEP_Pos               2                                             /*!< SCB 
 368:/home/wrcooke/git/projects/arm_gcc/include/core_cm0.h **** #define SCB_SCR_SLEEPDEEP_Msk              (1UL << SCB_SCR_SLEEPDEEP_Pos)                 /*!< SCB 
 369:/home/wrcooke/git/projects/arm_gcc/include/core_cm0.h **** 
 370:/home/wrcooke/git/projects/arm_gcc/include/core_cm0.h **** #define SCB_SCR_SLEEPONEXIT_Pos             1                                             /*!< SCB 
 371:/home/wrcooke/git/projects/arm_gcc/include/core_cm0.h **** #define SCB_SCR_SLEEPONEXIT_Msk            (1UL << SCB_SCR_SLEEPONEXIT_Pos)               /*!< SCB 
 372:/home/wrcooke/git/projects/arm_gcc/include/core_cm0.h **** 
 373:/home/wrcooke/git/projects/arm_gcc/include/core_cm0.h **** /* SCB Configuration Control Register Definitions */
 374:/home/wrcooke/git/projects/arm_gcc/include/core_cm0.h **** #define SCB_CCR_STKALIGN_Pos                9                                             /*!< SCB 
 375:/home/wrcooke/git/projects/arm_gcc/include/core_cm0.h **** #define SCB_CCR_STKALIGN_Msk               (1UL << SCB_CCR_STKALIGN_Pos)                  /*!< SCB 
 376:/home/wrcooke/git/projects/arm_gcc/include/core_cm0.h **** 
 377:/home/wrcooke/git/projects/arm_gcc/include/core_cm0.h **** #define SCB_CCR_UNALIGN_TRP_Pos             3                                             /*!< SCB 
 378:/home/wrcooke/git/projects/arm_gcc/include/core_cm0.h **** #define SCB_CCR_UNALIGN_TRP_Msk            (1UL << SCB_CCR_UNALIGN_TRP_Pos)               /*!< SCB 
 379:/home/wrcooke/git/projects/arm_gcc/include/core_cm0.h **** 
 380:/home/wrcooke/git/projects/arm_gcc/include/core_cm0.h **** /* SCB System Handler Control and State Register Definitions */
 381:/home/wrcooke/git/projects/arm_gcc/include/core_cm0.h **** #define SCB_SHCSR_SVCALLPENDED_Pos         15                                             /*!< SCB 
 382:/home/wrcooke/git/projects/arm_gcc/include/core_cm0.h **** #define SCB_SHCSR_SVCALLPENDED_Msk         (1UL << SCB_SHCSR_SVCALLPENDED_Pos)            /*!< SCB 
 383:/home/wrcooke/git/projects/arm_gcc/include/core_cm0.h **** 
 384:/home/wrcooke/git/projects/arm_gcc/include/core_cm0.h **** /*@} end of group CMSIS_SCB */
 385:/home/wrcooke/git/projects/arm_gcc/include/core_cm0.h **** 
 386:/home/wrcooke/git/projects/arm_gcc/include/core_cm0.h **** 
 387:/home/wrcooke/git/projects/arm_gcc/include/core_cm0.h **** /** \ingroup  CMSIS_core_register
 388:/home/wrcooke/git/projects/arm_gcc/include/core_cm0.h ****     \defgroup CMSIS_SysTick     System Tick Timer (SysTick)
 389:/home/wrcooke/git/projects/arm_gcc/include/core_cm0.h ****     \brief      Type definitions for the System Timer Registers.
 390:/home/wrcooke/git/projects/arm_gcc/include/core_cm0.h ****   @{
 391:/home/wrcooke/git/projects/arm_gcc/include/core_cm0.h ****  */
 392:/home/wrcooke/git/projects/arm_gcc/include/core_cm0.h **** 
 393:/home/wrcooke/git/projects/arm_gcc/include/core_cm0.h **** /** \brief  Structure type to access the System Timer (SysTick).
 394:/home/wrcooke/git/projects/arm_gcc/include/core_cm0.h ****  */
 395:/home/wrcooke/git/projects/arm_gcc/include/core_cm0.h **** typedef struct
 396:/home/wrcooke/git/projects/arm_gcc/include/core_cm0.h **** {
 397:/home/wrcooke/git/projects/arm_gcc/include/core_cm0.h ****   __IO uint32_t CTRL;                    /*!< Offset: 0x000 (R/W)  SysTick Control and Status Regis
 398:/home/wrcooke/git/projects/arm_gcc/include/core_cm0.h ****   __IO uint32_t LOAD;                    /*!< Offset: 0x004 (R/W)  SysTick Reload Value Register   
 399:/home/wrcooke/git/projects/arm_gcc/include/core_cm0.h ****   __IO uint32_t VAL;                     /*!< Offset: 0x008 (R/W)  SysTick Current Value Register  
 400:/home/wrcooke/git/projects/arm_gcc/include/core_cm0.h ****   __I  uint32_t CALIB;                   /*!< Offset: 0x00C (R/ )  SysTick Calibration Register    
 401:/home/wrcooke/git/projects/arm_gcc/include/core_cm0.h **** } SysTick_Type;
 402:/home/wrcooke/git/projects/arm_gcc/include/core_cm0.h **** 
ARM GAS  /tmp/ccCzidv9.s 			page 9


 403:/home/wrcooke/git/projects/arm_gcc/include/core_cm0.h **** /* SysTick Control / Status Register Definitions */
 404:/home/wrcooke/git/projects/arm_gcc/include/core_cm0.h **** #define SysTick_CTRL_COUNTFLAG_Pos         16                                             /*!< SysT
 405:/home/wrcooke/git/projects/arm_gcc/include/core_cm0.h **** #define SysTick_CTRL_COUNTFLAG_Msk         (1UL << SysTick_CTRL_COUNTFLAG_Pos)            /*!< SysT
 406:/home/wrcooke/git/projects/arm_gcc/include/core_cm0.h **** 
 407:/home/wrcooke/git/projects/arm_gcc/include/core_cm0.h **** #define SysTick_CTRL_CLKSOURCE_Pos          2                                             /*!< SysT
 408:/home/wrcooke/git/projects/arm_gcc/include/core_cm0.h **** #define SysTick_CTRL_CLKSOURCE_Msk         (1UL << SysTick_CTRL_CLKSOURCE_Pos)            /*!< SysT
 409:/home/wrcooke/git/projects/arm_gcc/include/core_cm0.h **** 
 410:/home/wrcooke/git/projects/arm_gcc/include/core_cm0.h **** #define SysTick_CTRL_TICKINT_Pos            1                                             /*!< SysT
 411:/home/wrcooke/git/projects/arm_gcc/include/core_cm0.h **** #define SysTick_CTRL_TICKINT_Msk           (1UL << SysTick_CTRL_TICKINT_Pos)              /*!< SysT
 412:/home/wrcooke/git/projects/arm_gcc/include/core_cm0.h **** 
 413:/home/wrcooke/git/projects/arm_gcc/include/core_cm0.h **** #define SysTick_CTRL_ENABLE_Pos             0                                             /*!< SysT
 414:/home/wrcooke/git/projects/arm_gcc/include/core_cm0.h **** #define SysTick_CTRL_ENABLE_Msk            (1UL << SysTick_CTRL_ENABLE_Pos)               /*!< SysT
 415:/home/wrcooke/git/projects/arm_gcc/include/core_cm0.h **** 
 416:/home/wrcooke/git/projects/arm_gcc/include/core_cm0.h **** /* SysTick Reload Register Definitions */
 417:/home/wrcooke/git/projects/arm_gcc/include/core_cm0.h **** #define SysTick_LOAD_RELOAD_Pos             0                                             /*!< SysT
 418:/home/wrcooke/git/projects/arm_gcc/include/core_cm0.h **** #define SysTick_LOAD_RELOAD_Msk            (0xFFFFFFUL << SysTick_LOAD_RELOAD_Pos)        /*!< SysT
 419:/home/wrcooke/git/projects/arm_gcc/include/core_cm0.h **** 
 420:/home/wrcooke/git/projects/arm_gcc/include/core_cm0.h **** /* SysTick Current Register Definitions */
 421:/home/wrcooke/git/projects/arm_gcc/include/core_cm0.h **** #define SysTick_VAL_CURRENT_Pos             0                                             /*!< SysT
 422:/home/wrcooke/git/projects/arm_gcc/include/core_cm0.h **** #define SysTick_VAL_CURRENT_Msk            (0xFFFFFFUL << SysTick_VAL_CURRENT_Pos)        /*!< SysT
 423:/home/wrcooke/git/projects/arm_gcc/include/core_cm0.h **** 
 424:/home/wrcooke/git/projects/arm_gcc/include/core_cm0.h **** /* SysTick Calibration Register Definitions */
 425:/home/wrcooke/git/projects/arm_gcc/include/core_cm0.h **** #define SysTick_CALIB_NOREF_Pos            31                                             /*!< SysT
 426:/home/wrcooke/git/projects/arm_gcc/include/core_cm0.h **** #define SysTick_CALIB_NOREF_Msk            (1UL << SysTick_CALIB_NOREF_Pos)               /*!< SysT
 427:/home/wrcooke/git/projects/arm_gcc/include/core_cm0.h **** 
 428:/home/wrcooke/git/projects/arm_gcc/include/core_cm0.h **** #define SysTick_CALIB_SKEW_Pos             30                                             /*!< SysT
 429:/home/wrcooke/git/projects/arm_gcc/include/core_cm0.h **** #define SysTick_CALIB_SKEW_Msk             (1UL << SysTick_CALIB_SKEW_Pos)                /*!< SysT
 430:/home/wrcooke/git/projects/arm_gcc/include/core_cm0.h **** 
 431:/home/wrcooke/git/projects/arm_gcc/include/core_cm0.h **** #define SysTick_CALIB_TENMS_Pos             0                                             /*!< SysT
 432:/home/wrcooke/git/projects/arm_gcc/include/core_cm0.h **** #define SysTick_CALIB_TENMS_Msk            (0xFFFFFFUL << SysTick_VAL_CURRENT_Pos)        /*!< SysT
 433:/home/wrcooke/git/projects/arm_gcc/include/core_cm0.h **** 
 434:/home/wrcooke/git/projects/arm_gcc/include/core_cm0.h **** /*@} end of group CMSIS_SysTick */
 435:/home/wrcooke/git/projects/arm_gcc/include/core_cm0.h **** 
 436:/home/wrcooke/git/projects/arm_gcc/include/core_cm0.h **** 
 437:/home/wrcooke/git/projects/arm_gcc/include/core_cm0.h **** /** \ingroup  CMSIS_core_register
 438:/home/wrcooke/git/projects/arm_gcc/include/core_cm0.h ****     \defgroup CMSIS_CoreDebug       Core Debug Registers (CoreDebug)
 439:/home/wrcooke/git/projects/arm_gcc/include/core_cm0.h ****     \brief      Cortex-M0 Core Debug Registers (DCB registers, SHCSR, and DFSR)
 440:/home/wrcooke/git/projects/arm_gcc/include/core_cm0.h ****                 are only accessible over DAP and not via processor. Therefore
 441:/home/wrcooke/git/projects/arm_gcc/include/core_cm0.h ****                 they are not covered by the Cortex-M0 header file.
 442:/home/wrcooke/git/projects/arm_gcc/include/core_cm0.h ****   @{
 443:/home/wrcooke/git/projects/arm_gcc/include/core_cm0.h ****  */
 444:/home/wrcooke/git/projects/arm_gcc/include/core_cm0.h **** /*@} end of group CMSIS_CoreDebug */
 445:/home/wrcooke/git/projects/arm_gcc/include/core_cm0.h **** 
 446:/home/wrcooke/git/projects/arm_gcc/include/core_cm0.h **** 
 447:/home/wrcooke/git/projects/arm_gcc/include/core_cm0.h **** /** \ingroup    CMSIS_core_register
 448:/home/wrcooke/git/projects/arm_gcc/include/core_cm0.h ****     \defgroup   CMSIS_core_base     Core Definitions
 449:/home/wrcooke/git/projects/arm_gcc/include/core_cm0.h ****     \brief      Definitions for base addresses, unions, and structures.
 450:/home/wrcooke/git/projects/arm_gcc/include/core_cm0.h ****   @{
 451:/home/wrcooke/git/projects/arm_gcc/include/core_cm0.h ****  */
 452:/home/wrcooke/git/projects/arm_gcc/include/core_cm0.h **** 
 453:/home/wrcooke/git/projects/arm_gcc/include/core_cm0.h **** /* Memory mapping of Cortex-M0 Hardware */
 454:/home/wrcooke/git/projects/arm_gcc/include/core_cm0.h **** #define SCS_BASE            (0xE000E000UL)                            /*!< System Control Space Bas
 455:/home/wrcooke/git/projects/arm_gcc/include/core_cm0.h **** #define SysTick_BASE        (SCS_BASE +  0x0010UL)                    /*!< SysTick Base Address    
 456:/home/wrcooke/git/projects/arm_gcc/include/core_cm0.h **** #define NVIC_BASE           (SCS_BASE +  0x0100UL)                    /*!< NVIC Base Address       
 457:/home/wrcooke/git/projects/arm_gcc/include/core_cm0.h **** #define SCB_BASE            (SCS_BASE +  0x0D00UL)                    /*!< System Control Block Bas
 458:/home/wrcooke/git/projects/arm_gcc/include/core_cm0.h **** 
 459:/home/wrcooke/git/projects/arm_gcc/include/core_cm0.h **** #define SCB                 ((SCB_Type       *)     SCB_BASE      )   /*!< SCB configuration struct
ARM GAS  /tmp/ccCzidv9.s 			page 10


 460:/home/wrcooke/git/projects/arm_gcc/include/core_cm0.h **** #define SysTick             ((SysTick_Type   *)     SysTick_BASE  )   /*!< SysTick configuration st
 461:/home/wrcooke/git/projects/arm_gcc/include/core_cm0.h **** #define NVIC                ((NVIC_Type      *)     NVIC_BASE     )   /*!< NVIC configuration struc
 462:/home/wrcooke/git/projects/arm_gcc/include/core_cm0.h **** 
 463:/home/wrcooke/git/projects/arm_gcc/include/core_cm0.h **** 
 464:/home/wrcooke/git/projects/arm_gcc/include/core_cm0.h **** /*@} */
 465:/home/wrcooke/git/projects/arm_gcc/include/core_cm0.h **** 
 466:/home/wrcooke/git/projects/arm_gcc/include/core_cm0.h **** 
 467:/home/wrcooke/git/projects/arm_gcc/include/core_cm0.h **** 
 468:/home/wrcooke/git/projects/arm_gcc/include/core_cm0.h **** /*******************************************************************************
 469:/home/wrcooke/git/projects/arm_gcc/include/core_cm0.h ****  *                Hardware Abstraction Layer
 470:/home/wrcooke/git/projects/arm_gcc/include/core_cm0.h ****   Core Function Interface contains:
 471:/home/wrcooke/git/projects/arm_gcc/include/core_cm0.h ****   - Core NVIC Functions
 472:/home/wrcooke/git/projects/arm_gcc/include/core_cm0.h ****   - Core SysTick Functions
 473:/home/wrcooke/git/projects/arm_gcc/include/core_cm0.h ****   - Core Register Access Functions
 474:/home/wrcooke/git/projects/arm_gcc/include/core_cm0.h ****  ******************************************************************************/
 475:/home/wrcooke/git/projects/arm_gcc/include/core_cm0.h **** /** \defgroup CMSIS_Core_FunctionInterface Functions and Instructions Reference
 476:/home/wrcooke/git/projects/arm_gcc/include/core_cm0.h **** */
 477:/home/wrcooke/git/projects/arm_gcc/include/core_cm0.h **** 
 478:/home/wrcooke/git/projects/arm_gcc/include/core_cm0.h **** 
 479:/home/wrcooke/git/projects/arm_gcc/include/core_cm0.h **** 
 480:/home/wrcooke/git/projects/arm_gcc/include/core_cm0.h **** /* ##########################   NVIC functions  #################################### */
 481:/home/wrcooke/git/projects/arm_gcc/include/core_cm0.h **** /** \ingroup  CMSIS_Core_FunctionInterface
 482:/home/wrcooke/git/projects/arm_gcc/include/core_cm0.h ****     \defgroup CMSIS_Core_NVICFunctions NVIC Functions
 483:/home/wrcooke/git/projects/arm_gcc/include/core_cm0.h ****     \brief      Functions that manage interrupts and exceptions via the NVIC.
 484:/home/wrcooke/git/projects/arm_gcc/include/core_cm0.h ****     @{
 485:/home/wrcooke/git/projects/arm_gcc/include/core_cm0.h ****  */
 486:/home/wrcooke/git/projects/arm_gcc/include/core_cm0.h **** 
 487:/home/wrcooke/git/projects/arm_gcc/include/core_cm0.h **** /* Interrupt Priorities are WORD accessible only under ARMv6M                   */
 488:/home/wrcooke/git/projects/arm_gcc/include/core_cm0.h **** /* The following MACROS handle generation of the register offset and byte masks */
 489:/home/wrcooke/git/projects/arm_gcc/include/core_cm0.h **** #define _BIT_SHIFT(IRQn)         (  (((uint32_t)(IRQn)       )    &  0x03) * 8 )
 490:/home/wrcooke/git/projects/arm_gcc/include/core_cm0.h **** #define _SHP_IDX(IRQn)           ( ((((uint32_t)(IRQn) & 0x0F)-8) >>    2)     )
 491:/home/wrcooke/git/projects/arm_gcc/include/core_cm0.h **** #define _IP_IDX(IRQn)            (   ((uint32_t)(IRQn)            >>    2)     )
 492:/home/wrcooke/git/projects/arm_gcc/include/core_cm0.h **** 
 493:/home/wrcooke/git/projects/arm_gcc/include/core_cm0.h **** 
 494:/home/wrcooke/git/projects/arm_gcc/include/core_cm0.h **** /** \brief  Enable External Interrupt
 495:/home/wrcooke/git/projects/arm_gcc/include/core_cm0.h **** 
 496:/home/wrcooke/git/projects/arm_gcc/include/core_cm0.h ****     The function enables a device-specific interrupt in the NVIC interrupt controller.
 497:/home/wrcooke/git/projects/arm_gcc/include/core_cm0.h **** 
 498:/home/wrcooke/git/projects/arm_gcc/include/core_cm0.h ****     \param [in]      IRQn  External interrupt number. Value cannot be negative.
 499:/home/wrcooke/git/projects/arm_gcc/include/core_cm0.h ****  */
 500:/home/wrcooke/git/projects/arm_gcc/include/core_cm0.h **** __STATIC_INLINE void NVIC_EnableIRQ(IRQn_Type IRQn)
 501:/home/wrcooke/git/projects/arm_gcc/include/core_cm0.h **** {
  55              		.loc 1 501 0
  56              		.cfi_startproc
  57 0000 80B5     		push	{r7, lr}	@
  58              	.LCFI0:
  59              		.cfi_def_cfa_offset 8
  60              		.cfi_offset 7, -8
  61              		.cfi_offset 14, -4
  62 0002 82B0     		sub	sp, sp, #8	@,,
  63              	.LCFI1:
  64              		.cfi_def_cfa_offset 16
  65 0004 00AF     		add	r7, sp, #0	@,,
  66              	.LCFI2:
  67              		.cfi_def_cfa_register 7
  68 0006 021C     		mov	r2, r0	@ tmp140, IRQn
  69 0008 FB1D     		add	r3, r7, #7	@ tmp141,,
ARM GAS  /tmp/ccCzidv9.s 			page 11


  70 000a 1A70     		strb	r2, [r3]	@ tmp142, IRQn
 502:/home/wrcooke/git/projects/arm_gcc/include/core_cm0.h ****   NVIC->ISER[0] = (1 << ((uint32_t)(IRQn) & 0x1F));
  71              		.loc 1 502 0
  72 000c 064B     		ldr	r3, .L2	@ D.4798,
  73 000e FA1D     		add	r2, r7, #7	@ tmp143,,
  74 0010 1278     		ldrb	r2, [r2]	@ IRQn.0, IRQn
  75 0012 111C     		mov	r1, r2	@ D.4800, IRQn.0
  76 0014 1F22     		mov	r2, #31	@ tmp144,
  77 0016 0A40     		and	r2, r1	@ D.4801, D.4800
  78 0018 0121     		mov	r1, #1	@ tmp145,
  79 001a 081C     		mov	r0, r1	@, tmp145
  80 001c 9040     		lsl	r0, r0, r2	@,, D.4801
  81 001e 021C     		mov	r2, r0	@ D.4802,
  82 0020 1A60     		str	r2, [r3]	@ D.4803, D.4798_1->ISER
 503:/home/wrcooke/git/projects/arm_gcc/include/core_cm0.h **** }
  83              		.loc 1 503 0
  84 0022 BD46     		mov	sp, r7	@,
  85 0024 02B0     		add	sp, sp, #8	@,,
  86              		@ sp needed for prologue	@
  87 0026 80BD     		pop	{r7, pc}
  88              	.L3:
  89              		.align	2
  90              	.L2:
  91 0028 00E100E0 		.word	-536813312
  92              		.cfi_endproc
  93              	.LFE24:
  94              		.size	NVIC_EnableIRQ, .-NVIC_EnableIRQ
  95              		.section	.text.pwm_init,"ax",%progbits
  96              		.align	2
  97              		.global	pwm_init
  98              		.code	16
  99              		.thumb_func
 100              		.type	pwm_init, %function
 101              	pwm_init:
 102              	.LFB33:
 103              		.file 2 "timers.c"
   1:timers.c      **** //////////////////////////////////////////////////////////////////////////////
   2:timers.c      **** ///
   3:timers.c      **** ///  @file timers.c
   4:timers.c      **** ///  
   5:timers.c      **** ///  @brief (C) 2013 William R Cooke
   6:timers.c      **** ///  Timer control routines for LPC11xx
   7:timers.c      **** ///
   8:timers.c      **** //////////////////////////////////////////////////////////////////////////////
   9:timers.c      **** 
  10:timers.c      **** #include <stdint.h>
  11:timers.c      **** #include "LPC11xx.h"
  12:timers.c      **** #include "system_LPC11xx.h"
  13:timers.c      **** #include "timers.h"
  14:timers.c      **** 
  15:timers.c      **** 
  16:timers.c      **** //////////////////////////////////////////////////////////////////////////////
  17:timers.c      **** ///
  18:timers.c      **** ///  \b pwm_init
  19:timers.c      **** ///
  20:timers.c      **** ///  @brief set up pwm on a timer
  21:timers.c      **** ///
ARM GAS  /tmp/ccCzidv9.s 			page 12


  22:timers.c      **** ///  @param[in]  timer         pointer to the timer to use
  23:timers.c      **** ///  @param[in]  prescale      prescaler division 
  24:timers.c      **** ///  @param[in]  cycle_length  number of clocks for entire cycle
  25:timers.c      **** ///  @param[in]  channels      which channels to pwm
  26:timers.c      **** ///  @param[in]
  27:timers.c      **** ///
  28:timers.c      **** ///  @remark     uses match3 for cycle length. sets all channels to max count
  29:timers.c      **** //////////////////////////////////////////////////////////////////////////////
  30:timers.c      **** void pwm_init(ctxxb_t *timer, uint32_t prescale, uint32_t cycle_length,  uint32_t channels)
  31:timers.c      **** {
 104              		.loc 2 31 0
 105              		.cfi_startproc
 106 0000 80B5     		push	{r7, lr}	@
 107              	.LCFI3:
 108              		.cfi_def_cfa_offset 8
 109              		.cfi_offset 7, -8
 110              		.cfi_offset 14, -4
 111 0002 86B0     		sub	sp, sp, #24	@,,
 112              	.LCFI4:
 113              		.cfi_def_cfa_offset 32
 114 0004 00AF     		add	r7, sp, #0	@,,
 115              	.LCFI5:
 116              		.cfi_def_cfa_register 7
 117 0006 F860     		str	r0, [r7, #12]	@ timer, timer
 118 0008 B960     		str	r1, [r7, #8]	@ prescale, prescale
 119 000a 7A60     		str	r2, [r7, #4]	@ cycle_length, cycle_length
 120 000c 3B60     		str	r3, [r7]	@ channels, channels
  32:timers.c      **** // match 3 is pulse width
  33:timers.c      **** 
  34:timers.c      ****    uint32_t emr_value = 0;
 121              		.loc 2 34 0
 122 000e 0023     		mov	r3, #0	@ tmp176,
 123 0010 7B61     		str	r3, [r7, #20]	@ tmp176, emr_value
  35:timers.c      **** 
  36:timers.c      ****    if (timer == CT16B0)
 124              		.loc 2 36 0
 125 0012 FA68     		ldr	r2, [r7, #12]	@ tmp177, timer
 126 0014 5E4B     		ldr	r3, .L22	@ tmp178,
 127 0016 9A42     		cmp	r2, r3	@ tmp177, tmp178
 128 0018 1DD1     		bne	.L5	@,
  37:timers.c      ****    {
  38:timers.c      ****       if ((channels & TIMER_CHANNEL_0) != 0) IOCON->IOCON_PIO0_8 = PINFN_CT16B0_MAT0;
 129              		.loc 2 38 0
 130 001a 3A68     		ldr	r2, [r7]	@ tmp179, channels
 131 001c 0123     		mov	r3, #1	@ tmp180,
 132 001e 1340     		and	r3, r2	@ D.4814, tmp179
 133 0020 02D0     		beq	.L6	@,
 134              		.loc 2 38 0 is_stmt 0 discriminator 1
 135 0022 5C4B     		ldr	r3, .L22+4	@ D.4817,
 136 0024 0222     		mov	r2, #2	@ tmp181,
 137 0026 1A66     		str	r2, [r3, #96]	@ tmp181, D.4817_8->IOCON_PIO0_8
 138              	.L6:
  39:timers.c      ****       if ((channels & TIMER_CHANNEL_1) != 0) IOCON->IOCON_PIO0_9 = PINFN_CT16B0_MAT1;
 139              		.loc 2 39 0 is_stmt 1
 140 0028 3A68     		ldr	r2, [r7]	@ tmp182, channels
 141 002a 0223     		mov	r3, #2	@ tmp183,
 142 002c 1340     		and	r3, r2	@ D.4818, tmp182
ARM GAS  /tmp/ccCzidv9.s 			page 13


 143 002e 02D0     		beq	.L7	@,
 144              		.loc 2 39 0 is_stmt 0 discriminator 1
 145 0030 584B     		ldr	r3, .L22+4	@ D.4821,
 146 0032 0222     		mov	r2, #2	@ tmp184,
 147 0034 5A66     		str	r2, [r3, #100]	@ tmp184, D.4821_10->IOCON_PIO0_9
 148              	.L7:
  40:timers.c      ****       if ((channels & TIMER_CHANNEL_2) != 0) IOCON->IOCON_SWCLK_PIO0_10 = PINFN_CT16B0_MAT2;
 149              		.loc 2 40 0 is_stmt 1
 150 0036 3A68     		ldr	r2, [r7]	@ tmp185, channels
 151 0038 0423     		mov	r3, #4	@ tmp186,
 152 003a 1340     		and	r3, r2	@ D.4822, tmp185
 153 003c 02D0     		beq	.L8	@,
 154              		.loc 2 40 0 is_stmt 0 discriminator 1
 155 003e 554B     		ldr	r3, .L22+4	@ D.4825,
 156 0040 0322     		mov	r2, #3	@ tmp187,
 157 0042 9A66     		str	r2, [r3, #104]	@ tmp187, D.4825_12->IOCON_SWCLK_PIO0_10
 158              	.L8:
  41:timers.c      ****       SYSCON->SYSAHBCLKCTRL |= (AHBCLKCTRL_CT16B0); // turn on timer
 159              		.loc 2 41 0 is_stmt 1
 160 0044 544A     		ldr	r2, .L22+8	@ D.4826,
 161 0046 5449     		ldr	r1, .L22+8	@ D.4827,
 162 0048 8023     		mov	r3, #128	@ tmp188,
 163 004a CB58     		ldr	r3, [r1, r3]	@ D.4828, D.4827_14->SYSAHBCLKCTRL
 164 004c 8021     		mov	r1, #128	@ tmp189,
 165 004e 1943     		orr	r1, r3	@ D.4829, D.4828
 166 0050 8023     		mov	r3, #128	@ tmp190,
 167 0052 D150     		str	r1, [r2, r3]	@ D.4829, D.4826_13->SYSAHBCLKCTRL
 168 0054 5DE0     		b	.L9	@
 169              	.L5:
  42:timers.c      **** 
  43:timers.c      ****    }
  44:timers.c      ****    else if (timer == CT16B1)
 170              		.loc 2 44 0
 171 0056 FA68     		ldr	r2, [r7, #12]	@ tmp191, timer
 172 0058 504B     		ldr	r3, .L22+12	@ tmp192,
 173 005a 9A42     		cmp	r2, r3	@ tmp191, tmp192
 174 005c 17D1     		bne	.L10	@,
  45:timers.c      ****    {
  46:timers.c      ****       if ((channels & TIMER_CHANNEL_0) != 0) IOCON->IOCON_PIO1_9  = PINFN_CT16B1_MAT0;
 175              		.loc 2 46 0
 176 005e 3A68     		ldr	r2, [r7]	@ tmp193, channels
 177 0060 0123     		mov	r3, #1	@ tmp194,
 178 0062 1340     		and	r3, r2	@ D.4833, tmp193
 179 0064 02D0     		beq	.L11	@,
 180              		.loc 2 46 0 is_stmt 0 discriminator 1
 181 0066 4B4B     		ldr	r3, .L22+4	@ D.4836,
 182 0068 0122     		mov	r2, #1	@ tmp195,
 183 006a 9A63     		str	r2, [r3, #56]	@ tmp195, D.4836_18->IOCON_PIO1_9
 184              	.L11:
  47:timers.c      ****       if ((channels & TIMER_CHANNEL_1) != 0) IOCON->IOCON_PIO1_10  = PINFN_CT16B1_MAT1;
 185              		.loc 2 47 0 is_stmt 1
 186 006c 3A68     		ldr	r2, [r7]	@ tmp196, channels
 187 006e 0223     		mov	r3, #2	@ tmp197,
 188 0070 1340     		and	r3, r2	@ D.4837, tmp196
 189 0072 02D0     		beq	.L12	@,
 190              		.loc 2 47 0 is_stmt 0 discriminator 1
 191 0074 474B     		ldr	r3, .L22+4	@ D.4840,
ARM GAS  /tmp/ccCzidv9.s 			page 14


 192 0076 8222     		mov	r2, #130	@ tmp198,
 193 0078 DA66     		str	r2, [r3, #108]	@ tmp198, D.4840_20->IOCON_PIO1_10
 194              	.L12:
  48:timers.c      ****       SYSCON->SYSAHBCLKCTRL |= (AHBCLKCTRL_CT16B1); // turn on timer
 195              		.loc 2 48 0 is_stmt 1
 196 007a 474A     		ldr	r2, .L22+8	@ D.4841,
 197 007c 4649     		ldr	r1, .L22+8	@ D.4842,
 198 007e 8023     		mov	r3, #128	@ tmp199,
 199 0080 CB58     		ldr	r3, [r1, r3]	@ D.4843, D.4842_22->SYSAHBCLKCTRL
 200 0082 8021     		mov	r1, #128	@ tmp272,
 201 0084 4900     		lsl	r1, r1, #1	@ tmp200, tmp272,
 202 0086 1943     		orr	r1, r3	@ D.4844, D.4843
 203 0088 8023     		mov	r3, #128	@ tmp201,
 204 008a D150     		str	r1, [r2, r3]	@ D.4844, D.4841_21->SYSAHBCLKCTRL
 205 008c 41E0     		b	.L9	@
 206              	.L10:
  49:timers.c      **** 
  50:timers.c      ****    }
  51:timers.c      ****    else if (timer == CT32B0)
 207              		.loc 2 51 0
 208 008e FA68     		ldr	r2, [r7, #12]	@ tmp202, timer
 209 0090 434B     		ldr	r3, .L22+16	@ tmp203,
 210 0092 9A42     		cmp	r2, r3	@ tmp202, tmp203
 211 0094 19D1     		bne	.L13	@,
  52:timers.c      ****    {
  53:timers.c      ****       if ((channels & TIMER_CHANNEL_0) != 0) IOCON->IOCON_PIO1_6 = PINFN_CT32B0_MAT0;
 212              		.loc 2 53 0
 213 0096 3A68     		ldr	r2, [r7]	@ tmp204, channels
 214 0098 0123     		mov	r3, #1	@ tmp205,
 215 009a 1340     		and	r3, r2	@ D.4848, tmp204
 216 009c 03D0     		beq	.L14	@,
 217              		.loc 2 53 0 is_stmt 0 discriminator 1
 218 009e 3D4A     		ldr	r2, .L22+4	@ D.4851,
 219 00a0 A423     		mov	r3, #164	@ tmp206,
 220 00a2 0221     		mov	r1, #2	@ tmp207,
 221 00a4 D150     		str	r1, [r2, r3]	@ tmp207, D.4851_26->IOCON_PIO1_6
 222              	.L14:
  54:timers.c      ****       if ((channels & TIMER_CHANNEL_1) != 0) IOCON->IOCON_PIO1_7 = PINFN_CT32B0_MAT1;
 223              		.loc 2 54 0 is_stmt 1
 224 00a6 3A68     		ldr	r2, [r7]	@ tmp208, channels
 225 00a8 0223     		mov	r3, #2	@ tmp209,
 226 00aa 1340     		and	r3, r2	@ D.4852, tmp208
 227 00ac 03D0     		beq	.L15	@,
 228              		.loc 2 54 0 is_stmt 0 discriminator 1
 229 00ae 394A     		ldr	r2, .L22+4	@ D.4855,
 230 00b0 A823     		mov	r3, #168	@ tmp210,
 231 00b2 0221     		mov	r1, #2	@ tmp211,
 232 00b4 D150     		str	r1, [r2, r3]	@ tmp211, D.4855_28->IOCON_PIO1_7
 233              	.L15:
  55:timers.c      ****       SYSCON->SYSAHBCLKCTRL |= (AHBCLKCTRL_CT32B0); // turn on timer
 234              		.loc 2 55 0 is_stmt 1
 235 00b6 384A     		ldr	r2, .L22+8	@ D.4856,
 236 00b8 3749     		ldr	r1, .L22+8	@ D.4857,
 237 00ba 8023     		mov	r3, #128	@ tmp212,
 238 00bc CB58     		ldr	r3, [r1, r3]	@ D.4858, D.4857_30->SYSAHBCLKCTRL
 239 00be 8021     		mov	r1, #128	@ tmp271,
 240 00c0 8900     		lsl	r1, r1, #2	@ tmp213, tmp271,
ARM GAS  /tmp/ccCzidv9.s 			page 15


 241 00c2 1943     		orr	r1, r3	@ D.4859, D.4858
 242 00c4 8023     		mov	r3, #128	@ tmp214,
 243 00c6 D150     		str	r1, [r2, r3]	@ D.4859, D.4856_29->SYSAHBCLKCTRL
 244 00c8 23E0     		b	.L9	@
 245              	.L13:
  56:timers.c      **** 
  57:timers.c      ****    }
  58:timers.c      ****    else if (timer == CT32B1)
 246              		.loc 2 58 0
 247 00ca FA68     		ldr	r2, [r7, #12]	@ tmp215, timer
 248 00cc 354B     		ldr	r3, .L22+20	@ tmp216,
 249 00ce 9A42     		cmp	r2, r3	@ tmp215, tmp216
 250 00d0 1FD1     		bne	.L9	@,
  59:timers.c      ****    {
  60:timers.c      ****       if ((channels & TIMER_CHANNEL_0) != 0) IOCON->IOCON_R_PIO1_1 = PINFN_CT32B1_MAT0;
 251              		.loc 2 60 0
 252 00d2 3A68     		ldr	r2, [r7]	@ tmp217, channels
 253 00d4 0123     		mov	r3, #1	@ tmp218,
 254 00d6 1340     		and	r3, r2	@ D.4863, tmp217
 255 00d8 02D0     		beq	.L16	@,
 256              		.loc 2 60 0 is_stmt 0 discriminator 1
 257 00da 2E4B     		ldr	r3, .L22+4	@ D.4866,
 258 00dc 8322     		mov	r2, #131	@ tmp219,
 259 00de DA67     		str	r2, [r3, #124]	@ tmp219, D.4866_34->IOCON_R_PIO1_1
 260              	.L16:
  61:timers.c      ****       if ((channels & TIMER_CHANNEL_1) != 0) IOCON->IOCON_R_PIO1_2 = PINFN_CT32B1_MAT1;
 261              		.loc 2 61 0 is_stmt 1
 262 00e0 3A68     		ldr	r2, [r7]	@ tmp220, channels
 263 00e2 0223     		mov	r3, #2	@ tmp221,
 264 00e4 1340     		and	r3, r2	@ D.4867, tmp220
 265 00e6 03D0     		beq	.L17	@,
 266              		.loc 2 61 0 is_stmt 0 discriminator 1
 267 00e8 2A4A     		ldr	r2, .L22+4	@ D.4870,
 268 00ea 8023     		mov	r3, #128	@ tmp222,
 269 00ec 8321     		mov	r1, #131	@ tmp223,
 270 00ee D150     		str	r1, [r2, r3]	@ tmp223, D.4870_36->IOCON_R_PIO1_2
 271              	.L17:
  62:timers.c      ****       if ((channels & TIMER_CHANNEL_2) != 0) IOCON->IOCON_SWDIO_PIO1_3 = PINFN_CT32B1_MAT2;
 272              		.loc 2 62 0 is_stmt 1
 273 00f0 3A68     		ldr	r2, [r7]	@ tmp224, channels
 274 00f2 0423     		mov	r3, #4	@ tmp225,
 275 00f4 1340     		and	r3, r2	@ D.4871, tmp224
 276 00f6 03D0     		beq	.L18	@,
 277              		.loc 2 62 0 is_stmt 0 discriminator 1
 278 00f8 264A     		ldr	r2, .L22+4	@ D.4874,
 279 00fa 9023     		mov	r3, #144	@ tmp226,
 280 00fc 8321     		mov	r1, #131	@ tmp227,
 281 00fe D150     		str	r1, [r2, r3]	@ tmp227, D.4874_38->IOCON_SWDIO_PIO1_3
 282              	.L18:
  63:timers.c      ****       SYSCON->SYSAHBCLKCTRL |= (AHBCLKCTRL_CT32B1); // turn on timer
 283              		.loc 2 63 0 is_stmt 1
 284 0100 254A     		ldr	r2, .L22+8	@ D.4875,
 285 0102 2549     		ldr	r1, .L22+8	@ D.4876,
 286 0104 8023     		mov	r3, #128	@ tmp228,
 287 0106 CB58     		ldr	r3, [r1, r3]	@ D.4877, D.4876_40->SYSAHBCLKCTRL
 288 0108 8021     		mov	r1, #128	@ tmp270,
 289 010a C900     		lsl	r1, r1, #3	@ tmp229, tmp270,
ARM GAS  /tmp/ccCzidv9.s 			page 16


 290 010c 1943     		orr	r1, r3	@ D.4878, D.4877
 291 010e 8023     		mov	r3, #128	@ tmp230,
 292 0110 D150     		str	r1, [r2, r3]	@ D.4878, D.4875_39->SYSAHBCLKCTRL
 293              	.L9:
  64:timers.c      ****    }
  65:timers.c      **** 
  66:timers.c      **** 
  67:timers.c      ****    timer->PR = prescale-1;             // set reg to prescale value
 294              		.loc 2 67 0
 295 0112 BB68     		ldr	r3, [r7, #8]	@ tmp231, prescale
 296 0114 5A1E     		sub	r2, r3, #1	@ D.4879, tmp231,
 297 0116 FB68     		ldr	r3, [r7, #12]	@ tmp232, timer
 298 0118 DA60     		str	r2, [r3, #12]	@ D.4879, timer_5(D)->PR
  68:timers.c      ****    timer->MR3 = cycle_length - 1;      // number of clocks for complete cycle
 299              		.loc 2 68 0
 300 011a 7B68     		ldr	r3, [r7, #4]	@ tmp233, cycle_length
 301 011c 5A1E     		sub	r2, r3, #1	@ D.4880, tmp233,
 302 011e FB68     		ldr	r3, [r7, #12]	@ tmp234, timer
 303 0120 5A62     		str	r2, [r3, #36]	@ D.4880, timer_5(D)->MR3
  69:timers.c      ****    timer->PWMC = channels & 0x07;;     // turn on pwm channels
 304              		.loc 2 69 0
 305 0122 3A68     		ldr	r2, [r7]	@ tmp235, channels
 306 0124 0723     		mov	r3, #7	@ tmp236,
 307 0126 1A40     		and	r2, r3	@ D.4881, tmp236
 308 0128 FB68     		ldr	r3, [r7, #12]	@ tmp237, timer
 309 012a 5A67     		str	r2, [r3, #116]	@ D.4881, timer_5(D)->PWMC
  70:timers.c      ****    timer->MCR = (1<<10);               // reset on match 3
 310              		.loc 2 70 0
 311 012c FB68     		ldr	r3, [r7, #12]	@ tmp238, timer
 312 012e 8022     		mov	r2, #128	@ tmp269,
 313 0130 D200     		lsl	r2, r2, #3	@ tmp239, tmp269,
 314 0132 5A61     		str	r2, [r3, #20]	@ tmp239, timer_5(D)->MCR
  71:timers.c      **** 
  72:timers.c      ****    if ((channels & TIMER_CHANNEL_0) != 0)
 315              		.loc 2 72 0
 316 0134 3A68     		ldr	r2, [r7]	@ tmp240, channels
 317 0136 0123     		mov	r3, #1	@ tmp241,
 318 0138 1340     		and	r3, r2	@ D.4882, tmp240
 319 013a 07D0     		beq	.L19	@,
  73:timers.c      ****    {
  74:timers.c      ****       emr_value |= (2<<4);             // set output on match
 320              		.loc 2 74 0
 321 013c 7B69     		ldr	r3, [r7, #20]	@ tmp243, emr_value
 322 013e 2022     		mov	r2, #32	@ tmp244,
 323 0140 1343     		orr	r3, r2	@ tmp242, tmp244
 324 0142 7B61     		str	r3, [r7, #20]	@ tmp242, emr_value
  75:timers.c      ****       timer->MR0 = 0xffffffff;         // start with no outputs
 325              		.loc 2 75 0
 326 0144 FB68     		ldr	r3, [r7, #12]	@ tmp245, timer
 327 0146 0122     		mov	r2, #1	@ tmp268,
 328 0148 5242     		neg	r2, r2	@ tmp246, tmp268
 329 014a 9A61     		str	r2, [r3, #24]	@ tmp246, timer_5(D)->MR0
 330              	.L19:
  76:timers.c      ****    }
  77:timers.c      ****    if ((channels & TIMER_CHANNEL_1) != 0)
 331              		.loc 2 77 0
 332 014c 3A68     		ldr	r2, [r7]	@ tmp247, channels
ARM GAS  /tmp/ccCzidv9.s 			page 17


 333 014e 0223     		mov	r3, #2	@ tmp248,
 334 0150 1340     		and	r3, r2	@ D.4885, tmp247
 335 0152 07D0     		beq	.L20	@,
  78:timers.c      ****    {
  79:timers.c      ****       emr_value |= (2<<6);
 336              		.loc 2 79 0
 337 0154 7B69     		ldr	r3, [r7, #20]	@ tmp250, emr_value
 338 0156 8022     		mov	r2, #128	@ tmp251,
 339 0158 1343     		orr	r3, r2	@ tmp249, tmp251
 340 015a 7B61     		str	r3, [r7, #20]	@ tmp249, emr_value
  80:timers.c      ****       timer->MR1 = 0xffffffff;
 341              		.loc 2 80 0
 342 015c FB68     		ldr	r3, [r7, #12]	@ tmp252, timer
 343 015e 0122     		mov	r2, #1	@ tmp267,
 344 0160 5242     		neg	r2, r2	@ tmp253, tmp267
 345 0162 DA61     		str	r2, [r3, #28]	@ tmp253, timer_5(D)->MR1
 346              	.L20:
  81:timers.c      ****    }
  82:timers.c      ****    if ((channels & TIMER_CHANNEL_2) != 0)
 347              		.loc 2 82 0
 348 0164 3A68     		ldr	r2, [r7]	@ tmp254, channels
 349 0166 0423     		mov	r3, #4	@ tmp255,
 350 0168 1340     		and	r3, r2	@ D.4888, tmp254
 351 016a 08D0     		beq	.L21	@,
  83:timers.c      ****    {
  84:timers.c      ****       emr_value |= (2<<8);
 352              		.loc 2 84 0
 353 016c 7B69     		ldr	r3, [r7, #20]	@ tmp257, emr_value
 354 016e 8022     		mov	r2, #128	@ tmp265,
 355 0170 9200     		lsl	r2, r2, #2	@ tmp258, tmp265,
 356 0172 1343     		orr	r3, r2	@ tmp256, tmp258
 357 0174 7B61     		str	r3, [r7, #20]	@ tmp256, emr_value
  85:timers.c      ****       timer->MR2 = 0xffffffff;
 358              		.loc 2 85 0
 359 0176 FB68     		ldr	r3, [r7, #12]	@ tmp259, timer
 360 0178 0122     		mov	r2, #1	@ tmp266,
 361 017a 5242     		neg	r2, r2	@ tmp260, tmp266
 362 017c 1A62     		str	r2, [r3, #32]	@ tmp260, timer_5(D)->MR2
 363              	.L21:
  86:timers.c      ****    }
  87:timers.c      ****    timer->EMR = emr_value; // set outputs on match
 364              		.loc 2 87 0
 365 017e FB68     		ldr	r3, [r7, #12]	@ tmp261, timer
 366 0180 7A69     		ldr	r2, [r7, #20]	@ tmp262, emr_value
 367 0182 DA63     		str	r2, [r3, #60]	@ tmp262, timer_5(D)->EMR
  88:timers.c      ****    timer->TCR = 1;
 368              		.loc 2 88 0
 369 0184 FB68     		ldr	r3, [r7, #12]	@ tmp263, timer
 370 0186 0122     		mov	r2, #1	@ tmp264,
 371 0188 5A60     		str	r2, [r3, #4]	@ tmp264, timer_5(D)->TCR
  89:timers.c      **** }
 372              		.loc 2 89 0
 373 018a BD46     		mov	sp, r7	@,
 374 018c 06B0     		add	sp, sp, #24	@,,
 375              		@ sp needed for prologue	@
 376 018e 80BD     		pop	{r7, pc}
 377              	.L23:
ARM GAS  /tmp/ccCzidv9.s 			page 18


 378              		.align	2
 379              	.L22:
 380 0190 00C00040 		.word	1073790976
 381 0194 00400440 		.word	1074020352
 382 0198 00800440 		.word	1074036736
 383 019c 00000140 		.word	1073807360
 384 01a0 00400140 		.word	1073823744
 385 01a4 00800140 		.word	1073840128
 386              		.cfi_endproc
 387              	.LFE33:
 388              		.size	pwm_init, .-pwm_init
 389              		.section	.text.pwm_set,"ax",%progbits
 390              		.align	2
 391              		.global	pwm_set
 392              		.code	16
 393              		.thumb_func
 394              		.type	pwm_set, %function
 395              	pwm_set:
 396              	.LFB34:
  90:timers.c      **** 
  91:timers.c      **** //////////////////////////////////////////////////////////////////////////////
  92:timers.c      **** ///
  93:timers.c      **** /// \b pwm_set
  94:timers.c      **** ///
  95:timers.c      **** ///  @brief sets a pwm channel pulse width
  96:timers.c      **** ///
  97:timers.c      **** ///  @param[in]  timer   which timer to use
  98:timers.c      **** ///  @param[in]  channel which channel to set
  99:timers.c      **** ///  @param[in]  width   output pulse width (high)
 100:timers.c      **** ///
 101:timers.c      **** ///  @remark     pulse high time is at end of cycle
 102:timers.c      **** ///
 103:timers.c      **** //////////////////////////////////////////////////////////////////////////////
 104:timers.c      **** void pwm_set(ctxxb_t *timer, uint32_t channel, uint32_t width)
 105:timers.c      **** {
 397              		.loc 2 105 0
 398              		.cfi_startproc
 399 0000 80B5     		push	{r7, lr}	@
 400              	.LCFI6:
 401              		.cfi_def_cfa_offset 8
 402              		.cfi_offset 7, -8
 403              		.cfi_offset 14, -4
 404 0002 86B0     		sub	sp, sp, #24	@,,
 405              	.LCFI7:
 406              		.cfi_def_cfa_offset 32
 407 0004 00AF     		add	r7, sp, #0	@,,
 408              	.LCFI8:
 409              		.cfi_def_cfa_register 7
 410 0006 F860     		str	r0, [r7, #12]	@ timer, timer
 411 0008 B960     		str	r1, [r7, #8]	@ channel, channel
 412 000a 7A60     		str	r2, [r7, #4]	@ width, width
 106:timers.c      ****    uint32_t value = timer->MR3 - width;
 413              		.loc 2 106 0
 414 000c FB68     		ldr	r3, [r7, #12]	@ tmp138, timer
 415 000e 5A6A     		ldr	r2, [r3, #36]	@ D.4804, timer_2(D)->MR3
 416 0010 7B68     		ldr	r3, [r7, #4]	@ tmp140, width
 417 0012 D31A     		sub	r3, r2, r3	@ tmp139, D.4804, tmp140
ARM GAS  /tmp/ccCzidv9.s 			page 19


 418 0014 7B61     		str	r3, [r7, #20]	@ tmp139, value
 107:timers.c      ****    if (timer == CT16B1 | timer == CT16B0)
 419              		.loc 2 107 0
 420 0016 FB68     		ldr	r3, [r7, #12]	@ tmp142, timer
 421 0018 1449     		ldr	r1, .L32	@,
 422 001a 5B18     		add	r3, r3, r1	@ tmp144, tmp142,
 423 001c 5A42     		neg	r2, r3	@ tmp145, tmp144
 424 001e 5341     		adc	r3, r3, r2	@ tmp143, tmp144, tmp145
 425 0020 DAB2     		uxtb	r2, r3	@ D.4805, tmp141
 426 0022 FB68     		ldr	r3, [r7, #12]	@ tmp147, timer
 427 0024 1249     		ldr	r1, .L32+4	@,
 428 0026 5B18     		add	r3, r3, r1	@ tmp149, tmp147,
 429 0028 5942     		neg	r1, r3	@ tmp150, tmp149
 430 002a 4B41     		adc	r3, r3, r1	@ tmp148, tmp149, tmp150
 431 002c DBB2     		uxtb	r3, r3	@ D.4806, tmp146
 432 002e 1343     		orr	r3, r2	@ tmp151, D.4805
 433 0030 DBB2     		uxtb	r3, r3	@ D.4807, tmp151
 434 0032 002B     		cmp	r3, #0	@ D.4807,
 435 0034 03D0     		beq	.L25	@,
 108:timers.c      ****    {
 109:timers.c      ****       value &= 0xffff;
 436              		.loc 2 109 0
 437 0036 7B69     		ldr	r3, [r7, #20]	@ tmp153, value
 438 0038 1B04     		lsl	r3, r3, #16	@ tmp154, tmp153,
 439 003a 1B0C     		lsr	r3, r3, #16	@ tmp152, tmp154,
 440 003c 7B61     		str	r3, [r7, #20]	@ tmp152, value
 441              	.L25:
 110:timers.c      ****    }
 111:timers.c      ****    if (width != 0xffffffff)
 112:timers.c      ****    {
 113:timers.c      ****       //timer->MR3 = width - 1;
 114:timers.c      ****    }
 115:timers.c      ****    switch (channel)
 442              		.loc 2 115 0
 443 003e BB68     		ldr	r3, [r7, #8]	@ tmp155, channel
 444 0040 022B     		cmp	r3, #2	@ tmp155,
 445 0042 07D0     		beq	.L28	@,
 446 0044 042B     		cmp	r3, #4	@ tmp155,
 447 0046 09D0     		beq	.L29	@,
 448 0048 012B     		cmp	r3, #1	@ tmp155,
 449 004a 0BD1     		bne	.L31	@,
 450              	.L27:
 116:timers.c      ****    {
 117:timers.c      ****    case TIMER_CHANNEL_0:
 118:timers.c      ****       timer->MR0 = value;
 451              		.loc 2 118 0
 452 004c FB68     		ldr	r3, [r7, #12]	@ tmp156, timer
 453 004e 7A69     		ldr	r2, [r7, #20]	@ tmp157, value
 454 0050 9A61     		str	r2, [r3, #24]	@ tmp157, timer_2(D)->MR0
 119:timers.c      ****       break;
 455              		.loc 2 119 0
 456 0052 08E0     		b	.L24	@
 457              	.L28:
 120:timers.c      ****    case TIMER_CHANNEL_1:
 121:timers.c      ****       timer->MR1 = value;
 458              		.loc 2 121 0
 459 0054 FB68     		ldr	r3, [r7, #12]	@ tmp158, timer
ARM GAS  /tmp/ccCzidv9.s 			page 20


 460 0056 7A69     		ldr	r2, [r7, #20]	@ tmp159, value
 461 0058 DA61     		str	r2, [r3, #28]	@ tmp159, timer_2(D)->MR1
 122:timers.c      ****       break;
 462              		.loc 2 122 0
 463 005a 04E0     		b	.L24	@
 464              	.L29:
 123:timers.c      ****    case TIMER_CHANNEL_2:
 124:timers.c      ****       timer->MR2 = value;
 465              		.loc 2 124 0
 466 005c FB68     		ldr	r3, [r7, #12]	@ tmp160, timer
 467 005e 7A69     		ldr	r2, [r7, #20]	@ tmp161, value
 468 0060 1A62     		str	r2, [r3, #32]	@ tmp161, timer_2(D)->MR2
 125:timers.c      ****       break;
 469              		.loc 2 125 0
 470 0062 00E0     		b	.L24	@
 471              	.L31:
 126:timers.c      ****    default:
 127:timers.c      ****       break;
 472              		.loc 2 127 0
 473 0064 C046     		mov	r8, r8
 474              	.L24:
 128:timers.c      ****    }
 129:timers.c      **** }
 475              		.loc 2 129 0
 476 0066 BD46     		mov	sp, r7	@,
 477 0068 06B0     		add	sp, sp, #24	@,,
 478              		@ sp needed for prologue	@
 479 006a 80BD     		pop	{r7, pc}
 480              	.L33:
 481              		.align	2
 482              	.L32:
 483 006c 0000FFBF 		.word	-1073807360
 484 0070 0040FFBF 		.word	-1073790976
 485              		.cfi_endproc
 486              	.LFE34:
 487              		.size	pwm_set, .-pwm_set
 488              		.section	.text.capture_init,"ax",%progbits
 489              		.align	2
 490              		.global	capture_init
 491              		.code	16
 492              		.thumb_func
 493              		.type	capture_init, %function
 494              	capture_init:
 495              	.LFB35:
 130:timers.c      **** 
 131:timers.c      **** 
 132:timers.c      **** //////////////////////////////////////////////////////////////////////////////
 133:timers.c      **** ///
 134:timers.c      **** ///  \b capture_init
 135:timers.c      **** ///
 136:timers.c      **** ///  @param[in]  timer  which timer to use
 137:timers.c      **** ///  @param[in]  edge   which edge to capture
 138:timers.c      **** ///
 139:timers.c      **** ///  @remark    Timer needs to already be set up.  Only the capture is set up
 140:timers.c      **** ///             here.
 141:timers.c      **** ///
 142:timers.c      **** //////////////////////////////////////////////////////////////////////////////
ARM GAS  /tmp/ccCzidv9.s 			page 21


 143:timers.c      **** void capture_init(ctxxb_t *timer, uint32_t edge)
 144:timers.c      **** {
 496              		.loc 2 144 0
 497              		.cfi_startproc
 498 0000 80B5     		push	{r7, lr}	@
 499              	.LCFI9:
 500              		.cfi_def_cfa_offset 8
 501              		.cfi_offset 7, -8
 502              		.cfi_offset 14, -4
 503 0002 82B0     		sub	sp, sp, #8	@,,
 504              	.LCFI10:
 505              		.cfi_def_cfa_offset 16
 506 0004 00AF     		add	r7, sp, #0	@,,
 507              	.LCFI11:
 508              		.cfi_def_cfa_register 7
 509 0006 7860     		str	r0, [r7, #4]	@ timer, timer
 510 0008 3960     		str	r1, [r7]	@ edge, edge
 145:timers.c      ****    if (timer == CT16B0)
 511              		.loc 2 145 0
 512 000a 7A68     		ldr	r2, [r7, #4]	@ tmp140, timer
 513 000c 164B     		ldr	r3, .L40	@ tmp141,
 514 000e 9A42     		cmp	r2, r3	@ tmp140, tmp141
 515 0010 03D1     		bne	.L35	@,
 146:timers.c      ****    {
 147:timers.c      ****       IOCON->IOCON_PIO0_2 = PINFN_CT16B0_CAP0;
 516              		.loc 2 147 0
 517 0012 164B     		ldr	r3, .L40+4	@ D.4781,
 518 0014 0222     		mov	r2, #2	@ tmp142,
 519 0016 DA61     		str	r2, [r3, #28]	@ tmp142, D.4781_2->IOCON_PIO0_2
 520 0018 17E0     		b	.L36	@
 521              	.L35:
 148:timers.c      ****    }
 149:timers.c      ****    else if (timer == CT16B1)
 522              		.loc 2 149 0
 523 001a 7A68     		ldr	r2, [r7, #4]	@ tmp143, timer
 524 001c 144B     		ldr	r3, .L40+8	@ tmp144,
 525 001e 9A42     		cmp	r2, r3	@ tmp143, tmp144
 526 0020 03D1     		bne	.L37	@,
 150:timers.c      ****    {
 151:timers.c      ****       IOCON->IOCON_PIO1_8 = PINFN_CT16B1_CAP0;
 527              		.loc 2 151 0
 528 0022 124B     		ldr	r3, .L40+4	@ D.4785,
 529 0024 0122     		mov	r2, #1	@ tmp145,
 530 0026 5A61     		str	r2, [r3, #20]	@ tmp145, D.4785_3->IOCON_PIO1_8
 531 0028 0FE0     		b	.L36	@
 532              	.L37:
 152:timers.c      ****    }
 153:timers.c      ****    else if (timer == CT32B0)
 533              		.loc 2 153 0
 534 002a 7A68     		ldr	r2, [r7, #4]	@ tmp146, timer
 535 002c 114B     		ldr	r3, .L40+12	@ tmp147,
 536 002e 9A42     		cmp	r2, r3	@ tmp146, tmp147
 537 0030 04D1     		bne	.L38	@,
 154:timers.c      ****    {
 155:timers.c      ****       IOCON->IOCON_PIO1_5 = PINFN_CT32B0_CAP0;
 538              		.loc 2 155 0
 539 0032 0E4A     		ldr	r2, .L40+4	@ D.4789,
ARM GAS  /tmp/ccCzidv9.s 			page 22


 540 0034 A023     		mov	r3, #160	@ tmp148,
 541 0036 0221     		mov	r1, #2	@ tmp149,
 542 0038 D150     		str	r1, [r2, r3]	@ tmp149, D.4789_4->IOCON_PIO1_5
 543 003a 06E0     		b	.L36	@
 544              	.L38:
 156:timers.c      ****    }
 157:timers.c      ****    else if (timer == CT32B1)
 545              		.loc 2 157 0
 546 003c 7A68     		ldr	r2, [r7, #4]	@ tmp150, timer
 547 003e 0E4B     		ldr	r3, .L40+16	@ tmp151,
 548 0040 9A42     		cmp	r2, r3	@ tmp150, tmp151
 549 0042 02D1     		bne	.L36	@,
 158:timers.c      ****    {
 159:timers.c      ****       IOCON->IOCON_R_PIO1_0 = PINFN_CT32B1_CAP0;
 550              		.loc 2 159 0
 551 0044 094B     		ldr	r3, .L40+4	@ D.4793,
 552 0046 8322     		mov	r2, #131	@ tmp152,
 553 0048 9A67     		str	r2, [r3, #120]	@ tmp152, D.4793_5->IOCON_R_PIO1_0
 554              	.L36:
 160:timers.c      ****    }
 161:timers.c      ****    
 162:timers.c      **** 
 163:timers.c      ****    timer->CCR = edge & 0x7; // choose edges and interrupt
 555              		.loc 2 163 0
 556 004a 3A68     		ldr	r2, [r7]	@ tmp153, edge
 557 004c 0723     		mov	r3, #7	@ tmp154,
 558 004e 1A40     		and	r2, r3	@ D.4794, tmp154
 559 0050 7B68     		ldr	r3, [r7, #4]	@ tmp155, timer
 560 0052 9A62     		str	r2, [r3, #40]	@ D.4794, timer_1(D)->CCR
 164:timers.c      ****    if (edge & TIMER_CAPTURE_IRQ_ENABLE != 0)
 561              		.loc 2 164 0
 562 0054 3A68     		ldr	r2, [r7]	@ tmp156, edge
 563 0056 0123     		mov	r3, #1	@ tmp157,
 564 0058 1340     		and	r3, r2	@ D.4795, tmp156
 565 005a 02D0     		beq	.L34	@,
 165:timers.c      ****    {
 166:timers.c      ****       NVIC_EnableIRQ(17);
 566              		.loc 2 166 0
 567 005c 1120     		mov	r0, #17	@,
 568 005e FFF7FEFF 		bl	NVIC_EnableIRQ	@
 569              	.L34:
 167:timers.c      ****    }
 168:timers.c      **** }
 570              		.loc 2 168 0
 571 0062 BD46     		mov	sp, r7	@,
 572 0064 02B0     		add	sp, sp, #8	@,,
 573              		@ sp needed for prologue	@
 574 0066 80BD     		pop	{r7, pc}
 575              	.L41:
 576              		.align	2
 577              	.L40:
 578 0068 00C00040 		.word	1073790976
 579 006c 00400440 		.word	1074020352
 580 0070 00000140 		.word	1073807360
 581 0074 00400140 		.word	1073823744
 582 0078 00800140 		.word	1073840128
 583              		.cfi_endproc
ARM GAS  /tmp/ccCzidv9.s 			page 23


 584              	.LFE35:
 585              		.size	capture_init, .-capture_init
 586              		.section	.text.get_capture,"ax",%progbits
 587              		.align	2
 588              		.global	get_capture
 589              		.code	16
 590              		.thumb_func
 591              		.type	get_capture, %function
 592              	get_capture:
 593              	.LFB36:
 169:timers.c      **** 
 170:timers.c      **** 
 171:timers.c      **** //////////////////////////////////////////////////////////////////////////////
 172:timers.c      **** ///
 173:timers.c      **** ///  \b get_capture
 174:timers.c      **** ///
 175:timers.c      **** ///  @param[in]  timer  which timer to get
 176:timers.c      **** ///
 177:timers.c      **** ///  @remark  returns latest capture value of timer
 178:timers.c      **** ///
 179:timers.c      **** //////////////////////////////////////////////////////////////////////////////
 180:timers.c      **** uint32_t get_capture( ctxxb_t *timer)
 181:timers.c      **** {
 594              		.loc 2 181 0
 595              		.cfi_startproc
 596 0000 80B5     		push	{r7, lr}	@
 597              	.LCFI12:
 598              		.cfi_def_cfa_offset 8
 599              		.cfi_offset 7, -8
 600              		.cfi_offset 14, -4
 601 0002 82B0     		sub	sp, sp, #8	@,,
 602              	.LCFI13:
 603              		.cfi_def_cfa_offset 16
 604 0004 00AF     		add	r7, sp, #0	@,,
 605              	.LCFI14:
 606              		.cfi_def_cfa_register 7
 607 0006 7860     		str	r0, [r7, #4]	@ timer, timer
 182:timers.c      **** }
 608              		.loc 2 182 0
 609 0008 181C     		mov	r0, r3	@, <retval>
 610 000a BD46     		mov	sp, r7	@,
 611 000c 02B0     		add	sp, sp, #8	@,,
 612              		@ sp needed for prologue	@
 613 000e 80BD     		pop	{r7, pc}
 614              		.cfi_endproc
 615              	.LFE36:
 616              		.size	get_capture, .-get_capture
 617              		.text
 618              	.Letext0:
 619              		.file 3 "/opt/gcc-arm-none-eabi-4_7-2013q2/bin/../lib/gcc/arm-none-eabi/4.7.4/../../../../arm-none
 620              		.file 4 "/home/wrcooke/git/projects/arm_gcc/include/LPC11xx.h"
 621              		.file 5 "timers.h"