ARM GAS  /tmp/cclNLZpg.s 			page 1


   1              		.cpu cortex-m0
   2              		.fpu softvfp
   3              		.eabi_attribute 20, 1	@ Tag_ABI_FP_denormal
   4              		.eabi_attribute 21, 1	@ Tag_ABI_FP_exceptions
   5              		.eabi_attribute 23, 3	@ Tag_ABI_FP_number_model
   6              		.eabi_attribute 24, 1	@ Tag_ABI_align8_needed
   7              		.eabi_attribute 25, 1	@ Tag_ABI_align8_preserved
   8              		.eabi_attribute 26, 1	@ Tag_ABI_enum_size
   9              		.eabi_attribute 30, 6	@ Tag_ABI_optimization_goals
  10              		.eabi_attribute 34, 0	@ Tag_CPU_unaligned_access
  11              		.eabi_attribute 18, 4	@ Tag_ABI_PCS_wchar_t
  12              		.file	"uart.c"
  13              	@ GNU C (GNU Tools for ARM Embedded Processors) version 4.7.4 20130613 (release) [ARM/embedded-4_7-
  14              	@	compiled by GNU C version 4.3.6, GMP version 4.3.2, MPFR version 2.4.2, MPC version 0.8.1
  15              	@ GGC heuristics: --param ggc-min-expand=100 --param ggc-min-heapsize=131072
  16              	@ options passed:  -I . -I /home/wrcooke/git/projects/arm_gcc/include
  17              	@ -imultilib armv6-m
  18              	@ -iprefix /opt/gcc-arm-none-eabi-4_7-2013q2/bin/../lib/gcc/arm-none-eabi/4.7.4/
  19              	@ -isysroot /opt/gcc-arm-none-eabi-4_7-2013q2/bin/../arm-none-eabi
  20              	@ -MD out/uart.d -MF out/uart.d -MP -MQ out/uart.o -D__USES_INITFINI__
  21              	@ uart.c -mcpu=cortex-m0 -mthumb -auxbase-strip out/uart.o -g -ggdb3 -O0
  22              	@ -Wall -Wstrict-prototypes -Wextra -std=gnu99 -ffunction-sections
  23              	@ -fdata-sections -fverbose-asm
  24              	@ options enabled:  -fauto-inc-dec -fbranch-count-reg -fcommon
  25              	@ -fdata-sections -fdebug-types-section -fdelete-null-pointer-checks
  26              	@ -fdwarf2-cfi-asm -fearly-inlining -feliminate-unused-debug-types
  27              	@ -ffunction-cse -ffunction-sections -fgcse-lm -fgnu-runtime -fident
  28              	@ -finline-atomics -fira-hoist-pressure -fira-share-save-slots
  29              	@ -fira-share-spill-slots -fivopts -fkeep-static-consts
  30              	@ -fleading-underscore -fmath-errno -fmerge-debug-strings
  31              	@ -fmove-loop-invariants -fpeephole -fprefetch-loop-arrays
  32              	@ -freg-struct-return -fsched-critical-path-heuristic
  33              	@ -fsched-dep-count-heuristic -fsched-group-heuristic -fsched-interblock
  34              	@ -fsched-last-insn-heuristic -fsched-rank-heuristic -fsched-spec
  35              	@ -fsched-spec-insn-heuristic -fsched-stalled-insns-dep -fshow-column
  36              	@ -fsigned-zeros -fsplit-ivs-in-unroller -fstrict-volatile-bitfields
  37              	@ -ftrapping-math -ftree-cselim -ftree-forwprop -ftree-loop-if-convert
  38              	@ -ftree-loop-im -ftree-loop-ivcanon -ftree-loop-optimize
  39              	@ -ftree-parallelize-loops= -ftree-phiprop -ftree-pta -ftree-reassoc
  40              	@ -ftree-scev-cprop -ftree-slp-vectorize -ftree-vect-loop-version
  41              	@ -funit-at-a-time -fverbose-asm -fzero-initialized-in-bss -mlittle-endian
  42              	@ -msched-prolog -mthumb -mvectorize-with-neon-quad
  43              	
  44              		.text
  45              	.Ltext0:
  46              		.cfi_sections	.debug_frame
  47              		.section	.text.NVIC_EnableIRQ,"ax",%progbits
  48              		.align	2
  49              		.code	16
  50              		.thumb_func
  51              		.type	NVIC_EnableIRQ, %function
  52              	NVIC_EnableIRQ:
  53              	.LFB24:
  54              		.file 1 "/home/wrcooke/git/projects/arm_gcc/include/core_cm0.h"
   1:/home/wrcooke/git/projects/arm_gcc/include/core_cm0.h **** /**************************************************************************//**
   2:/home/wrcooke/git/projects/arm_gcc/include/core_cm0.h ****  * @file     core_cm0.h
   3:/home/wrcooke/git/projects/arm_gcc/include/core_cm0.h ****  * @brief    CMSIS Cortex-M0 Core Peripheral Access Layer Header File
ARM GAS  /tmp/cclNLZpg.s 			page 2


   4:/home/wrcooke/git/projects/arm_gcc/include/core_cm0.h ****  * @version  V3.01
   5:/home/wrcooke/git/projects/arm_gcc/include/core_cm0.h ****  * @date     13. March 2012
   6:/home/wrcooke/git/projects/arm_gcc/include/core_cm0.h ****  *
   7:/home/wrcooke/git/projects/arm_gcc/include/core_cm0.h ****  * @note
   8:/home/wrcooke/git/projects/arm_gcc/include/core_cm0.h ****  * Copyright (C) 2009-2012 ARM Limited. All rights reserved.
   9:/home/wrcooke/git/projects/arm_gcc/include/core_cm0.h ****  *
  10:/home/wrcooke/git/projects/arm_gcc/include/core_cm0.h ****  * @par
  11:/home/wrcooke/git/projects/arm_gcc/include/core_cm0.h ****  * ARM Limited (ARM) is supplying this software for use with Cortex-M
  12:/home/wrcooke/git/projects/arm_gcc/include/core_cm0.h ****  * processor based microcontrollers.  This file can be freely distributed
  13:/home/wrcooke/git/projects/arm_gcc/include/core_cm0.h ****  * within development tools that are supporting such ARM based processors.
  14:/home/wrcooke/git/projects/arm_gcc/include/core_cm0.h ****  *
  15:/home/wrcooke/git/projects/arm_gcc/include/core_cm0.h ****  * @par
  16:/home/wrcooke/git/projects/arm_gcc/include/core_cm0.h ****  * THIS SOFTWARE IS PROVIDED "AS IS".  NO WARRANTIES, WHETHER EXPRESS, IMPLIED
  17:/home/wrcooke/git/projects/arm_gcc/include/core_cm0.h ****  * OR STATUTORY, INCLUDING, BUT NOT LIMITED TO, IMPLIED WARRANTIES OF
  18:/home/wrcooke/git/projects/arm_gcc/include/core_cm0.h ****  * MERCHANTABILITY AND FITNESS FOR A PARTICULAR PURPOSE APPLY TO THIS SOFTWARE.
  19:/home/wrcooke/git/projects/arm_gcc/include/core_cm0.h ****  * ARM SHALL NOT, IN ANY CIRCUMSTANCES, BE LIABLE FOR SPECIAL, INCIDENTAL, OR
  20:/home/wrcooke/git/projects/arm_gcc/include/core_cm0.h ****  * CONSEQUENTIAL DAMAGES, FOR ANY REASON WHATSOEVER.
  21:/home/wrcooke/git/projects/arm_gcc/include/core_cm0.h ****  *
  22:/home/wrcooke/git/projects/arm_gcc/include/core_cm0.h ****  ******************************************************************************/
  23:/home/wrcooke/git/projects/arm_gcc/include/core_cm0.h **** #if defined ( __ICCARM__ )
  24:/home/wrcooke/git/projects/arm_gcc/include/core_cm0.h ****  #pragma system_include  /* treat file as system include file for MISRA check */
  25:/home/wrcooke/git/projects/arm_gcc/include/core_cm0.h **** #endif
  26:/home/wrcooke/git/projects/arm_gcc/include/core_cm0.h **** 
  27:/home/wrcooke/git/projects/arm_gcc/include/core_cm0.h **** #ifdef __cplusplus
  28:/home/wrcooke/git/projects/arm_gcc/include/core_cm0.h ****  extern "C" {
  29:/home/wrcooke/git/projects/arm_gcc/include/core_cm0.h **** #endif
  30:/home/wrcooke/git/projects/arm_gcc/include/core_cm0.h **** 
  31:/home/wrcooke/git/projects/arm_gcc/include/core_cm0.h **** #ifndef __CORE_CM0_H_GENERIC
  32:/home/wrcooke/git/projects/arm_gcc/include/core_cm0.h **** #define __CORE_CM0_H_GENERIC
  33:/home/wrcooke/git/projects/arm_gcc/include/core_cm0.h **** 
  34:/home/wrcooke/git/projects/arm_gcc/include/core_cm0.h **** /** \page CMSIS_MISRA_Exceptions  MISRA-C:2004 Compliance Exceptions
  35:/home/wrcooke/git/projects/arm_gcc/include/core_cm0.h ****   CMSIS violates the following MISRA-C:2004 rules:
  36:/home/wrcooke/git/projects/arm_gcc/include/core_cm0.h **** 
  37:/home/wrcooke/git/projects/arm_gcc/include/core_cm0.h ****    \li Required Rule 8.5, object/function definition in header file.<br>
  38:/home/wrcooke/git/projects/arm_gcc/include/core_cm0.h ****      Function definitions in header files are used to allow 'inlining'.
  39:/home/wrcooke/git/projects/arm_gcc/include/core_cm0.h **** 
  40:/home/wrcooke/git/projects/arm_gcc/include/core_cm0.h ****    \li Required Rule 18.4, declaration of union type or object of union type: '{...}'.<br>
  41:/home/wrcooke/git/projects/arm_gcc/include/core_cm0.h ****      Unions are used for effective representation of core registers.
  42:/home/wrcooke/git/projects/arm_gcc/include/core_cm0.h **** 
  43:/home/wrcooke/git/projects/arm_gcc/include/core_cm0.h ****    \li Advisory Rule 19.7, Function-like macro defined.<br>
  44:/home/wrcooke/git/projects/arm_gcc/include/core_cm0.h ****      Function-like macros are used to allow more efficient code.
  45:/home/wrcooke/git/projects/arm_gcc/include/core_cm0.h ****  */
  46:/home/wrcooke/git/projects/arm_gcc/include/core_cm0.h **** 
  47:/home/wrcooke/git/projects/arm_gcc/include/core_cm0.h **** 
  48:/home/wrcooke/git/projects/arm_gcc/include/core_cm0.h **** /*******************************************************************************
  49:/home/wrcooke/git/projects/arm_gcc/include/core_cm0.h ****  *                 CMSIS definitions
  50:/home/wrcooke/git/projects/arm_gcc/include/core_cm0.h ****  ******************************************************************************/
  51:/home/wrcooke/git/projects/arm_gcc/include/core_cm0.h **** /** \ingroup Cortex_M0
  52:/home/wrcooke/git/projects/arm_gcc/include/core_cm0.h ****   @{
  53:/home/wrcooke/git/projects/arm_gcc/include/core_cm0.h ****  */
  54:/home/wrcooke/git/projects/arm_gcc/include/core_cm0.h **** 
  55:/home/wrcooke/git/projects/arm_gcc/include/core_cm0.h **** /*  CMSIS CM0 definitions */
  56:/home/wrcooke/git/projects/arm_gcc/include/core_cm0.h **** #define __CM0_CMSIS_VERSION_MAIN  (0x03)                                   /*!< [31:16] CMSIS HAL m
  57:/home/wrcooke/git/projects/arm_gcc/include/core_cm0.h **** #define __CM0_CMSIS_VERSION_SUB   (0x01)                                   /*!< [15:0]  CMSIS HAL s
  58:/home/wrcooke/git/projects/arm_gcc/include/core_cm0.h **** #define __CM0_CMSIS_VERSION       ((__CM0_CMSIS_VERSION_MAIN << 16) | \
  59:/home/wrcooke/git/projects/arm_gcc/include/core_cm0.h ****                                     __CM0_CMSIS_VERSION_SUB          )     /*!< CMSIS HAL version n
  60:/home/wrcooke/git/projects/arm_gcc/include/core_cm0.h **** 
ARM GAS  /tmp/cclNLZpg.s 			page 3


  61:/home/wrcooke/git/projects/arm_gcc/include/core_cm0.h **** #define __CORTEX_M                (0x00)                                   /*!< Cortex-M Core      
  62:/home/wrcooke/git/projects/arm_gcc/include/core_cm0.h **** 
  63:/home/wrcooke/git/projects/arm_gcc/include/core_cm0.h **** 
  64:/home/wrcooke/git/projects/arm_gcc/include/core_cm0.h **** #if   defined ( __CC_ARM )
  65:/home/wrcooke/git/projects/arm_gcc/include/core_cm0.h ****   #define __ASM            __asm                                      /*!< asm keyword for ARM Comp
  66:/home/wrcooke/git/projects/arm_gcc/include/core_cm0.h ****   #define __INLINE         __inline                                   /*!< inline keyword for ARM C
  67:/home/wrcooke/git/projects/arm_gcc/include/core_cm0.h ****   #define __STATIC_INLINE  static __inline
  68:/home/wrcooke/git/projects/arm_gcc/include/core_cm0.h **** 
  69:/home/wrcooke/git/projects/arm_gcc/include/core_cm0.h **** #elif defined ( __ICCARM__ )
  70:/home/wrcooke/git/projects/arm_gcc/include/core_cm0.h ****   #define __ASM            __asm                                      /*!< asm keyword for IAR Comp
  71:/home/wrcooke/git/projects/arm_gcc/include/core_cm0.h ****   #define __INLINE         inline                                     /*!< inline keyword for IAR C
  72:/home/wrcooke/git/projects/arm_gcc/include/core_cm0.h ****   #define __STATIC_INLINE  static inline
  73:/home/wrcooke/git/projects/arm_gcc/include/core_cm0.h **** 
  74:/home/wrcooke/git/projects/arm_gcc/include/core_cm0.h **** #elif defined ( __GNUC__ )
  75:/home/wrcooke/git/projects/arm_gcc/include/core_cm0.h ****   #define __ASM            __asm                                      /*!< asm keyword for GNU Comp
  76:/home/wrcooke/git/projects/arm_gcc/include/core_cm0.h ****   #define __INLINE         inline                                     /*!< inline keyword for GNU C
  77:/home/wrcooke/git/projects/arm_gcc/include/core_cm0.h ****   #define __STATIC_INLINE  static inline
  78:/home/wrcooke/git/projects/arm_gcc/include/core_cm0.h **** 
  79:/home/wrcooke/git/projects/arm_gcc/include/core_cm0.h **** #elif defined ( __TASKING__ )
  80:/home/wrcooke/git/projects/arm_gcc/include/core_cm0.h ****   #define __ASM            __asm                                      /*!< asm keyword for TASKING 
  81:/home/wrcooke/git/projects/arm_gcc/include/core_cm0.h ****   #define __INLINE         inline                                     /*!< inline keyword for TASKI
  82:/home/wrcooke/git/projects/arm_gcc/include/core_cm0.h ****   #define __STATIC_INLINE  static inline
  83:/home/wrcooke/git/projects/arm_gcc/include/core_cm0.h **** 
  84:/home/wrcooke/git/projects/arm_gcc/include/core_cm0.h **** #endif
  85:/home/wrcooke/git/projects/arm_gcc/include/core_cm0.h **** 
  86:/home/wrcooke/git/projects/arm_gcc/include/core_cm0.h **** /** __FPU_USED indicates whether an FPU is used or not. This core does not support an FPU at all
  87:/home/wrcooke/git/projects/arm_gcc/include/core_cm0.h **** */
  88:/home/wrcooke/git/projects/arm_gcc/include/core_cm0.h **** #define __FPU_USED       0
  89:/home/wrcooke/git/projects/arm_gcc/include/core_cm0.h **** 
  90:/home/wrcooke/git/projects/arm_gcc/include/core_cm0.h **** #if defined ( __CC_ARM )
  91:/home/wrcooke/git/projects/arm_gcc/include/core_cm0.h ****   #if defined __TARGET_FPU_VFP
  92:/home/wrcooke/git/projects/arm_gcc/include/core_cm0.h ****     #warning "Compiler generates FPU instructions for a device without an FPU (check __FPU_PRESENT)
  93:/home/wrcooke/git/projects/arm_gcc/include/core_cm0.h ****   #endif
  94:/home/wrcooke/git/projects/arm_gcc/include/core_cm0.h **** 
  95:/home/wrcooke/git/projects/arm_gcc/include/core_cm0.h **** #elif defined ( __ICCARM__ )
  96:/home/wrcooke/git/projects/arm_gcc/include/core_cm0.h ****   #if defined __ARMVFP__
  97:/home/wrcooke/git/projects/arm_gcc/include/core_cm0.h ****     #warning "Compiler generates FPU instructions for a device without an FPU (check __FPU_PRESENT)
  98:/home/wrcooke/git/projects/arm_gcc/include/core_cm0.h ****   #endif
  99:/home/wrcooke/git/projects/arm_gcc/include/core_cm0.h **** 
 100:/home/wrcooke/git/projects/arm_gcc/include/core_cm0.h **** #elif defined ( __GNUC__ )
 101:/home/wrcooke/git/projects/arm_gcc/include/core_cm0.h ****   #if defined (__VFP_FP__) && !defined(__SOFTFP__)
 102:/home/wrcooke/git/projects/arm_gcc/include/core_cm0.h ****     #warning "Compiler generates FPU instructions for a device without an FPU (check __FPU_PRESENT)
 103:/home/wrcooke/git/projects/arm_gcc/include/core_cm0.h ****   #endif
 104:/home/wrcooke/git/projects/arm_gcc/include/core_cm0.h **** 
 105:/home/wrcooke/git/projects/arm_gcc/include/core_cm0.h **** #elif defined ( __TASKING__ )
 106:/home/wrcooke/git/projects/arm_gcc/include/core_cm0.h ****   #if defined __FPU_VFP__
 107:/home/wrcooke/git/projects/arm_gcc/include/core_cm0.h ****     #error "Compiler generates FPU instructions for a device without an FPU (check __FPU_PRESENT)"
 108:/home/wrcooke/git/projects/arm_gcc/include/core_cm0.h ****   #endif
 109:/home/wrcooke/git/projects/arm_gcc/include/core_cm0.h **** #endif
 110:/home/wrcooke/git/projects/arm_gcc/include/core_cm0.h **** 
 111:/home/wrcooke/git/projects/arm_gcc/include/core_cm0.h **** #include <stdint.h>                      /* standard types definitions                      */
 112:/home/wrcooke/git/projects/arm_gcc/include/core_cm0.h **** #include "core_cmInstr.h"                /* Core Instruction Access                         */
 113:/home/wrcooke/git/projects/arm_gcc/include/core_cm0.h **** #include "core_cmFunc.h"                 /* Core Function Access                            */
 114:/home/wrcooke/git/projects/arm_gcc/include/core_cm0.h **** 
 115:/home/wrcooke/git/projects/arm_gcc/include/core_cm0.h **** #endif /* __CORE_CM0_H_GENERIC */
 116:/home/wrcooke/git/projects/arm_gcc/include/core_cm0.h **** 
 117:/home/wrcooke/git/projects/arm_gcc/include/core_cm0.h **** #ifndef __CMSIS_GENERIC
ARM GAS  /tmp/cclNLZpg.s 			page 4


 118:/home/wrcooke/git/projects/arm_gcc/include/core_cm0.h **** 
 119:/home/wrcooke/git/projects/arm_gcc/include/core_cm0.h **** #ifndef __CORE_CM0_H_DEPENDANT
 120:/home/wrcooke/git/projects/arm_gcc/include/core_cm0.h **** #define __CORE_CM0_H_DEPENDANT
 121:/home/wrcooke/git/projects/arm_gcc/include/core_cm0.h **** 
 122:/home/wrcooke/git/projects/arm_gcc/include/core_cm0.h **** /* check device defines and use defaults */
 123:/home/wrcooke/git/projects/arm_gcc/include/core_cm0.h **** #if defined __CHECK_DEVICE_DEFINES
 124:/home/wrcooke/git/projects/arm_gcc/include/core_cm0.h ****   #ifndef __CM0_REV
 125:/home/wrcooke/git/projects/arm_gcc/include/core_cm0.h ****     #define __CM0_REV               0x0000
 126:/home/wrcooke/git/projects/arm_gcc/include/core_cm0.h ****     #warning "__CM0_REV not defined in device header file; using default!"
 127:/home/wrcooke/git/projects/arm_gcc/include/core_cm0.h ****   #endif
 128:/home/wrcooke/git/projects/arm_gcc/include/core_cm0.h **** 
 129:/home/wrcooke/git/projects/arm_gcc/include/core_cm0.h ****   #ifndef __NVIC_PRIO_BITS
 130:/home/wrcooke/git/projects/arm_gcc/include/core_cm0.h ****     #define __NVIC_PRIO_BITS          2
 131:/home/wrcooke/git/projects/arm_gcc/include/core_cm0.h ****     #warning "__NVIC_PRIO_BITS not defined in device header file; using default!"
 132:/home/wrcooke/git/projects/arm_gcc/include/core_cm0.h ****   #endif
 133:/home/wrcooke/git/projects/arm_gcc/include/core_cm0.h **** 
 134:/home/wrcooke/git/projects/arm_gcc/include/core_cm0.h ****   #ifndef __Vendor_SysTickConfig
 135:/home/wrcooke/git/projects/arm_gcc/include/core_cm0.h ****     #define __Vendor_SysTickConfig    0
 136:/home/wrcooke/git/projects/arm_gcc/include/core_cm0.h ****     #warning "__Vendor_SysTickConfig not defined in device header file; using default!"
 137:/home/wrcooke/git/projects/arm_gcc/include/core_cm0.h ****   #endif
 138:/home/wrcooke/git/projects/arm_gcc/include/core_cm0.h **** #endif
 139:/home/wrcooke/git/projects/arm_gcc/include/core_cm0.h **** 
 140:/home/wrcooke/git/projects/arm_gcc/include/core_cm0.h **** /* IO definitions (access restrictions to peripheral registers) */
 141:/home/wrcooke/git/projects/arm_gcc/include/core_cm0.h **** /**
 142:/home/wrcooke/git/projects/arm_gcc/include/core_cm0.h ****     \defgroup CMSIS_glob_defs CMSIS Global Defines
 143:/home/wrcooke/git/projects/arm_gcc/include/core_cm0.h **** 
 144:/home/wrcooke/git/projects/arm_gcc/include/core_cm0.h ****     <strong>IO Type Qualifiers</strong> are used
 145:/home/wrcooke/git/projects/arm_gcc/include/core_cm0.h ****     \li to specify the access to peripheral variables.
 146:/home/wrcooke/git/projects/arm_gcc/include/core_cm0.h ****     \li for automatic generation of peripheral register debug information.
 147:/home/wrcooke/git/projects/arm_gcc/include/core_cm0.h **** */
 148:/home/wrcooke/git/projects/arm_gcc/include/core_cm0.h **** #ifdef __cplusplus
 149:/home/wrcooke/git/projects/arm_gcc/include/core_cm0.h ****   #define   __I     volatile             /*!< Defines 'read only' permissions                 */
 150:/home/wrcooke/git/projects/arm_gcc/include/core_cm0.h **** #else
 151:/home/wrcooke/git/projects/arm_gcc/include/core_cm0.h ****   #define   __I     volatile const       /*!< Defines 'read only' permissions                 */
 152:/home/wrcooke/git/projects/arm_gcc/include/core_cm0.h **** #endif
 153:/home/wrcooke/git/projects/arm_gcc/include/core_cm0.h **** #define     __O     volatile             /*!< Defines 'write only' permissions                */
 154:/home/wrcooke/git/projects/arm_gcc/include/core_cm0.h **** #define     __IO    volatile             /*!< Defines 'read / write' permissions              */
 155:/home/wrcooke/git/projects/arm_gcc/include/core_cm0.h **** 
 156:/home/wrcooke/git/projects/arm_gcc/include/core_cm0.h **** /*@} end of group Cortex_M0 */
 157:/home/wrcooke/git/projects/arm_gcc/include/core_cm0.h **** 
 158:/home/wrcooke/git/projects/arm_gcc/include/core_cm0.h **** 
 159:/home/wrcooke/git/projects/arm_gcc/include/core_cm0.h **** 
 160:/home/wrcooke/git/projects/arm_gcc/include/core_cm0.h **** /*******************************************************************************
 161:/home/wrcooke/git/projects/arm_gcc/include/core_cm0.h ****  *                 Register Abstraction
 162:/home/wrcooke/git/projects/arm_gcc/include/core_cm0.h ****   Core Register contain:
 163:/home/wrcooke/git/projects/arm_gcc/include/core_cm0.h ****   - Core Register
 164:/home/wrcooke/git/projects/arm_gcc/include/core_cm0.h ****   - Core NVIC Register
 165:/home/wrcooke/git/projects/arm_gcc/include/core_cm0.h ****   - Core SCB Register
 166:/home/wrcooke/git/projects/arm_gcc/include/core_cm0.h ****   - Core SysTick Register
 167:/home/wrcooke/git/projects/arm_gcc/include/core_cm0.h ****  ******************************************************************************/
 168:/home/wrcooke/git/projects/arm_gcc/include/core_cm0.h **** /** \defgroup CMSIS_core_register Defines and Type Definitions
 169:/home/wrcooke/git/projects/arm_gcc/include/core_cm0.h ****     \brief Type definitions and defines for Cortex-M processor based devices.
 170:/home/wrcooke/git/projects/arm_gcc/include/core_cm0.h **** */
 171:/home/wrcooke/git/projects/arm_gcc/include/core_cm0.h **** 
 172:/home/wrcooke/git/projects/arm_gcc/include/core_cm0.h **** /** \ingroup    CMSIS_core_register
 173:/home/wrcooke/git/projects/arm_gcc/include/core_cm0.h ****     \defgroup   CMSIS_CORE  Status and Control Registers
 174:/home/wrcooke/git/projects/arm_gcc/include/core_cm0.h ****     \brief  Core Register type definitions.
ARM GAS  /tmp/cclNLZpg.s 			page 5


 175:/home/wrcooke/git/projects/arm_gcc/include/core_cm0.h ****   @{
 176:/home/wrcooke/git/projects/arm_gcc/include/core_cm0.h ****  */
 177:/home/wrcooke/git/projects/arm_gcc/include/core_cm0.h **** 
 178:/home/wrcooke/git/projects/arm_gcc/include/core_cm0.h **** /** \brief  Union type to access the Application Program Status Register (APSR).
 179:/home/wrcooke/git/projects/arm_gcc/include/core_cm0.h ****  */
 180:/home/wrcooke/git/projects/arm_gcc/include/core_cm0.h **** typedef union
 181:/home/wrcooke/git/projects/arm_gcc/include/core_cm0.h **** {
 182:/home/wrcooke/git/projects/arm_gcc/include/core_cm0.h ****   struct
 183:/home/wrcooke/git/projects/arm_gcc/include/core_cm0.h ****   {
 184:/home/wrcooke/git/projects/arm_gcc/include/core_cm0.h **** #if (__CORTEX_M != 0x04)
 185:/home/wrcooke/git/projects/arm_gcc/include/core_cm0.h ****     uint32_t _reserved0:27;              /*!< bit:  0..26  Reserved                           */
 186:/home/wrcooke/git/projects/arm_gcc/include/core_cm0.h **** #else
 187:/home/wrcooke/git/projects/arm_gcc/include/core_cm0.h ****     uint32_t _reserved0:16;              /*!< bit:  0..15  Reserved                           */
 188:/home/wrcooke/git/projects/arm_gcc/include/core_cm0.h ****     uint32_t GE:4;                       /*!< bit: 16..19  Greater than or Equal flags        */
 189:/home/wrcooke/git/projects/arm_gcc/include/core_cm0.h ****     uint32_t _reserved1:7;               /*!< bit: 20..26  Reserved                           */
 190:/home/wrcooke/git/projects/arm_gcc/include/core_cm0.h **** #endif
 191:/home/wrcooke/git/projects/arm_gcc/include/core_cm0.h ****     uint32_t Q:1;                        /*!< bit:     27  Saturation condition flag          */
 192:/home/wrcooke/git/projects/arm_gcc/include/core_cm0.h ****     uint32_t V:1;                        /*!< bit:     28  Overflow condition code flag       */
 193:/home/wrcooke/git/projects/arm_gcc/include/core_cm0.h ****     uint32_t C:1;                        /*!< bit:     29  Carry condition code flag          */
 194:/home/wrcooke/git/projects/arm_gcc/include/core_cm0.h ****     uint32_t Z:1;                        /*!< bit:     30  Zero condition code flag           */
 195:/home/wrcooke/git/projects/arm_gcc/include/core_cm0.h ****     uint32_t N:1;                        /*!< bit:     31  Negative condition code flag       */
 196:/home/wrcooke/git/projects/arm_gcc/include/core_cm0.h ****   } b;                                   /*!< Structure used for bit  access                  */
 197:/home/wrcooke/git/projects/arm_gcc/include/core_cm0.h ****   uint32_t w;                            /*!< Type      used for word access                  */
 198:/home/wrcooke/git/projects/arm_gcc/include/core_cm0.h **** } APSR_Type;
 199:/home/wrcooke/git/projects/arm_gcc/include/core_cm0.h **** 
 200:/home/wrcooke/git/projects/arm_gcc/include/core_cm0.h **** 
 201:/home/wrcooke/git/projects/arm_gcc/include/core_cm0.h **** /** \brief  Union type to access the Interrupt Program Status Register (IPSR).
 202:/home/wrcooke/git/projects/arm_gcc/include/core_cm0.h ****  */
 203:/home/wrcooke/git/projects/arm_gcc/include/core_cm0.h **** typedef union
 204:/home/wrcooke/git/projects/arm_gcc/include/core_cm0.h **** {
 205:/home/wrcooke/git/projects/arm_gcc/include/core_cm0.h ****   struct
 206:/home/wrcooke/git/projects/arm_gcc/include/core_cm0.h ****   {
 207:/home/wrcooke/git/projects/arm_gcc/include/core_cm0.h ****     uint32_t ISR:9;                      /*!< bit:  0.. 8  Exception number                   */
 208:/home/wrcooke/git/projects/arm_gcc/include/core_cm0.h ****     uint32_t _reserved0:23;              /*!< bit:  9..31  Reserved                           */
 209:/home/wrcooke/git/projects/arm_gcc/include/core_cm0.h ****   } b;                                   /*!< Structure used for bit  access                  */
 210:/home/wrcooke/git/projects/arm_gcc/include/core_cm0.h ****   uint32_t w;                            /*!< Type      used for word access                  */
 211:/home/wrcooke/git/projects/arm_gcc/include/core_cm0.h **** } IPSR_Type;
 212:/home/wrcooke/git/projects/arm_gcc/include/core_cm0.h **** 
 213:/home/wrcooke/git/projects/arm_gcc/include/core_cm0.h **** 
 214:/home/wrcooke/git/projects/arm_gcc/include/core_cm0.h **** /** \brief  Union type to access the Special-Purpose Program Status Registers (xPSR).
 215:/home/wrcooke/git/projects/arm_gcc/include/core_cm0.h ****  */
 216:/home/wrcooke/git/projects/arm_gcc/include/core_cm0.h **** typedef union
 217:/home/wrcooke/git/projects/arm_gcc/include/core_cm0.h **** {
 218:/home/wrcooke/git/projects/arm_gcc/include/core_cm0.h ****   struct
 219:/home/wrcooke/git/projects/arm_gcc/include/core_cm0.h ****   {
 220:/home/wrcooke/git/projects/arm_gcc/include/core_cm0.h ****     uint32_t ISR:9;                      /*!< bit:  0.. 8  Exception number                   */
 221:/home/wrcooke/git/projects/arm_gcc/include/core_cm0.h **** #if (__CORTEX_M != 0x04)
 222:/home/wrcooke/git/projects/arm_gcc/include/core_cm0.h ****     uint32_t _reserved0:15;              /*!< bit:  9..23  Reserved                           */
 223:/home/wrcooke/git/projects/arm_gcc/include/core_cm0.h **** #else
 224:/home/wrcooke/git/projects/arm_gcc/include/core_cm0.h ****     uint32_t _reserved0:7;               /*!< bit:  9..15  Reserved                           */
 225:/home/wrcooke/git/projects/arm_gcc/include/core_cm0.h ****     uint32_t GE:4;                       /*!< bit: 16..19  Greater than or Equal flags        */
 226:/home/wrcooke/git/projects/arm_gcc/include/core_cm0.h ****     uint32_t _reserved1:4;               /*!< bit: 20..23  Reserved                           */
 227:/home/wrcooke/git/projects/arm_gcc/include/core_cm0.h **** #endif
 228:/home/wrcooke/git/projects/arm_gcc/include/core_cm0.h ****     uint32_t T:1;                        /*!< bit:     24  Thumb bit        (read 0)          */
 229:/home/wrcooke/git/projects/arm_gcc/include/core_cm0.h ****     uint32_t IT:2;                       /*!< bit: 25..26  saved IT state   (read 0)          */
 230:/home/wrcooke/git/projects/arm_gcc/include/core_cm0.h ****     uint32_t Q:1;                        /*!< bit:     27  Saturation condition flag          */
 231:/home/wrcooke/git/projects/arm_gcc/include/core_cm0.h ****     uint32_t V:1;                        /*!< bit:     28  Overflow condition code flag       */
ARM GAS  /tmp/cclNLZpg.s 			page 6


 232:/home/wrcooke/git/projects/arm_gcc/include/core_cm0.h ****     uint32_t C:1;                        /*!< bit:     29  Carry condition code flag          */
 233:/home/wrcooke/git/projects/arm_gcc/include/core_cm0.h ****     uint32_t Z:1;                        /*!< bit:     30  Zero condition code flag           */
 234:/home/wrcooke/git/projects/arm_gcc/include/core_cm0.h ****     uint32_t N:1;                        /*!< bit:     31  Negative condition code flag       */
 235:/home/wrcooke/git/projects/arm_gcc/include/core_cm0.h ****   } b;                                   /*!< Structure used for bit  access                  */
 236:/home/wrcooke/git/projects/arm_gcc/include/core_cm0.h ****   uint32_t w;                            /*!< Type      used for word access                  */
 237:/home/wrcooke/git/projects/arm_gcc/include/core_cm0.h **** } xPSR_Type;
 238:/home/wrcooke/git/projects/arm_gcc/include/core_cm0.h **** 
 239:/home/wrcooke/git/projects/arm_gcc/include/core_cm0.h **** 
 240:/home/wrcooke/git/projects/arm_gcc/include/core_cm0.h **** /** \brief  Union type to access the Control Registers (CONTROL).
 241:/home/wrcooke/git/projects/arm_gcc/include/core_cm0.h ****  */
 242:/home/wrcooke/git/projects/arm_gcc/include/core_cm0.h **** typedef union
 243:/home/wrcooke/git/projects/arm_gcc/include/core_cm0.h **** {
 244:/home/wrcooke/git/projects/arm_gcc/include/core_cm0.h ****   struct
 245:/home/wrcooke/git/projects/arm_gcc/include/core_cm0.h ****   {
 246:/home/wrcooke/git/projects/arm_gcc/include/core_cm0.h ****     uint32_t nPRIV:1;                    /*!< bit:      0  Execution privilege in Thread mode */
 247:/home/wrcooke/git/projects/arm_gcc/include/core_cm0.h ****     uint32_t SPSEL:1;                    /*!< bit:      1  Stack to be used                   */
 248:/home/wrcooke/git/projects/arm_gcc/include/core_cm0.h ****     uint32_t FPCA:1;                     /*!< bit:      2  FP extension active flag           */
 249:/home/wrcooke/git/projects/arm_gcc/include/core_cm0.h ****     uint32_t _reserved0:29;              /*!< bit:  3..31  Reserved                           */
 250:/home/wrcooke/git/projects/arm_gcc/include/core_cm0.h ****   } b;                                   /*!< Structure used for bit  access                  */
 251:/home/wrcooke/git/projects/arm_gcc/include/core_cm0.h ****   uint32_t w;                            /*!< Type      used for word access                  */
 252:/home/wrcooke/git/projects/arm_gcc/include/core_cm0.h **** } CONTROL_Type;
 253:/home/wrcooke/git/projects/arm_gcc/include/core_cm0.h **** 
 254:/home/wrcooke/git/projects/arm_gcc/include/core_cm0.h **** /*@} end of group CMSIS_CORE */
 255:/home/wrcooke/git/projects/arm_gcc/include/core_cm0.h **** 
 256:/home/wrcooke/git/projects/arm_gcc/include/core_cm0.h **** 
 257:/home/wrcooke/git/projects/arm_gcc/include/core_cm0.h **** /** \ingroup    CMSIS_core_register
 258:/home/wrcooke/git/projects/arm_gcc/include/core_cm0.h ****     \defgroup   CMSIS_NVIC  Nested Vectored Interrupt Controller (NVIC)
 259:/home/wrcooke/git/projects/arm_gcc/include/core_cm0.h ****     \brief      Type definitions for the NVIC Registers
 260:/home/wrcooke/git/projects/arm_gcc/include/core_cm0.h ****   @{
 261:/home/wrcooke/git/projects/arm_gcc/include/core_cm0.h ****  */
 262:/home/wrcooke/git/projects/arm_gcc/include/core_cm0.h **** 
 263:/home/wrcooke/git/projects/arm_gcc/include/core_cm0.h **** /** \brief  Structure type to access the Nested Vectored Interrupt Controller (NVIC).
 264:/home/wrcooke/git/projects/arm_gcc/include/core_cm0.h ****  */
 265:/home/wrcooke/git/projects/arm_gcc/include/core_cm0.h **** typedef struct
 266:/home/wrcooke/git/projects/arm_gcc/include/core_cm0.h **** {
 267:/home/wrcooke/git/projects/arm_gcc/include/core_cm0.h ****   __IO uint32_t ISER[1];                 /*!< Offset: 0x000 (R/W)  Interrupt Set Enable Register   
 268:/home/wrcooke/git/projects/arm_gcc/include/core_cm0.h ****        uint32_t RESERVED0[31];
 269:/home/wrcooke/git/projects/arm_gcc/include/core_cm0.h ****   __IO uint32_t ICER[1];                 /*!< Offset: 0x080 (R/W)  Interrupt Clear Enable Register 
 270:/home/wrcooke/git/projects/arm_gcc/include/core_cm0.h ****        uint32_t RSERVED1[31];
 271:/home/wrcooke/git/projects/arm_gcc/include/core_cm0.h ****   __IO uint32_t ISPR[1];                 /*!< Offset: 0x100 (R/W)  Interrupt Set Pending Register  
 272:/home/wrcooke/git/projects/arm_gcc/include/core_cm0.h ****        uint32_t RESERVED2[31];
 273:/home/wrcooke/git/projects/arm_gcc/include/core_cm0.h ****   __IO uint32_t ICPR[1];                 /*!< Offset: 0x180 (R/W)  Interrupt Clear Pending Register
 274:/home/wrcooke/git/projects/arm_gcc/include/core_cm0.h ****        uint32_t RESERVED3[31];
 275:/home/wrcooke/git/projects/arm_gcc/include/core_cm0.h ****        uint32_t RESERVED4[64];
 276:/home/wrcooke/git/projects/arm_gcc/include/core_cm0.h ****   __IO uint32_t IP[8];                   /*!< Offset: 0x300 (R/W)  Interrupt Priority Register     
 277:/home/wrcooke/git/projects/arm_gcc/include/core_cm0.h **** }  NVIC_Type;
 278:/home/wrcooke/git/projects/arm_gcc/include/core_cm0.h **** 
 279:/home/wrcooke/git/projects/arm_gcc/include/core_cm0.h **** /*@} end of group CMSIS_NVIC */
 280:/home/wrcooke/git/projects/arm_gcc/include/core_cm0.h **** 
 281:/home/wrcooke/git/projects/arm_gcc/include/core_cm0.h **** 
 282:/home/wrcooke/git/projects/arm_gcc/include/core_cm0.h **** /** \ingroup  CMSIS_core_register
 283:/home/wrcooke/git/projects/arm_gcc/include/core_cm0.h ****     \defgroup CMSIS_SCB     System Control Block (SCB)
 284:/home/wrcooke/git/projects/arm_gcc/include/core_cm0.h ****     \brief      Type definitions for the System Control Block Registers
 285:/home/wrcooke/git/projects/arm_gcc/include/core_cm0.h ****   @{
 286:/home/wrcooke/git/projects/arm_gcc/include/core_cm0.h ****  */
 287:/home/wrcooke/git/projects/arm_gcc/include/core_cm0.h **** 
 288:/home/wrcooke/git/projects/arm_gcc/include/core_cm0.h **** /** \brief  Structure type to access the System Control Block (SCB).
ARM GAS  /tmp/cclNLZpg.s 			page 7


 289:/home/wrcooke/git/projects/arm_gcc/include/core_cm0.h ****  */
 290:/home/wrcooke/git/projects/arm_gcc/include/core_cm0.h **** typedef struct
 291:/home/wrcooke/git/projects/arm_gcc/include/core_cm0.h **** {
 292:/home/wrcooke/git/projects/arm_gcc/include/core_cm0.h ****   __I  uint32_t CPUID;                   /*!< Offset: 0x000 (R/ )  CPUID Base Register             
 293:/home/wrcooke/git/projects/arm_gcc/include/core_cm0.h ****   __IO uint32_t ICSR;                    /*!< Offset: 0x004 (R/W)  Interrupt Control and State Regi
 294:/home/wrcooke/git/projects/arm_gcc/include/core_cm0.h ****        uint32_t RESERVED0;
 295:/home/wrcooke/git/projects/arm_gcc/include/core_cm0.h ****   __IO uint32_t AIRCR;                   /*!< Offset: 0x00C (R/W)  Application Interrupt and Reset 
 296:/home/wrcooke/git/projects/arm_gcc/include/core_cm0.h ****   __IO uint32_t SCR;                     /*!< Offset: 0x010 (R/W)  System Control Register         
 297:/home/wrcooke/git/projects/arm_gcc/include/core_cm0.h ****   __IO uint32_t CCR;                     /*!< Offset: 0x014 (R/W)  Configuration Control Register  
 298:/home/wrcooke/git/projects/arm_gcc/include/core_cm0.h ****        uint32_t RESERVED1;
 299:/home/wrcooke/git/projects/arm_gcc/include/core_cm0.h ****   __IO uint32_t SHP[2];                  /*!< Offset: 0x01C (R/W)  System Handlers Priority Registe
 300:/home/wrcooke/git/projects/arm_gcc/include/core_cm0.h ****   __IO uint32_t SHCSR;                   /*!< Offset: 0x024 (R/W)  System Handler Control and State
 301:/home/wrcooke/git/projects/arm_gcc/include/core_cm0.h **** } SCB_Type;
 302:/home/wrcooke/git/projects/arm_gcc/include/core_cm0.h **** 
 303:/home/wrcooke/git/projects/arm_gcc/include/core_cm0.h **** /* SCB CPUID Register Definitions */
 304:/home/wrcooke/git/projects/arm_gcc/include/core_cm0.h **** #define SCB_CPUID_IMPLEMENTER_Pos          24                                             /*!< SCB 
 305:/home/wrcooke/git/projects/arm_gcc/include/core_cm0.h **** #define SCB_CPUID_IMPLEMENTER_Msk          (0xFFUL << SCB_CPUID_IMPLEMENTER_Pos)          /*!< SCB 
 306:/home/wrcooke/git/projects/arm_gcc/include/core_cm0.h **** 
 307:/home/wrcooke/git/projects/arm_gcc/include/core_cm0.h **** #define SCB_CPUID_VARIANT_Pos              20                                             /*!< SCB 
 308:/home/wrcooke/git/projects/arm_gcc/include/core_cm0.h **** #define SCB_CPUID_VARIANT_Msk              (0xFUL << SCB_CPUID_VARIANT_Pos)               /*!< SCB 
 309:/home/wrcooke/git/projects/arm_gcc/include/core_cm0.h **** 
 310:/home/wrcooke/git/projects/arm_gcc/include/core_cm0.h **** #define SCB_CPUID_ARCHITECTURE_Pos         16                                             /*!< SCB 
 311:/home/wrcooke/git/projects/arm_gcc/include/core_cm0.h **** #define SCB_CPUID_ARCHITECTURE_Msk         (0xFUL << SCB_CPUID_ARCHITECTURE_Pos)          /*!< SCB 
 312:/home/wrcooke/git/projects/arm_gcc/include/core_cm0.h **** 
 313:/home/wrcooke/git/projects/arm_gcc/include/core_cm0.h **** #define SCB_CPUID_PARTNO_Pos                4                                             /*!< SCB 
 314:/home/wrcooke/git/projects/arm_gcc/include/core_cm0.h **** #define SCB_CPUID_PARTNO_Msk               (0xFFFUL << SCB_CPUID_PARTNO_Pos)              /*!< SCB 
 315:/home/wrcooke/git/projects/arm_gcc/include/core_cm0.h **** 
 316:/home/wrcooke/git/projects/arm_gcc/include/core_cm0.h **** #define SCB_CPUID_REVISION_Pos              0                                             /*!< SCB 
 317:/home/wrcooke/git/projects/arm_gcc/include/core_cm0.h **** #define SCB_CPUID_REVISION_Msk             (0xFUL << SCB_CPUID_REVISION_Pos)              /*!< SCB 
 318:/home/wrcooke/git/projects/arm_gcc/include/core_cm0.h **** 
 319:/home/wrcooke/git/projects/arm_gcc/include/core_cm0.h **** /* SCB Interrupt Control State Register Definitions */
 320:/home/wrcooke/git/projects/arm_gcc/include/core_cm0.h **** #define SCB_ICSR_NMIPENDSET_Pos            31                                             /*!< SCB 
 321:/home/wrcooke/git/projects/arm_gcc/include/core_cm0.h **** #define SCB_ICSR_NMIPENDSET_Msk            (1UL << SCB_ICSR_NMIPENDSET_Pos)               /*!< SCB 
 322:/home/wrcooke/git/projects/arm_gcc/include/core_cm0.h **** 
 323:/home/wrcooke/git/projects/arm_gcc/include/core_cm0.h **** #define SCB_ICSR_PENDSVSET_Pos             28                                             /*!< SCB 
 324:/home/wrcooke/git/projects/arm_gcc/include/core_cm0.h **** #define SCB_ICSR_PENDSVSET_Msk             (1UL << SCB_ICSR_PENDSVSET_Pos)                /*!< SCB 
 325:/home/wrcooke/git/projects/arm_gcc/include/core_cm0.h **** 
 326:/home/wrcooke/git/projects/arm_gcc/include/core_cm0.h **** #define SCB_ICSR_PENDSVCLR_Pos             27                                             /*!< SCB 
 327:/home/wrcooke/git/projects/arm_gcc/include/core_cm0.h **** #define SCB_ICSR_PENDSVCLR_Msk             (1UL << SCB_ICSR_PENDSVCLR_Pos)                /*!< SCB 
 328:/home/wrcooke/git/projects/arm_gcc/include/core_cm0.h **** 
 329:/home/wrcooke/git/projects/arm_gcc/include/core_cm0.h **** #define SCB_ICSR_PENDSTSET_Pos             26                                             /*!< SCB 
 330:/home/wrcooke/git/projects/arm_gcc/include/core_cm0.h **** #define SCB_ICSR_PENDSTSET_Msk             (1UL << SCB_ICSR_PENDSTSET_Pos)                /*!< SCB 
 331:/home/wrcooke/git/projects/arm_gcc/include/core_cm0.h **** 
 332:/home/wrcooke/git/projects/arm_gcc/include/core_cm0.h **** #define SCB_ICSR_PENDSTCLR_Pos             25                                             /*!< SCB 
 333:/home/wrcooke/git/projects/arm_gcc/include/core_cm0.h **** #define SCB_ICSR_PENDSTCLR_Msk             (1UL << SCB_ICSR_PENDSTCLR_Pos)                /*!< SCB 
 334:/home/wrcooke/git/projects/arm_gcc/include/core_cm0.h **** 
 335:/home/wrcooke/git/projects/arm_gcc/include/core_cm0.h **** #define SCB_ICSR_ISRPREEMPT_Pos            23                                             /*!< SCB 
 336:/home/wrcooke/git/projects/arm_gcc/include/core_cm0.h **** #define SCB_ICSR_ISRPREEMPT_Msk            (1UL << SCB_ICSR_ISRPREEMPT_Pos)               /*!< SCB 
 337:/home/wrcooke/git/projects/arm_gcc/include/core_cm0.h **** 
 338:/home/wrcooke/git/projects/arm_gcc/include/core_cm0.h **** #define SCB_ICSR_ISRPENDING_Pos            22                                             /*!< SCB 
 339:/home/wrcooke/git/projects/arm_gcc/include/core_cm0.h **** #define SCB_ICSR_ISRPENDING_Msk            (1UL << SCB_ICSR_ISRPENDING_Pos)               /*!< SCB 
 340:/home/wrcooke/git/projects/arm_gcc/include/core_cm0.h **** 
 341:/home/wrcooke/git/projects/arm_gcc/include/core_cm0.h **** #define SCB_ICSR_VECTPENDING_Pos           12                                             /*!< SCB 
 342:/home/wrcooke/git/projects/arm_gcc/include/core_cm0.h **** #define SCB_ICSR_VECTPENDING_Msk           (0x1FFUL << SCB_ICSR_VECTPENDING_Pos)          /*!< SCB 
 343:/home/wrcooke/git/projects/arm_gcc/include/core_cm0.h **** 
 344:/home/wrcooke/git/projects/arm_gcc/include/core_cm0.h **** #define SCB_ICSR_VECTACTIVE_Pos             0                                             /*!< SCB 
 345:/home/wrcooke/git/projects/arm_gcc/include/core_cm0.h **** #define SCB_ICSR_VECTACTIVE_Msk            (0x1FFUL << SCB_ICSR_VECTACTIVE_Pos)           /*!< SCB 
ARM GAS  /tmp/cclNLZpg.s 			page 8


 346:/home/wrcooke/git/projects/arm_gcc/include/core_cm0.h **** 
 347:/home/wrcooke/git/projects/arm_gcc/include/core_cm0.h **** /* SCB Application Interrupt and Reset Control Register Definitions */
 348:/home/wrcooke/git/projects/arm_gcc/include/core_cm0.h **** #define SCB_AIRCR_VECTKEY_Pos              16                                             /*!< SCB 
 349:/home/wrcooke/git/projects/arm_gcc/include/core_cm0.h **** #define SCB_AIRCR_VECTKEY_Msk              (0xFFFFUL << SCB_AIRCR_VECTKEY_Pos)            /*!< SCB 
 350:/home/wrcooke/git/projects/arm_gcc/include/core_cm0.h **** 
 351:/home/wrcooke/git/projects/arm_gcc/include/core_cm0.h **** #define SCB_AIRCR_VECTKEYSTAT_Pos          16                                             /*!< SCB 
 352:/home/wrcooke/git/projects/arm_gcc/include/core_cm0.h **** #define SCB_AIRCR_VECTKEYSTAT_Msk          (0xFFFFUL << SCB_AIRCR_VECTKEYSTAT_Pos)        /*!< SCB 
 353:/home/wrcooke/git/projects/arm_gcc/include/core_cm0.h **** 
 354:/home/wrcooke/git/projects/arm_gcc/include/core_cm0.h **** #define SCB_AIRCR_ENDIANESS_Pos            15                                             /*!< SCB 
 355:/home/wrcooke/git/projects/arm_gcc/include/core_cm0.h **** #define SCB_AIRCR_ENDIANESS_Msk            (1UL << SCB_AIRCR_ENDIANESS_Pos)               /*!< SCB 
 356:/home/wrcooke/git/projects/arm_gcc/include/core_cm0.h **** 
 357:/home/wrcooke/git/projects/arm_gcc/include/core_cm0.h **** #define SCB_AIRCR_SYSRESETREQ_Pos           2                                             /*!< SCB 
 358:/home/wrcooke/git/projects/arm_gcc/include/core_cm0.h **** #define SCB_AIRCR_SYSRESETREQ_Msk          (1UL << SCB_AIRCR_SYSRESETREQ_Pos)             /*!< SCB 
 359:/home/wrcooke/git/projects/arm_gcc/include/core_cm0.h **** 
 360:/home/wrcooke/git/projects/arm_gcc/include/core_cm0.h **** #define SCB_AIRCR_VECTCLRACTIVE_Pos         1                                             /*!< SCB 
 361:/home/wrcooke/git/projects/arm_gcc/include/core_cm0.h **** #define SCB_AIRCR_VECTCLRACTIVE_Msk        (1UL << SCB_AIRCR_VECTCLRACTIVE_Pos)           /*!< SCB 
 362:/home/wrcooke/git/projects/arm_gcc/include/core_cm0.h **** 
 363:/home/wrcooke/git/projects/arm_gcc/include/core_cm0.h **** /* SCB System Control Register Definitions */
 364:/home/wrcooke/git/projects/arm_gcc/include/core_cm0.h **** #define SCB_SCR_SEVONPEND_Pos               4                                             /*!< SCB 
 365:/home/wrcooke/git/projects/arm_gcc/include/core_cm0.h **** #define SCB_SCR_SEVONPEND_Msk              (1UL << SCB_SCR_SEVONPEND_Pos)                 /*!< SCB 
 366:/home/wrcooke/git/projects/arm_gcc/include/core_cm0.h **** 
 367:/home/wrcooke/git/projects/arm_gcc/include/core_cm0.h **** #define SCB_SCR_SLEEPDEEP_Pos               2                                             /*!< SCB 
 368:/home/wrcooke/git/projects/arm_gcc/include/core_cm0.h **** #define SCB_SCR_SLEEPDEEP_Msk              (1UL << SCB_SCR_SLEEPDEEP_Pos)                 /*!< SCB 
 369:/home/wrcooke/git/projects/arm_gcc/include/core_cm0.h **** 
 370:/home/wrcooke/git/projects/arm_gcc/include/core_cm0.h **** #define SCB_SCR_SLEEPONEXIT_Pos             1                                             /*!< SCB 
 371:/home/wrcooke/git/projects/arm_gcc/include/core_cm0.h **** #define SCB_SCR_SLEEPONEXIT_Msk            (1UL << SCB_SCR_SLEEPONEXIT_Pos)               /*!< SCB 
 372:/home/wrcooke/git/projects/arm_gcc/include/core_cm0.h **** 
 373:/home/wrcooke/git/projects/arm_gcc/include/core_cm0.h **** /* SCB Configuration Control Register Definitions */
 374:/home/wrcooke/git/projects/arm_gcc/include/core_cm0.h **** #define SCB_CCR_STKALIGN_Pos                9                                             /*!< SCB 
 375:/home/wrcooke/git/projects/arm_gcc/include/core_cm0.h **** #define SCB_CCR_STKALIGN_Msk               (1UL << SCB_CCR_STKALIGN_Pos)                  /*!< SCB 
 376:/home/wrcooke/git/projects/arm_gcc/include/core_cm0.h **** 
 377:/home/wrcooke/git/projects/arm_gcc/include/core_cm0.h **** #define SCB_CCR_UNALIGN_TRP_Pos             3                                             /*!< SCB 
 378:/home/wrcooke/git/projects/arm_gcc/include/core_cm0.h **** #define SCB_CCR_UNALIGN_TRP_Msk            (1UL << SCB_CCR_UNALIGN_TRP_Pos)               /*!< SCB 
 379:/home/wrcooke/git/projects/arm_gcc/include/core_cm0.h **** 
 380:/home/wrcooke/git/projects/arm_gcc/include/core_cm0.h **** /* SCB System Handler Control and State Register Definitions */
 381:/home/wrcooke/git/projects/arm_gcc/include/core_cm0.h **** #define SCB_SHCSR_SVCALLPENDED_Pos         15                                             /*!< SCB 
 382:/home/wrcooke/git/projects/arm_gcc/include/core_cm0.h **** #define SCB_SHCSR_SVCALLPENDED_Msk         (1UL << SCB_SHCSR_SVCALLPENDED_Pos)            /*!< SCB 
 383:/home/wrcooke/git/projects/arm_gcc/include/core_cm0.h **** 
 384:/home/wrcooke/git/projects/arm_gcc/include/core_cm0.h **** /*@} end of group CMSIS_SCB */
 385:/home/wrcooke/git/projects/arm_gcc/include/core_cm0.h **** 
 386:/home/wrcooke/git/projects/arm_gcc/include/core_cm0.h **** 
 387:/home/wrcooke/git/projects/arm_gcc/include/core_cm0.h **** /** \ingroup  CMSIS_core_register
 388:/home/wrcooke/git/projects/arm_gcc/include/core_cm0.h ****     \defgroup CMSIS_SysTick     System Tick Timer (SysTick)
 389:/home/wrcooke/git/projects/arm_gcc/include/core_cm0.h ****     \brief      Type definitions for the System Timer Registers.
 390:/home/wrcooke/git/projects/arm_gcc/include/core_cm0.h ****   @{
 391:/home/wrcooke/git/projects/arm_gcc/include/core_cm0.h ****  */
 392:/home/wrcooke/git/projects/arm_gcc/include/core_cm0.h **** 
 393:/home/wrcooke/git/projects/arm_gcc/include/core_cm0.h **** /** \brief  Structure type to access the System Timer (SysTick).
 394:/home/wrcooke/git/projects/arm_gcc/include/core_cm0.h ****  */
 395:/home/wrcooke/git/projects/arm_gcc/include/core_cm0.h **** typedef struct
 396:/home/wrcooke/git/projects/arm_gcc/include/core_cm0.h **** {
 397:/home/wrcooke/git/projects/arm_gcc/include/core_cm0.h ****   __IO uint32_t CTRL;                    /*!< Offset: 0x000 (R/W)  SysTick Control and Status Regis
 398:/home/wrcooke/git/projects/arm_gcc/include/core_cm0.h ****   __IO uint32_t LOAD;                    /*!< Offset: 0x004 (R/W)  SysTick Reload Value Register   
 399:/home/wrcooke/git/projects/arm_gcc/include/core_cm0.h ****   __IO uint32_t VAL;                     /*!< Offset: 0x008 (R/W)  SysTick Current Value Register  
 400:/home/wrcooke/git/projects/arm_gcc/include/core_cm0.h ****   __I  uint32_t CALIB;                   /*!< Offset: 0x00C (R/ )  SysTick Calibration Register    
 401:/home/wrcooke/git/projects/arm_gcc/include/core_cm0.h **** } SysTick_Type;
 402:/home/wrcooke/git/projects/arm_gcc/include/core_cm0.h **** 
ARM GAS  /tmp/cclNLZpg.s 			page 9


 403:/home/wrcooke/git/projects/arm_gcc/include/core_cm0.h **** /* SysTick Control / Status Register Definitions */
 404:/home/wrcooke/git/projects/arm_gcc/include/core_cm0.h **** #define SysTick_CTRL_COUNTFLAG_Pos         16                                             /*!< SysT
 405:/home/wrcooke/git/projects/arm_gcc/include/core_cm0.h **** #define SysTick_CTRL_COUNTFLAG_Msk         (1UL << SysTick_CTRL_COUNTFLAG_Pos)            /*!< SysT
 406:/home/wrcooke/git/projects/arm_gcc/include/core_cm0.h **** 
 407:/home/wrcooke/git/projects/arm_gcc/include/core_cm0.h **** #define SysTick_CTRL_CLKSOURCE_Pos          2                                             /*!< SysT
 408:/home/wrcooke/git/projects/arm_gcc/include/core_cm0.h **** #define SysTick_CTRL_CLKSOURCE_Msk         (1UL << SysTick_CTRL_CLKSOURCE_Pos)            /*!< SysT
 409:/home/wrcooke/git/projects/arm_gcc/include/core_cm0.h **** 
 410:/home/wrcooke/git/projects/arm_gcc/include/core_cm0.h **** #define SysTick_CTRL_TICKINT_Pos            1                                             /*!< SysT
 411:/home/wrcooke/git/projects/arm_gcc/include/core_cm0.h **** #define SysTick_CTRL_TICKINT_Msk           (1UL << SysTick_CTRL_TICKINT_Pos)              /*!< SysT
 412:/home/wrcooke/git/projects/arm_gcc/include/core_cm0.h **** 
 413:/home/wrcooke/git/projects/arm_gcc/include/core_cm0.h **** #define SysTick_CTRL_ENABLE_Pos             0                                             /*!< SysT
 414:/home/wrcooke/git/projects/arm_gcc/include/core_cm0.h **** #define SysTick_CTRL_ENABLE_Msk            (1UL << SysTick_CTRL_ENABLE_Pos)               /*!< SysT
 415:/home/wrcooke/git/projects/arm_gcc/include/core_cm0.h **** 
 416:/home/wrcooke/git/projects/arm_gcc/include/core_cm0.h **** /* SysTick Reload Register Definitions */
 417:/home/wrcooke/git/projects/arm_gcc/include/core_cm0.h **** #define SysTick_LOAD_RELOAD_Pos             0                                             /*!< SysT
 418:/home/wrcooke/git/projects/arm_gcc/include/core_cm0.h **** #define SysTick_LOAD_RELOAD_Msk            (0xFFFFFFUL << SysTick_LOAD_RELOAD_Pos)        /*!< SysT
 419:/home/wrcooke/git/projects/arm_gcc/include/core_cm0.h **** 
 420:/home/wrcooke/git/projects/arm_gcc/include/core_cm0.h **** /* SysTick Current Register Definitions */
 421:/home/wrcooke/git/projects/arm_gcc/include/core_cm0.h **** #define SysTick_VAL_CURRENT_Pos             0                                             /*!< SysT
 422:/home/wrcooke/git/projects/arm_gcc/include/core_cm0.h **** #define SysTick_VAL_CURRENT_Msk            (0xFFFFFFUL << SysTick_VAL_CURRENT_Pos)        /*!< SysT
 423:/home/wrcooke/git/projects/arm_gcc/include/core_cm0.h **** 
 424:/home/wrcooke/git/projects/arm_gcc/include/core_cm0.h **** /* SysTick Calibration Register Definitions */
 425:/home/wrcooke/git/projects/arm_gcc/include/core_cm0.h **** #define SysTick_CALIB_NOREF_Pos            31                                             /*!< SysT
 426:/home/wrcooke/git/projects/arm_gcc/include/core_cm0.h **** #define SysTick_CALIB_NOREF_Msk            (1UL << SysTick_CALIB_NOREF_Pos)               /*!< SysT
 427:/home/wrcooke/git/projects/arm_gcc/include/core_cm0.h **** 
 428:/home/wrcooke/git/projects/arm_gcc/include/core_cm0.h **** #define SysTick_CALIB_SKEW_Pos             30                                             /*!< SysT
 429:/home/wrcooke/git/projects/arm_gcc/include/core_cm0.h **** #define SysTick_CALIB_SKEW_Msk             (1UL << SysTick_CALIB_SKEW_Pos)                /*!< SysT
 430:/home/wrcooke/git/projects/arm_gcc/include/core_cm0.h **** 
 431:/home/wrcooke/git/projects/arm_gcc/include/core_cm0.h **** #define SysTick_CALIB_TENMS_Pos             0                                             /*!< SysT
 432:/home/wrcooke/git/projects/arm_gcc/include/core_cm0.h **** #define SysTick_CALIB_TENMS_Msk            (0xFFFFFFUL << SysTick_VAL_CURRENT_Pos)        /*!< SysT
 433:/home/wrcooke/git/projects/arm_gcc/include/core_cm0.h **** 
 434:/home/wrcooke/git/projects/arm_gcc/include/core_cm0.h **** /*@} end of group CMSIS_SysTick */
 435:/home/wrcooke/git/projects/arm_gcc/include/core_cm0.h **** 
 436:/home/wrcooke/git/projects/arm_gcc/include/core_cm0.h **** 
 437:/home/wrcooke/git/projects/arm_gcc/include/core_cm0.h **** /** \ingroup  CMSIS_core_register
 438:/home/wrcooke/git/projects/arm_gcc/include/core_cm0.h ****     \defgroup CMSIS_CoreDebug       Core Debug Registers (CoreDebug)
 439:/home/wrcooke/git/projects/arm_gcc/include/core_cm0.h ****     \brief      Cortex-M0 Core Debug Registers (DCB registers, SHCSR, and DFSR)
 440:/home/wrcooke/git/projects/arm_gcc/include/core_cm0.h ****                 are only accessible over DAP and not via processor. Therefore
 441:/home/wrcooke/git/projects/arm_gcc/include/core_cm0.h ****                 they are not covered by the Cortex-M0 header file.
 442:/home/wrcooke/git/projects/arm_gcc/include/core_cm0.h ****   @{
 443:/home/wrcooke/git/projects/arm_gcc/include/core_cm0.h ****  */
 444:/home/wrcooke/git/projects/arm_gcc/include/core_cm0.h **** /*@} end of group CMSIS_CoreDebug */
 445:/home/wrcooke/git/projects/arm_gcc/include/core_cm0.h **** 
 446:/home/wrcooke/git/projects/arm_gcc/include/core_cm0.h **** 
 447:/home/wrcooke/git/projects/arm_gcc/include/core_cm0.h **** /** \ingroup    CMSIS_core_register
 448:/home/wrcooke/git/projects/arm_gcc/include/core_cm0.h ****     \defgroup   CMSIS_core_base     Core Definitions
 449:/home/wrcooke/git/projects/arm_gcc/include/core_cm0.h ****     \brief      Definitions for base addresses, unions, and structures.
 450:/home/wrcooke/git/projects/arm_gcc/include/core_cm0.h ****   @{
 451:/home/wrcooke/git/projects/arm_gcc/include/core_cm0.h ****  */
 452:/home/wrcooke/git/projects/arm_gcc/include/core_cm0.h **** 
 453:/home/wrcooke/git/projects/arm_gcc/include/core_cm0.h **** /* Memory mapping of Cortex-M0 Hardware */
 454:/home/wrcooke/git/projects/arm_gcc/include/core_cm0.h **** #define SCS_BASE            (0xE000E000UL)                            /*!< System Control Space Bas
 455:/home/wrcooke/git/projects/arm_gcc/include/core_cm0.h **** #define SysTick_BASE        (SCS_BASE +  0x0010UL)                    /*!< SysTick Base Address    
 456:/home/wrcooke/git/projects/arm_gcc/include/core_cm0.h **** #define NVIC_BASE           (SCS_BASE +  0x0100UL)                    /*!< NVIC Base Address       
 457:/home/wrcooke/git/projects/arm_gcc/include/core_cm0.h **** #define SCB_BASE            (SCS_BASE +  0x0D00UL)                    /*!< System Control Block Bas
 458:/home/wrcooke/git/projects/arm_gcc/include/core_cm0.h **** 
 459:/home/wrcooke/git/projects/arm_gcc/include/core_cm0.h **** #define SCB                 ((SCB_Type       *)     SCB_BASE      )   /*!< SCB configuration struct
ARM GAS  /tmp/cclNLZpg.s 			page 10


 460:/home/wrcooke/git/projects/arm_gcc/include/core_cm0.h **** #define SysTick             ((SysTick_Type   *)     SysTick_BASE  )   /*!< SysTick configuration st
 461:/home/wrcooke/git/projects/arm_gcc/include/core_cm0.h **** #define NVIC                ((NVIC_Type      *)     NVIC_BASE     )   /*!< NVIC configuration struc
 462:/home/wrcooke/git/projects/arm_gcc/include/core_cm0.h **** 
 463:/home/wrcooke/git/projects/arm_gcc/include/core_cm0.h **** 
 464:/home/wrcooke/git/projects/arm_gcc/include/core_cm0.h **** /*@} */
 465:/home/wrcooke/git/projects/arm_gcc/include/core_cm0.h **** 
 466:/home/wrcooke/git/projects/arm_gcc/include/core_cm0.h **** 
 467:/home/wrcooke/git/projects/arm_gcc/include/core_cm0.h **** 
 468:/home/wrcooke/git/projects/arm_gcc/include/core_cm0.h **** /*******************************************************************************
 469:/home/wrcooke/git/projects/arm_gcc/include/core_cm0.h ****  *                Hardware Abstraction Layer
 470:/home/wrcooke/git/projects/arm_gcc/include/core_cm0.h ****   Core Function Interface contains:
 471:/home/wrcooke/git/projects/arm_gcc/include/core_cm0.h ****   - Core NVIC Functions
 472:/home/wrcooke/git/projects/arm_gcc/include/core_cm0.h ****   - Core SysTick Functions
 473:/home/wrcooke/git/projects/arm_gcc/include/core_cm0.h ****   - Core Register Access Functions
 474:/home/wrcooke/git/projects/arm_gcc/include/core_cm0.h ****  ******************************************************************************/
 475:/home/wrcooke/git/projects/arm_gcc/include/core_cm0.h **** /** \defgroup CMSIS_Core_FunctionInterface Functions and Instructions Reference
 476:/home/wrcooke/git/projects/arm_gcc/include/core_cm0.h **** */
 477:/home/wrcooke/git/projects/arm_gcc/include/core_cm0.h **** 
 478:/home/wrcooke/git/projects/arm_gcc/include/core_cm0.h **** 
 479:/home/wrcooke/git/projects/arm_gcc/include/core_cm0.h **** 
 480:/home/wrcooke/git/projects/arm_gcc/include/core_cm0.h **** /* ##########################   NVIC functions  #################################### */
 481:/home/wrcooke/git/projects/arm_gcc/include/core_cm0.h **** /** \ingroup  CMSIS_Core_FunctionInterface
 482:/home/wrcooke/git/projects/arm_gcc/include/core_cm0.h ****     \defgroup CMSIS_Core_NVICFunctions NVIC Functions
 483:/home/wrcooke/git/projects/arm_gcc/include/core_cm0.h ****     \brief      Functions that manage interrupts and exceptions via the NVIC.
 484:/home/wrcooke/git/projects/arm_gcc/include/core_cm0.h ****     @{
 485:/home/wrcooke/git/projects/arm_gcc/include/core_cm0.h ****  */
 486:/home/wrcooke/git/projects/arm_gcc/include/core_cm0.h **** 
 487:/home/wrcooke/git/projects/arm_gcc/include/core_cm0.h **** /* Interrupt Priorities are WORD accessible only under ARMv6M                   */
 488:/home/wrcooke/git/projects/arm_gcc/include/core_cm0.h **** /* The following MACROS handle generation of the register offset and byte masks */
 489:/home/wrcooke/git/projects/arm_gcc/include/core_cm0.h **** #define _BIT_SHIFT(IRQn)         (  (((uint32_t)(IRQn)       )    &  0x03) * 8 )
 490:/home/wrcooke/git/projects/arm_gcc/include/core_cm0.h **** #define _SHP_IDX(IRQn)           ( ((((uint32_t)(IRQn) & 0x0F)-8) >>    2)     )
 491:/home/wrcooke/git/projects/arm_gcc/include/core_cm0.h **** #define _IP_IDX(IRQn)            (   ((uint32_t)(IRQn)            >>    2)     )
 492:/home/wrcooke/git/projects/arm_gcc/include/core_cm0.h **** 
 493:/home/wrcooke/git/projects/arm_gcc/include/core_cm0.h **** 
 494:/home/wrcooke/git/projects/arm_gcc/include/core_cm0.h **** /** \brief  Enable External Interrupt
 495:/home/wrcooke/git/projects/arm_gcc/include/core_cm0.h **** 
 496:/home/wrcooke/git/projects/arm_gcc/include/core_cm0.h ****     The function enables a device-specific interrupt in the NVIC interrupt controller.
 497:/home/wrcooke/git/projects/arm_gcc/include/core_cm0.h **** 
 498:/home/wrcooke/git/projects/arm_gcc/include/core_cm0.h ****     \param [in]      IRQn  External interrupt number. Value cannot be negative.
 499:/home/wrcooke/git/projects/arm_gcc/include/core_cm0.h ****  */
 500:/home/wrcooke/git/projects/arm_gcc/include/core_cm0.h **** __STATIC_INLINE void NVIC_EnableIRQ(IRQn_Type IRQn)
 501:/home/wrcooke/git/projects/arm_gcc/include/core_cm0.h **** {
  55              		.loc 1 501 0
  56              		.cfi_startproc
  57 0000 80B5     		push	{r7, lr}	@
  58              	.LCFI0:
  59              		.cfi_def_cfa_offset 8
  60              		.cfi_offset 7, -8
  61              		.cfi_offset 14, -4
  62 0002 82B0     		sub	sp, sp, #8	@,,
  63              	.LCFI1:
  64              		.cfi_def_cfa_offset 16
  65 0004 00AF     		add	r7, sp, #0	@,,
  66              	.LCFI2:
  67              		.cfi_def_cfa_register 7
  68 0006 021C     		mov	r2, r0	@ tmp140, IRQn
  69 0008 FB1D     		add	r3, r7, #7	@ tmp141,,
ARM GAS  /tmp/cclNLZpg.s 			page 11


  70 000a 1A70     		strb	r2, [r3]	@ tmp142, IRQn
 502:/home/wrcooke/git/projects/arm_gcc/include/core_cm0.h ****   NVIC->ISER[0] = (1 << ((uint32_t)(IRQn) & 0x1F));
  71              		.loc 1 502 0
  72 000c 064B     		ldr	r3, .L2	@ D.4858,
  73 000e FA1D     		add	r2, r7, #7	@ tmp143,,
  74 0010 1278     		ldrb	r2, [r2]	@ IRQn.9, IRQn
  75 0012 111C     		mov	r1, r2	@ D.4860, IRQn.9
  76 0014 1F22     		mov	r2, #31	@ tmp144,
  77 0016 0A40     		and	r2, r1	@ D.4861, D.4860
  78 0018 0121     		mov	r1, #1	@ tmp145,
  79 001a 081C     		mov	r0, r1	@, tmp145
  80 001c 9040     		lsl	r0, r0, r2	@,, D.4861
  81 001e 021C     		mov	r2, r0	@ D.4862,
  82 0020 1A60     		str	r2, [r3]	@ D.4863, D.4858_1->ISER
 503:/home/wrcooke/git/projects/arm_gcc/include/core_cm0.h **** }
  83              		.loc 1 503 0
  84 0022 BD46     		mov	sp, r7	@,
  85 0024 02B0     		add	sp, sp, #8	@,,
  86              		@ sp needed for prologue	@
  87 0026 80BD     		pop	{r7, pc}
  88              	.L3:
  89              		.align	2
  90              	.L2:
  91 0028 00E100E0 		.word	-536813312
  92              		.cfi_endproc
  93              	.LFE24:
  94              		.size	NVIC_EnableIRQ, .-NVIC_EnableIRQ
  95              		.section	.text.NVIC_DisableIRQ,"ax",%progbits
  96              		.align	2
  97              		.code	16
  98              		.thumb_func
  99              		.type	NVIC_DisableIRQ, %function
 100              	NVIC_DisableIRQ:
 101              	.LFB25:
 504:/home/wrcooke/git/projects/arm_gcc/include/core_cm0.h **** 
 505:/home/wrcooke/git/projects/arm_gcc/include/core_cm0.h **** 
 506:/home/wrcooke/git/projects/arm_gcc/include/core_cm0.h **** /** \brief  Disable External Interrupt
 507:/home/wrcooke/git/projects/arm_gcc/include/core_cm0.h **** 
 508:/home/wrcooke/git/projects/arm_gcc/include/core_cm0.h ****     The function disables a device-specific interrupt in the NVIC interrupt controller.
 509:/home/wrcooke/git/projects/arm_gcc/include/core_cm0.h **** 
 510:/home/wrcooke/git/projects/arm_gcc/include/core_cm0.h ****     \param [in]      IRQn  External interrupt number. Value cannot be negative.
 511:/home/wrcooke/git/projects/arm_gcc/include/core_cm0.h ****  */
 512:/home/wrcooke/git/projects/arm_gcc/include/core_cm0.h **** __STATIC_INLINE void NVIC_DisableIRQ(IRQn_Type IRQn)
 513:/home/wrcooke/git/projects/arm_gcc/include/core_cm0.h **** {
 102              		.loc 1 513 0
 103              		.cfi_startproc
 104 0000 80B5     		push	{r7, lr}	@
 105              	.LCFI3:
 106              		.cfi_def_cfa_offset 8
 107              		.cfi_offset 7, -8
 108              		.cfi_offset 14, -4
 109 0002 82B0     		sub	sp, sp, #8	@,,
 110              	.LCFI4:
 111              		.cfi_def_cfa_offset 16
 112 0004 00AF     		add	r7, sp, #0	@,,
 113              	.LCFI5:
 114              		.cfi_def_cfa_register 7
ARM GAS  /tmp/cclNLZpg.s 			page 12


 115 0006 021C     		mov	r2, r0	@ tmp140, IRQn
 116 0008 FB1D     		add	r3, r7, #7	@ tmp141,,
 117 000a 1A70     		strb	r2, [r3]	@ tmp142, IRQn
 514:/home/wrcooke/git/projects/arm_gcc/include/core_cm0.h ****   NVIC->ICER[0] = (1 << ((uint32_t)(IRQn) & 0x1F));
 118              		.loc 1 514 0
 119 000c 074A     		ldr	r2, .L5	@ D.4852,
 120 000e FB1D     		add	r3, r7, #7	@ tmp143,,
 121 0010 1B78     		ldrb	r3, [r3]	@ IRQn.8, IRQn
 122 0012 191C     		mov	r1, r3	@ D.4854, IRQn.8
 123 0014 1F23     		mov	r3, #31	@ tmp144,
 124 0016 0B40     		and	r3, r1	@ D.4855, D.4854
 125 0018 0121     		mov	r1, #1	@ tmp145,
 126 001a 081C     		mov	r0, r1	@, tmp145
 127 001c 9840     		lsl	r0, r0, r3	@,, D.4855
 128 001e 031C     		mov	r3, r0	@ D.4856,
 129 0020 191C     		mov	r1, r3	@ D.4857, D.4856
 130 0022 8023     		mov	r3, #128	@ tmp146,
 131 0024 D150     		str	r1, [r2, r3]	@ D.4857, D.4852_1->ICER
 515:/home/wrcooke/git/projects/arm_gcc/include/core_cm0.h **** }
 132              		.loc 1 515 0
 133 0026 BD46     		mov	sp, r7	@,
 134 0028 02B0     		add	sp, sp, #8	@,,
 135              		@ sp needed for prologue	@
 136 002a 80BD     		pop	{r7, pc}
 137              	.L6:
 138              		.align	2
 139              	.L5:
 140 002c 00E100E0 		.word	-536813312
 141              		.cfi_endproc
 142              	.LFE25:
 143              		.size	NVIC_DisableIRQ, .-NVIC_DisableIRQ
 144              		.section	.bss.Rx_buf_size,"aw",%nobits
 145              		.type	Rx_buf_size, %object
 146              		.size	Rx_buf_size, 1
 147              	Rx_buf_size:
 148 0000 00       		.space	1
 149              		.section	.bss.Rx_buf,"aw",%nobits
 150              		.align	2
 151              		.type	Rx_buf, %object
 152              		.size	Rx_buf, 4
 153              	Rx_buf:
 154 0000 00000000 		.space	4
 155              		.section	.bss.Rx_head,"aw",%nobits
 156              		.type	Rx_head, %object
 157              		.size	Rx_head, 1
 158              	Rx_head:
 159 0000 00       		.space	1
 160              		.section	.bss.tx_head,"aw",%nobits
 161              		.type	tx_head, %object
 162              		.size	tx_head, 1
 163              	tx_head:
 164 0000 00       		.space	1
 165              		.section	.bss.Rx_tail,"aw",%nobits
 166              		.type	Rx_tail, %object
 167              		.size	Rx_tail, 1
 168              	Rx_tail:
 169 0000 00       		.space	1
ARM GAS  /tmp/cclNLZpg.s 			page 13


 170              		.section	.bss.tx_tail,"aw",%nobits
 171              		.type	tx_tail, %object
 172              		.size	tx_tail, 1
 173              	tx_tail:
 174 0000 00       		.space	1
 175              		.global	__aeabi_uidiv
 176              		.section	.text.serial_init,"ax",%progbits
 177              		.align	2
 178              		.global	serial_init
 179              		.code	16
 180              		.thumb_func
 181              		.type	serial_init, %function
 182              	serial_init:
 183              	.LFB33:
 184              		.file 2 "uart.c"
   1:uart.c        **** //////////////////////////////////////////////////////////////////////////////
   2:uart.c        **** ///
   3:uart.c        **** ///  @file uart.c
   4:uart.c        **** ///
   5:uart.c        **** ///  @brief  uart interface routines for LPC1114
   6:uart.c        **** ///
   7:uart.c        **** //////////////////////////////////////////////////////////////////////////////
   8:uart.c        **** 
   9:uart.c        **** #include <stdint.h>
  10:uart.c        **** #include "LPC11xx.h"
  11:uart.c        **** #include "uart.h"
  12:uart.c        **** 
  13:uart.c        **** static uint8_t Rx_buf_size = 0;
  14:uart.c        **** static uint8_t *Rx_buf = (uint8_t *) 0;
  15:uart.c        **** //static volatile uint8_t rx_buf[RX_BUF_SIZE];
  16:uart.c        **** //static volatile uint8_t tx_buf[TX_BUF_SIZE];
  17:uart.c        **** static volatile uint8_t Rx_head = 0;
  18:uart.c        **** static volatile uint8_t tx_head = 0;
  19:uart.c        **** static volatile uint8_t Rx_tail = 0;
  20:uart.c        **** static volatile uint8_t tx_tail = 0; 
  21:uart.c        **** 
  22:uart.c        **** 
  23:uart.c        **** 
  24:uart.c        **** //////////////////////////////////////////////////////////////////////////////
  25:uart.c        **** ///
  26:uart.c        **** ///  \b serial_init
  27:uart.c        **** ///
  28:uart.c        **** ///  @brief Initializes serial comm (UART)
  29:uart.c        **** /// 
  30:uart.c        **** ///  @param[in] bps  bits per second comm speed
  31:uart.c        **** ///  @param[in] parity  0,1,2: none, odd, even
  32:uart.c        **** ///  @param[in] bits    how many data bits
  33:uart.c        **** ///  @param[in] stop    how many stop bits 1,2
  34:uart.c        **** ///
  35:uart.c        **** ///  @return none
  36:uart.c        **** ///
  37:uart.c        **** //////////////////////////////////////////////////////////////////////////////
  38:uart.c        **** void serial_init(uint32_t bps, uint32_t parity, uint32_t bits, uint32_t stop)
  39:uart.c        **** {
 185              		.loc 2 39 0
 186              		.cfi_startproc
 187 0000 80B5     		push	{r7, lr}	@
ARM GAS  /tmp/cclNLZpg.s 			page 14


 188              	.LCFI6:
 189              		.cfi_def_cfa_offset 8
 190              		.cfi_offset 7, -8
 191              		.cfi_offset 14, -4
 192 0002 88B0     		sub	sp, sp, #32	@,,
 193              	.LCFI7:
 194              		.cfi_def_cfa_offset 40
 195 0004 00AF     		add	r7, sp, #0	@,,
 196              	.LCFI8:
 197              		.cfi_def_cfa_register 7
 198 0006 F860     		str	r0, [r7, #12]	@ bps, bps
 199 0008 B960     		str	r1, [r7, #8]	@ parity, parity
 200 000a 7A60     		str	r2, [r7, #4]	@ bits, bits
 201 000c 3B60     		str	r3, [r7]	@ stop, stop
  40:uart.c        ****    uint32_t lcr = 0;   // value for line control
 202              		.loc 2 40 0
 203 000e 0023     		mov	r3, #0	@ tmp155,
 204 0010 FB61     		str	r3, [r7, #28]	@ tmp155, lcr
  41:uart.c        ****    uint32_t low = 0;   // divisor low
 205              		.loc 2 41 0
 206 0012 0023     		mov	r3, #0	@ tmp156,
 207 0014 BB61     		str	r3, [r7, #24]	@ tmp156, low
  42:uart.c        ****    uint32_t hi  = 0;   // divisor high
 208              		.loc 2 42 0
 209 0016 0023     		mov	r3, #0	@ tmp157,
 210 0018 7B61     		str	r3, [r7, #20]	@ tmp157, hi
  43:uart.c        **** 
  44:uart.c        ****    //  As per user manual, configuration of pins must be done BEFORE
  45:uart.c        ****    //  turning on clock
  46:uart.c        ****  
  47:uart.c        ****    // configure pins
  48:uart.c        ****    // PIO1_6   RXD
  49:uart.c        ****    // PIO1_7   TXD
  50:uart.c        ****    //          /CTS
  51:uart.c        ****    //          etc
  52:uart.c        ****    IOCON->IOCON_PIO1_6 = (2<<3) | (1<<0);  // RXD and pullup
 211              		.loc 2 52 0
 212 001a 4A4A     		ldr	r2, .L30	@ D.4929,
 213 001c A423     		mov	r3, #164	@ tmp158,
 214 001e 1121     		mov	r1, #17	@ tmp159,
 215 0020 D150     		str	r1, [r2, r3]	@ tmp159, D.4929_7->IOCON_PIO1_6
  53:uart.c        ****    IOCON->IOCON_PIO1_7 = (1<<0);           // TXD
 216              		.loc 2 53 0
 217 0022 484A     		ldr	r2, .L30	@ D.4930,
 218 0024 A823     		mov	r3, #168	@ tmp160,
 219 0026 0121     		mov	r1, #1	@ tmp161,
 220 0028 D150     		str	r1, [r2, r3]	@ tmp161, D.4930_8->IOCON_PIO1_7
  54:uart.c        ****    // any others, not used here
  55:uart.c        ****    SYSCON->SYSAHBCLKCTRL |= (1<<12);
 221              		.loc 2 55 0
 222 002a 474A     		ldr	r2, .L30+4	@ D.4931,
 223 002c 4649     		ldr	r1, .L30+4	@ D.4932,
 224 002e 8023     		mov	r3, #128	@ tmp162,
 225 0030 CB58     		ldr	r3, [r1, r3]	@ D.4933, D.4932_10->SYSAHBCLKCTRL
 226 0032 8021     		mov	r1, #128	@ tmp225,
 227 0034 4901     		lsl	r1, r1, #5	@ tmp163, tmp225,
 228 0036 1943     		orr	r1, r3	@ D.4934, D.4933
ARM GAS  /tmp/cclNLZpg.s 			page 15


 229 0038 8023     		mov	r3, #128	@ tmp164,
 230 003a D150     		str	r1, [r2, r3]	@ D.4934, D.4931_9->SYSAHBCLKCTRL
  56:uart.c        ****    SYSCON->UARTCLKDIV = 1;  // Enable clock / 1
 231              		.loc 2 56 0
 232 003c 424A     		ldr	r2, .L30+4	@ D.4935,
 233 003e 9823     		mov	r3, #152	@ tmp165,
 234 0040 0121     		mov	r1, #1	@ tmp166,
 235 0042 D150     		str	r1, [r2, r3]	@ tmp166, D.4935_13->UARTCLKDIV
  57:uart.c        **** 
  58:uart.c        ****    switch(bits)
 236              		.loc 2 58 0
 237 0044 7B68     		ldr	r3, [r7, #4]	@ tmp167, bits
 238 0046 062B     		cmp	r3, #6	@ tmp167,
 239 0048 08D0     		beq	.L10	@,
 240 004a 02D8     		bhi	.L13	@,
 241 004c 052B     		cmp	r3, #5	@ tmp167,
 242 004e 19D0     		beq	.L27	@,
 243 0050 13E0     		b	.L8	@
 244              	.L13:
 245 0052 072B     		cmp	r3, #7	@ tmp167,
 246 0054 07D0     		beq	.L11	@,
 247 0056 082B     		cmp	r3, #8	@ tmp167,
 248 0058 0AD0     		beq	.L12	@,
 249 005a 0EE0     		b	.L8	@
 250              	.L10:
  59:uart.c        ****    {
  60:uart.c        ****    case 5:                      // 5 Data bits
  61:uart.c        ****       lcr |= UART_LCR_5_BITS;
  62:uart.c        ****       break;
  63:uart.c        ****    case 6:
  64:uart.c        ****       lcr |= UART_LCR_6_BITS;
 251              		.loc 2 64 0
 252 005c FB69     		ldr	r3, [r7, #28]	@ tmp169, lcr
 253 005e 0122     		mov	r2, #1	@ tmp170,
 254 0060 1343     		orr	r3, r2	@ tmp168, tmp170
 255 0062 FB61     		str	r3, [r7, #28]	@ tmp168, lcr
  65:uart.c        ****       break;
 256              		.loc 2 65 0
 257 0064 0FE0     		b	.L14	@
 258              	.L11:
  66:uart.c        ****    case 7:
  67:uart.c        ****       lcr |= UART_LCR_7_BITS;
 259              		.loc 2 67 0
 260 0066 FB69     		ldr	r3, [r7, #28]	@ tmp172, lcr
 261 0068 0222     		mov	r2, #2	@ tmp173,
 262 006a 1343     		orr	r3, r2	@ tmp171, tmp173
 263 006c FB61     		str	r3, [r7, #28]	@ tmp171, lcr
  68:uart.c        ****       break;
 264              		.loc 2 68 0
 265 006e 0AE0     		b	.L14	@
 266              	.L12:
  69:uart.c        ****    case 8:
  70:uart.c        ****       lcr |= UART_LCR_8_BITS;
 267              		.loc 2 70 0
 268 0070 FB69     		ldr	r3, [r7, #28]	@ tmp175, lcr
 269 0072 0322     		mov	r2, #3	@ tmp176,
 270 0074 1343     		orr	r3, r2	@ tmp174, tmp176
ARM GAS  /tmp/cclNLZpg.s 			page 16


 271 0076 FB61     		str	r3, [r7, #28]	@ tmp174, lcr
  71:uart.c        ****       break;
 272              		.loc 2 71 0
 273 0078 05E0     		b	.L14	@
 274              	.L8:
  72:uart.c        ****    default:
  73:uart.c        ****       lcr |= UART_LCR_8_BITS;
 275              		.loc 2 73 0
 276 007a FB69     		ldr	r3, [r7, #28]	@ tmp178, lcr
 277 007c 0322     		mov	r2, #3	@ tmp179,
 278 007e 1343     		orr	r3, r2	@ tmp177, tmp179
 279 0080 FB61     		str	r3, [r7, #28]	@ tmp177, lcr
 280 0082 00E0     		b	.L14	@
 281              	.L27:
  62:uart.c        ****       break;
 282              		.loc 2 62 0
 283 0084 C046     		mov	r8, r8
 284              	.L14:
  74:uart.c        ****    }
  75:uart.c        **** 
  76:uart.c        ****    switch (stop)                // 1 or (1.5) 2 stop bits
 285              		.loc 2 76 0
 286 0086 3B68     		ldr	r3, [r7]	@ tmp180, stop
 287 0088 022B     		cmp	r3, #2	@ tmp180,
 288 008a 04D1     		bne	.L26	@,
 289              	.L16:
  77:uart.c        ****    {
  78:uart.c        ****    case 2:
  79:uart.c        ****       lcr |= 1<<1;
 290              		.loc 2 79 0
 291 008c FB69     		ldr	r3, [r7, #28]	@ tmp182, lcr
 292 008e 0222     		mov	r2, #2	@ tmp183,
 293 0090 1343     		orr	r3, r2	@ tmp181, tmp183
 294 0092 FB61     		str	r3, [r7, #28]	@ tmp181, lcr
  80:uart.c        ****       break;
 295              		.loc 2 80 0
 296 0094 00E0     		b	.L17	@
 297              	.L26:
  81:uart.c        ****    default:
  82:uart.c        ****       break;
 298              		.loc 2 82 0
 299 0096 C046     		mov	r8, r8
 300              	.L17:
  83:uart.c        ****    }
  84:uart.c        **** 
  85:uart.c        ****    switch (parity)              // parity
 301              		.loc 2 85 0
 302 0098 BB68     		ldr	r3, [r7, #8]	@ tmp184, parity
 303 009a 042B     		cmp	r3, #4	@ tmp184,
 304 009c 19D8     		bhi	.L28	@,
 305 009e BB68     		ldr	r3, [r7, #8]	@ tmp186, parity
 306 00a0 9A00     		lsl	r2, r3, #2	@ tmp185, tmp186,
 307 00a2 2A4B     		ldr	r3, .L30+8	@ tmp188,
 308 00a4 D318     		add	r3, r2, r3	@ tmp187, tmp185, tmp188
 309 00a6 1B68     		ldr	r3, [r3]	@ tmp189,
 310 00a8 9F46     		mov	pc, r3	@ tmp189
 311              		.section	.rodata.serial_init,"a",%progbits
ARM GAS  /tmp/cclNLZpg.s 			page 17


 312              		.align	2
 313              	.L24:
 314 0000 D6000000 		.word	.L29
 315 0004 AA000000 		.word	.L20
 316 0008 B4000000 		.word	.L21
 317 000c BE000000 		.word	.L22
 318 0010 C8000000 		.word	.L23
 319              		.section	.text.serial_init
 320              	.L20:
  86:uart.c        ****    {
  87:uart.c        ****    case 0:  // none
  88:uart.c        ****       break;
  89:uart.c        ****    case 1: // odd
  90:uart.c        ****       lcr |= UART_LCR_PARITY_ODD;
 321              		.loc 2 90 0
 322 00aa FB69     		ldr	r3, [r7, #28]	@ tmp191, lcr
 323 00ac 0822     		mov	r2, #8	@ tmp192,
 324 00ae 1343     		orr	r3, r2	@ tmp190, tmp192
 325 00b0 FB61     		str	r3, [r7, #28]	@ tmp190, lcr
  91:uart.c        ****       break;
 326              		.loc 2 91 0
 327 00b2 11E0     		b	.L25	@
 328              	.L21:
  92:uart.c        ****    case 2: // even
  93:uart.c        ****       lcr |= UART_LCR_PARITY_EVEN;
 329              		.loc 2 93 0
 330 00b4 FB69     		ldr	r3, [r7, #28]	@ tmp194, lcr
 331 00b6 1822     		mov	r2, #24	@ tmp195,
 332 00b8 1343     		orr	r3, r2	@ tmp193, tmp195
 333 00ba FB61     		str	r3, [r7, #28]	@ tmp193, lcr
  94:uart.c        ****       break;
 334              		.loc 2 94 0
 335 00bc 0CE0     		b	.L25	@
 336              	.L22:
  95:uart.c        ****    case 3:  // force 1
  96:uart.c        ****       lcr |= UART_LCR_PARITY_1;
 337              		.loc 2 96 0
 338 00be FB69     		ldr	r3, [r7, #28]	@ tmp197, lcr
 339 00c0 2822     		mov	r2, #40	@ tmp198,
 340 00c2 1343     		orr	r3, r2	@ tmp196, tmp198
 341 00c4 FB61     		str	r3, [r7, #28]	@ tmp196, lcr
  97:uart.c        ****       break;
 342              		.loc 2 97 0
 343 00c6 07E0     		b	.L25	@
 344              	.L23:
  98:uart.c        ****    case 4:  // force 0
  99:uart.c        ****       lcr |= UART_LCR_PARITY_0;
 345              		.loc 2 99 0
 346 00c8 FB69     		ldr	r3, [r7, #28]	@ tmp200, lcr
 347 00ca 3822     		mov	r2, #56	@ tmp201,
 348 00cc 1343     		orr	r3, r2	@ tmp199, tmp201
 349 00ce FB61     		str	r3, [r7, #28]	@ tmp199, lcr
 100:uart.c        ****       break;
 350              		.loc 2 100 0
 351 00d0 02E0     		b	.L25	@
 352              	.L28:
 101:uart.c        ****    default:
ARM GAS  /tmp/cclNLZpg.s 			page 18


 102:uart.c        ****       break;
 353              		.loc 2 102 0
 354 00d2 C046     		mov	r8, r8
 355 00d4 00E0     		b	.L25	@
 356              	.L29:
  88:uart.c        ****       break;
 357              		.loc 2 88 0
 358 00d6 C046     		mov	r8, r8
 359              	.L25:
 103:uart.c        ****    }
 104:uart.c        **** 
 105:uart.c        ****    // And enable the divisor latch
 106:uart.c        ****    lcr |= 1<<7;
 360              		.loc 2 106 0
 361 00d8 FB69     		ldr	r3, [r7, #28]	@ tmp203, lcr
 362 00da 8022     		mov	r2, #128	@ tmp204,
 363 00dc 1343     		orr	r3, r2	@ tmp202, tmp204
 364 00de FB61     		str	r3, [r7, #28]	@ tmp202, lcr
 107:uart.c        ****    UART0 -> LCR = lcr;
 365              		.loc 2 107 0
 366 00e0 1B4B     		ldr	r3, .L30+12	@ D.4936,
 367 00e2 FA69     		ldr	r2, [r7, #28]	@ tmp205, lcr
 368 00e4 DA60     		str	r2, [r3, #12]	@ tmp205, D.4936_28->LCR
 108:uart.c        **** 
 109:uart.c        ****    // calc divisor
 110:uart.c        ****    // The bps * 8 adds 1/2 for rounding
 111:uart.c        ****    low = (SystemCoreClock + bps * 8) / (bps * 16);
 369              		.loc 2 111 0
 370 00e6 FB68     		ldr	r3, [r7, #12]	@ tmp206, bps
 371 00e8 DA00     		lsl	r2, r3, #3	@ D.4937, tmp206,
 372 00ea 1A4B     		ldr	r3, .L30+16	@ tmp207,
 373 00ec 1B68     		ldr	r3, [r3]	@ SystemCoreClock.16, SystemCoreClock
 374 00ee D218     		add	r2, r2, r3	@ D.4939, D.4937, SystemCoreClock.16
 375 00f0 FB68     		ldr	r3, [r7, #12]	@ tmp208, bps
 376 00f2 1B01     		lsl	r3, r3, #4	@ D.4940, tmp208,
 377 00f4 101C     		mov	r0, r2	@, D.4939
 378 00f6 191C     		mov	r1, r3	@, D.4940
 379 00f8 FFF7FEFF 		bl	__aeabi_uidiv	@
 380 00fc 031C     		mov	r3, r0	@ tmp211,
 381 00fe BB61     		str	r3, [r7, #24]	@ tmp211, low
 112:uart.c        ****    low = (48000000 +bps * 8) / (bps * 16);
 382              		.loc 2 112 0
 383 0100 FB68     		ldr	r3, [r7, #12]	@ tmp212, bps
 384 0102 154A     		ldr	r2, .L30+20	@,
 385 0104 9B18     		add	r3, r3, r2	@ D.4941, tmp212,
 386 0106 DA00     		lsl	r2, r3, #3	@ D.4942, D.4941,
 387 0108 FB68     		ldr	r3, [r7, #12]	@ tmp213, bps
 388 010a 1B01     		lsl	r3, r3, #4	@ D.4943, tmp213,
 389 010c 101C     		mov	r0, r2	@, D.4942
 390 010e 191C     		mov	r1, r3	@, D.4943
 391 0110 FFF7FEFF 		bl	__aeabi_uidiv	@
 392 0114 031C     		mov	r3, r0	@ tmp216,
 393 0116 BB61     		str	r3, [r7, #24]	@ tmp216, low
 113:uart.c        ****    hi = low>>8;
 394              		.loc 2 113 0
 395 0118 BB69     		ldr	r3, [r7, #24]	@ tmp218, low
 396 011a 1B0A     		lsr	r3, r3, #8	@ tmp217, tmp218,
ARM GAS  /tmp/cclNLZpg.s 			page 19


 397 011c 7B61     		str	r3, [r7, #20]	@ tmp217, hi
 114:uart.c        ****    low &= 0xff;
 398              		.loc 2 114 0
 399 011e BA69     		ldr	r2, [r7, #24]	@ tmp220, low
 400 0120 FF23     		mov	r3, #255	@ tmp221,
 401 0122 1340     		and	r3, r2	@ tmp219, tmp220
 402 0124 BB61     		str	r3, [r7, #24]	@ tmp219, low
 115:uart.c        ****    UART0 -> DATA = low;
 403              		.loc 2 115 0
 404 0126 0A4B     		ldr	r3, .L30+12	@ D.4944,
 405 0128 BA69     		ldr	r2, [r7, #24]	@ tmp222, low
 406 012a 1A60     		str	r2, [r3]	@ tmp222, D.4944_41->DATA
 116:uart.c        ****    UART0 -> IER = hi;
 407              		.loc 2 116 0
 408 012c 084B     		ldr	r3, .L30+12	@ D.4945,
 409 012e 7A69     		ldr	r2, [r7, #20]	@ tmp223, hi
 410 0130 5A60     		str	r2, [r3, #4]	@ tmp223, D.4945_42->IER
 117:uart.c        ****    UART0 -> LCR &= ~UART_LCR_DLAB;     // clear DLAB bit
 411              		.loc 2 117 0
 412 0132 074B     		ldr	r3, .L30+12	@ D.4946,
 413 0134 064A     		ldr	r2, .L30+12	@ D.4947,
 414 0136 D268     		ldr	r2, [r2, #12]	@ D.4948, D.4947_44->LCR
 415 0138 8021     		mov	r1, #128	@ tmp224,
 416 013a 8A43     		bic	r2, r1	@ D.4949, tmp224
 417 013c DA60     		str	r2, [r3, #12]	@ D.4949, D.4946_43->LCR
 118:uart.c        **** 
 119:uart.c        ****    }
 418              		.loc 2 119 0
 419 013e BD46     		mov	sp, r7	@,
 420 0140 08B0     		add	sp, sp, #32	@,,
 421              		@ sp needed for prologue	@
 422 0142 80BD     		pop	{r7, pc}
 423              	.L31:
 424              		.align	2
 425              	.L30:
 426 0144 00400440 		.word	1074020352
 427 0148 00800440 		.word	1074036736
 428 014c 00000000 		.word	.L24
 429 0150 00800040 		.word	1073774592
 430 0154 00000000 		.word	SystemCoreClock
 431 0158 808D5B00 		.word	6000000
 432              		.cfi_endproc
 433              	.LFE33:
 434              		.size	serial_init, .-serial_init
 435              		.section	.text.serial_send,"ax",%progbits
 436              		.align	2
 437              		.global	serial_send
 438              		.code	16
 439              		.thumb_func
 440              		.type	serial_send, %function
 441              	serial_send:
 442              	.LFB34:
 120:uart.c        **** 
 121:uart.c        **** void serial_send(uint8_t data)
 122:uart.c        **** {
 443              		.loc 2 122 0
 444              		.cfi_startproc
ARM GAS  /tmp/cclNLZpg.s 			page 20


 445 0000 80B5     		push	{r7, lr}	@
 446              	.LCFI9:
 447              		.cfi_def_cfa_offset 8
 448              		.cfi_offset 7, -8
 449              		.cfi_offset 14, -4
 450 0002 82B0     		sub	sp, sp, #8	@,,
 451              	.LCFI10:
 452              		.cfi_def_cfa_offset 16
 453 0004 00AF     		add	r7, sp, #0	@,,
 454              	.LCFI11:
 455              		.cfi_def_cfa_register 7
 456 0006 021C     		mov	r2, r0	@ tmp139, data
 457 0008 FB1D     		add	r3, r7, #7	@ tmp140,,
 458 000a 1A70     		strb	r2, [r3]	@ tmp141, data
 123:uart.c        ****    while ((UART0->LSR & UART_LSR_THRE) == 0);  // wait for room
 459              		.loc 2 123 0
 460 000c C046     		mov	r8, r8
 461              	.L33:
 462              		.loc 2 123 0 is_stmt 0 discriminator 1
 463 000e 064B     		ldr	r3, .L34	@ D.4924,
 464 0010 5A69     		ldr	r2, [r3, #20]	@ D.4925, D.4924_1->LSR
 465 0012 2023     		mov	r3, #32	@ tmp142,
 466 0014 1340     		and	r3, r2	@ D.4926, D.4925
 467 0016 FAD0     		beq	.L33	@,
 124:uart.c        ****    UART0 -> DATA = data;
 468              		.loc 2 124 0 is_stmt 1
 469 0018 034B     		ldr	r3, .L34	@ D.4927,
 470 001a FA1D     		add	r2, r7, #7	@ tmp143,,
 471 001c 1278     		ldrb	r2, [r2]	@ D.4928, data
 472 001e 1A60     		str	r2, [r3]	@ D.4928, D.4927_4->DATA
 125:uart.c        **** }
 473              		.loc 2 125 0
 474 0020 BD46     		mov	sp, r7	@,
 475 0022 02B0     		add	sp, sp, #8	@,,
 476              		@ sp needed for prologue	@
 477 0024 80BD     		pop	{r7, pc}
 478              	.L35:
 479 0026 C046     		.align	2
 480              	.L34:
 481 0028 00800040 		.word	1073774592
 482              		.cfi_endproc
 483              	.LFE34:
 484              		.size	serial_send, .-serial_send
 485              		.section	.text.serial_receive,"ax",%progbits
 486              		.align	2
 487              		.global	serial_receive
 488              		.code	16
 489              		.thumb_func
 490              		.type	serial_receive, %function
 491              	serial_receive:
 492              	.LFB35:
 126:uart.c        **** 
 127:uart.c        **** int16_t serial_receive(void)
 128:uart.c        **** {
 493              		.loc 2 128 0
 494              		.cfi_startproc
 495 0000 80B5     		push	{r7, lr}	@
ARM GAS  /tmp/cclNLZpg.s 			page 21


 496              	.LCFI12:
 497              		.cfi_def_cfa_offset 8
 498              		.cfi_offset 7, -8
 499              		.cfi_offset 14, -4
 500 0002 82B0     		sub	sp, sp, #8	@,,
 501              	.LCFI13:
 502              		.cfi_def_cfa_offset 16
 503 0004 00AF     		add	r7, sp, #0	@,,
 504              	.LCFI14:
 505              		.cfi_def_cfa_register 7
 129:uart.c        ****    int16_t rtn = -1;
 506              		.loc 2 129 0
 507 0006 BB1D     		add	r3, r7, #6	@ tmp140,,
 508 0008 0122     		mov	r2, #1	@ tmp151,
 509 000a 5242     		neg	r2, r2	@ tmp141, tmp151
 510 000c 1A80     		strh	r2, [r3]	@ tmp142, rtn
 130:uart.c        ****    uint32_t lsr = UART0->LSR;
 511              		.loc 2 130 0
 512 000e 094B     		ldr	r3, .L39	@ D.4916,
 513 0010 5B69     		ldr	r3, [r3, #20]	@ tmp143, D.4916_3->LSR
 514 0012 3B60     		str	r3, [r7]	@ tmp143, lsr
 131:uart.c        ****    // check for character (and errrors)
 132:uart.c        ****    if ( (lsr&1) != 0)
 515              		.loc 2 132 0
 516 0014 3A68     		ldr	r2, [r7]	@ tmp144, lsr
 517 0016 0123     		mov	r3, #1	@ tmp145,
 518 0018 1340     		and	r3, r2	@ D.4917, tmp144
 519 001a 03D0     		beq	.L37	@,
 133:uart.c        ****    {
 134:uart.c        ****       rtn = UART0->DATA;
 520              		.loc 2 134 0
 521 001c 054B     		ldr	r3, .L39	@ D.4920,
 522 001e 1A68     		ldr	r2, [r3]	@ D.4921, D.4920_6->DATA
 523 0020 BB1D     		add	r3, r7, #6	@ tmp146,,
 524 0022 1A80     		strh	r2, [r3]	@ tmp147, rtn
 525              	.L37:
 135:uart.c        ****    }
 136:uart.c        **** 
 137:uart.c        ****    return rtn;
 526              		.loc 2 137 0
 527 0024 BB1D     		add	r3, r7, #6	@ tmp148,,
 528 0026 1B88     		ldrh	r3, [r3]	@ D.4922, rtn
 529 0028 1BB2     		sxth	r3, r3	@ tmp150, D.4922
 138:uart.c        **** }
 530              		.loc 2 138 0
 531 002a 181C     		mov	r0, r3	@, <retval>
 532 002c BD46     		mov	sp, r7	@,
 533 002e 02B0     		add	sp, sp, #8	@,,
 534              		@ sp needed for prologue	@
 535 0030 80BD     		pop	{r7, pc}
 536              	.L40:
 537 0032 C046     		.align	2
 538              	.L39:
 539 0034 00800040 		.word	1073774592
 540              		.cfi_endproc
 541              	.LFE35:
 542              		.size	serial_receive, .-serial_receive
ARM GAS  /tmp/cclNLZpg.s 			page 22


 543              		.section	.text.UART_IRQHandler,"ax",%progbits
 544              		.align	2
 545              		.global	UART_IRQHandler
 546              		.code	16
 547              		.thumb_func
 548              		.type	UART_IRQHandler, %function
 549              	UART_IRQHandler:
 550              	.LFB36:
 139:uart.c        **** 
 140:uart.c        **** //////////////////////////////////////////////////////////////////////////////
 141:uart.c        **** ///
 142:uart.c        **** ///  \b UART_IRQHandler
 143:uart.c        **** ///
 144:uart.c        **** //////////////////////////////////////////////////////////////////////////////
 145:uart.c        **** void UART_IRQHandler(void)
 146:uart.c        **** {
 551              		.loc 2 146 0
 552              		.cfi_startproc
 553 0000 80B5     		push	{r7, lr}	@
 554              	.LCFI15:
 555              		.cfi_def_cfa_offset 8
 556              		.cfi_offset 7, -8
 557              		.cfi_offset 14, -4
 558 0002 84B0     		sub	sp, sp, #16	@,,
 559              	.LCFI16:
 560              		.cfi_def_cfa_offset 24
 561 0004 00AF     		add	r7, sp, #0	@,,
 562              	.LCFI17:
 563              		.cfi_def_cfa_register 7
 147:uart.c        **** // identify interrupt
 148:uart.c        ****    uint16_t irq_status = UART0->IIR_FCR;
 564              		.loc 2 148 0
 565 0006 214B     		ldr	r3, .L47	@ D.4874,
 566 0008 9A68     		ldr	r2, [r3, #8]	@ D.4875, D.4874_3->IIR_FCR
 567 000a BB1D     		add	r3, r7, #6	@ tmp161,,
 568 000c 1A80     		strh	r2, [r3]	@ tmp162, irq_status
 149:uart.c        ****    uint16_t next_index;
 150:uart.c        ****    uint32_t lsr;        // line status register
 151:uart.c        **** 
 152:uart.c        ****    if ( (irq_status & (UART_IRQ_RDA | UART_IRQ_CTI)) != 0)
 569              		.loc 2 152 0
 570 000e BB1D     		add	r3, r7, #6	@ tmp163,,
 571 0010 1A88     		ldrh	r2, [r3]	@ D.4876, irq_status
 572 0012 0C23     		mov	r3, #12	@ tmp164,
 573 0014 1340     		and	r3, r2	@ D.4877, D.4876
 574 0016 35D0     		beq	.L42	@,
 153:uart.c        ****    {
 154:uart.c        ****       lsr = UART0->LSR;
 575              		.loc 2 154 0
 576 0018 1C4B     		ldr	r3, .L47	@ D.4880,
 577 001a 5B69     		ldr	r3, [r3, #20]	@ tmp165, D.4880_8->LSR
 578 001c BB60     		str	r3, [r7, #8]	@ tmp165, lsr
 155:uart.c        ****       while (lsr & UART_LSR_RDR)        // Is there data?
 579              		.loc 2 155 0
 580 001e 2DE0     		b	.L43	@
 581              	.L46:
 156:uart.c        ****       {
ARM GAS  /tmp/cclNLZpg.s 			page 23


 157:uart.c        ****          next_index = Rx_head +1;
 582              		.loc 2 157 0
 583 0020 1B4B     		ldr	r3, .L47+4	@ tmp166,
 584 0022 1B78     		ldrb	r3, [r3]	@ tmp167, Rx_head
 585 0024 DBB2     		uxtb	r3, r3	@ Rx_head.10, tmp167
 586 0026 1A1C     		mov	r2, r3	@ D.4882, Rx_head.10
 587 0028 3B1C     		mov	r3, r7	@ tmp168,
 588 002a 0E33     		add	r3, r3, #14	@ tmp168,
 589 002c 0132     		add	r2, r2, #1	@ tmp169,
 590 002e 1A80     		strh	r2, [r3]	@ tmp170, next_index
 158:uart.c        ****          if (next_index == Rx_buf_size)
 591              		.loc 2 158 0
 592 0030 184B     		ldr	r3, .L47+8	@ tmp171,
 593 0032 1B78     		ldrb	r3, [r3]	@ Rx_buf_size.11, Rx_buf_size
 594 0034 3A1C     		mov	r2, r7	@ tmp172,
 595 0036 0E32     		add	r2, r2, #14	@ tmp172,
 596 0038 1288     		ldrh	r2, [r2]	@ tmp173, next_index
 597 003a 9A42     		cmp	r2, r3	@ tmp173, D.4884
 598 003c 03D1     		bne	.L44	@,
 159:uart.c        ****          {
 160:uart.c        ****             next_index = 0;
 599              		.loc 2 160 0
 600 003e 3B1C     		mov	r3, r7	@ tmp174,
 601 0040 0E33     		add	r3, r3, #14	@ tmp174,
 602 0042 0022     		mov	r2, #0	@ tmp175,
 603 0044 1A80     		strh	r2, [r3]	@ tmp176, next_index
 604              	.L44:
 161:uart.c        ****          }
 162:uart.c        ****          if (next_index != Rx_tail)      // not full
 605              		.loc 2 162 0
 606 0046 144B     		ldr	r3, .L47+12	@ tmp177,
 607 0048 1B78     		ldrb	r3, [r3]	@ tmp178, Rx_tail
 608 004a DBB2     		uxtb	r3, r3	@ Rx_tail.12, tmp178
 609 004c 3A1C     		mov	r2, r7	@ tmp179,
 610 004e 0E32     		add	r2, r2, #14	@ tmp179,
 611 0050 1288     		ldrh	r2, [r2]	@ tmp180, next_index
 612 0052 9A42     		cmp	r2, r3	@ tmp180, D.4888
 613 0054 0FD0     		beq	.L45	@,
 163:uart.c        ****          {
 164:uart.c        ****             Rx_buf[Rx_head] = UART0->DATA;
 614              		.loc 2 164 0
 615 0056 114B     		ldr	r3, .L47+16	@ tmp181,
 616 0058 1A68     		ldr	r2, [r3]	@ Rx_buf.13, Rx_buf
 617 005a 0D4B     		ldr	r3, .L47+4	@ tmp182,
 618 005c 1B78     		ldrb	r3, [r3]	@ tmp183, Rx_head
 619 005e DBB2     		uxtb	r3, r3	@ Rx_head.14, tmp183
 620 0060 D218     		add	r2, r2, r3	@ D.4894, Rx_buf.13, D.4893
 621 0062 0A4B     		ldr	r3, .L47	@ D.4895,
 622 0064 1B68     		ldr	r3, [r3]	@ D.4896, D.4895_23->DATA
 623 0066 DBB2     		uxtb	r3, r3	@ D.4897, D.4896
 624 0068 1370     		strb	r3, [r2]	@ tmp184, *D.4894_22
 165:uart.c        ****             Rx_head = next_index;
 625              		.loc 2 165 0
 626 006a 3B1C     		mov	r3, r7	@ tmp185,
 627 006c 0E33     		add	r3, r3, #14	@ tmp185,
 628 006e 1B88     		ldrh	r3, [r3]	@ tmp187, next_index
 629 0070 DAB2     		uxtb	r2, r3	@ Rx_head.15, tmp186
ARM GAS  /tmp/cclNLZpg.s 			page 24


 630 0072 074B     		ldr	r3, .L47+4	@ tmp188,
 631 0074 1A70     		strb	r2, [r3]	@ tmp189, Rx_head
 632              	.L45:
 166:uart.c        ****          }
 167:uart.c        ****          else
 168:uart.c        ****          {
 169:uart.c        **** 	     // ERROR buffer overflow
 170:uart.c        ****          }
 171:uart.c        **** 	 lsr = UART0->LSR;
 633              		.loc 2 171 0
 634 0076 054B     		ldr	r3, .L47	@ D.4900,
 635 0078 5B69     		ldr	r3, [r3, #20]	@ tmp190, D.4900_27->LSR
 636 007a BB60     		str	r3, [r7, #8]	@ tmp190, lsr
 637              	.L43:
 155:uart.c        ****       while (lsr & UART_LSR_RDR)        // Is there data?
 638              		.loc 2 155 0 discriminator 1
 639 007c BA68     		ldr	r2, [r7, #8]	@ tmp191, lsr
 640 007e 0123     		mov	r3, #1	@ tmp192,
 641 0080 1340     		and	r3, r2	@ D.4901, tmp191
 642 0082 CDD1     		bne	.L46	@,
 643              	.L42:
 172:uart.c        ****       }
 173:uart.c        ****    }
 174:uart.c        ****    
 175:uart.c        ****    if ((irq_status & UART_IRQ_THRE) != 0)
 176:uart.c        ****    {
 177:uart.c        ****    }
 178:uart.c        **** 
 179:uart.c        ****    if ((irq_status & UART_IRQ_RLS) != 0)
 180:uart.c        ****    {
 181:uart.c        ****    }
 182:uart.c        **** 
 183:uart.c        ****    if ((irq_status & UART_IRQ_RLS) != 0)
 184:uart.c        ****    {
 185:uart.c        ****    }
 186:uart.c        **** 
 187:uart.c        ****    if ((irq_status & UART_IRQ_MODEM) != 0)
 188:uart.c        ****    {
 189:uart.c        ****    }
 190:uart.c        **** }
 644              		.loc 2 190 0
 645 0084 BD46     		mov	sp, r7	@,
 646 0086 04B0     		add	sp, sp, #16	@,,
 647              		@ sp needed for prologue	@
 648 0088 80BD     		pop	{r7, pc}
 649              	.L48:
 650 008a C046     		.align	2
 651              	.L47:
 652 008c 00800040 		.word	1073774592
 653 0090 00000000 		.word	Rx_head
 654 0094 00000000 		.word	Rx_buf_size
 655 0098 00000000 		.word	Rx_tail
 656 009c 00000000 		.word	Rx_buf
 657              		.cfi_endproc
 658              	.LFE36:
 659              		.size	UART_IRQHandler, .-UART_IRQHandler
 660              		.section	.text.serial_init_irq,"ax",%progbits
ARM GAS  /tmp/cclNLZpg.s 			page 25


 661              		.align	2
 662              		.global	serial_init_irq
 663              		.code	16
 664              		.thumb_func
 665              		.type	serial_init_irq, %function
 666              	serial_init_irq:
 667              	.LFB37:
 191:uart.c        **** //////////////////////////////////////////////////////////////////////////////
 192:uart.c        **** ///
 193:uart.c        **** ///  \b serial_init_irq
 194:uart.c        **** ///
 195:uart.c        **** ///  @brief Initializes serial comm (UART) for interrupt
 196:uart.c        **** /// 
 197:uart.c        **** ///  @param[in] bps  bits per second comm speed
 198:uart.c        **** ///  @param[in] parity  0,1,2: none, odd, even
 199:uart.c        **** ///  @param[in] bits    how many data bits
 200:uart.c        **** ///  @param[in] stop    how many stop bits 1,2
 201:uart.c        **** ///
 202:uart.c        **** ///  @return none
 203:uart.c        **** ///
 204:uart.c        **** //////////////////////////////////////////////////////////////////////////////
 205:uart.c        **** void serial_init_irq(uint32_t bps, uint8_t parity, uint8_t bits, uint8_t stop, uint8_t *buff, uint8
 206:uart.c        **** {
 668              		.loc 2 206 0
 669              		.cfi_startproc
 670 0000 80B5     		push	{r7, lr}	@
 671              	.LCFI18:
 672              		.cfi_def_cfa_offset 8
 673              		.cfi_offset 7, -8
 674              		.cfi_offset 14, -4
 675 0002 82B0     		sub	sp, sp, #8	@,,
 676              	.LCFI19:
 677              		.cfi_def_cfa_offset 16
 678 0004 00AF     		add	r7, sp, #0	@,,
 679              	.LCFI20:
 680              		.cfi_def_cfa_register 7
 681 0006 7860     		str	r0, [r7, #4]	@ bps, bps
 682 0008 081C     		mov	r0, r1	@ tmp139, parity
 683 000a 111C     		mov	r1, r2	@ tmp142, bits
 684 000c 1A1C     		mov	r2, r3	@ tmp145, stop
 685 000e FB1C     		add	r3, r7, #3	@ tmp140,,
 686 0010 1870     		strb	r0, [r3]	@ tmp141, parity
 687 0012 BB1C     		add	r3, r7, #2	@ tmp143,,
 688 0014 1970     		strb	r1, [r3]	@ tmp144, bits
 689 0016 7B1C     		add	r3, r7, #1	@ tmp146,,
 690 0018 1A70     		strb	r2, [r3]	@ tmp147, stop
 207:uart.c        **** // call non-interrupt serial_init() for most of the work
 208:uart.c        ****    serial_init(bps, parity, bits, stop);
 691              		.loc 2 208 0
 692 001a FB1C     		add	r3, r7, #3	@ tmp148,,
 693 001c 1978     		ldrb	r1, [r3]	@ D.4869, parity
 694 001e BB1C     		add	r3, r7, #2	@ tmp149,,
 695 0020 1A78     		ldrb	r2, [r3]	@ D.4870, bits
 696 0022 7B1C     		add	r3, r7, #1	@ tmp150,,
 697 0024 1B78     		ldrb	r3, [r3]	@ D.4871, stop
 698 0026 7868     		ldr	r0, [r7, #4]	@ tmp151, bps
 699 0028 FFF7FEFF 		bl	serial_init	@
ARM GAS  /tmp/cclNLZpg.s 			page 26


 209:uart.c        **** 
 210:uart.c        **** // set up the ring buffer
 211:uart.c        ****    Rx_buf = buff;
 700              		.loc 2 211 0
 701 002c 0C4B     		ldr	r3, .L50	@ tmp152,
 702 002e 3A69     		ldr	r2, [r7, #16]	@ tmp153, buff
 703 0030 1A60     		str	r2, [r3]	@ tmp153, Rx_buf
 212:uart.c        ****    Rx_buf_size = size;
 704              		.loc 2 212 0
 705 0032 0C4B     		ldr	r3, .L50+4	@ tmp154,
 706 0034 3A1C     		mov	r2, r7	@ tmp155,
 707 0036 1432     		add	r2, r2, #20	@ tmp155,
 708 0038 1278     		ldrb	r2, [r2]	@ tmp156, size
 709 003a 1A70     		strb	r2, [r3]	@ tmp156, Rx_buf_size
 213:uart.c        ****    Rx_head = 0;
 710              		.loc 2 213 0
 711 003c 0A4B     		ldr	r3, .L50+8	@ tmp157,
 712 003e 0022     		mov	r2, #0	@ tmp158,
 713 0040 1A70     		strb	r2, [r3]	@ tmp159, Rx_head
 214:uart.c        ****    Rx_tail = 0;
 714              		.loc 2 214 0
 715 0042 0A4B     		ldr	r3, .L50+12	@ tmp160,
 716 0044 0022     		mov	r2, #0	@ tmp161,
 717 0046 1A70     		strb	r2, [r3]	@ tmp162, Rx_tail
 215:uart.c        **** 
 216:uart.c        **** // set up the FIFO
 217:uart.c        ****    UART0 -> IIR_FCR = UART_FIFO_EN | UART_FIFO_RX_RESET | UART_FIFO_TX_RESET;
 718              		.loc 2 217 0
 719 0048 094B     		ldr	r3, .L50+16	@ D.4872,
 720 004a 0722     		mov	r2, #7	@ tmp163,
 721 004c 9A60     		str	r2, [r3, #8]	@ tmp163, D.4872_10->IIR_FCR
 218:uart.c        **** 
 219:uart.c        **** // enable interrupts
 220:uart.c        ****    UART0->IER = UART_IRQ_EN_RBRIE | UART_IRQ_EN_THREIE | UART_IRQ_EN_RXLIE; 
 722              		.loc 2 220 0
 723 004e 084B     		ldr	r3, .L50+16	@ D.4873,
 724 0050 0722     		mov	r2, #7	@ tmp164,
 725 0052 5A60     		str	r2, [r3, #4]	@ tmp164, D.4873_11->IER
 221:uart.c        ****    NVIC_EnableIRQ(21);
 726              		.loc 2 221 0
 727 0054 1520     		mov	r0, #21	@,
 728 0056 FFF7FEFF 		bl	NVIC_EnableIRQ	@
 222:uart.c        **** }
 729              		.loc 2 222 0
 730 005a BD46     		mov	sp, r7	@,
 731 005c 02B0     		add	sp, sp, #8	@,,
 732              		@ sp needed for prologue	@
 733 005e 80BD     		pop	{r7, pc}
 734              	.L51:
 735              		.align	2
 736              	.L50:
 737 0060 00000000 		.word	Rx_buf
 738 0064 00000000 		.word	Rx_buf_size
 739 0068 00000000 		.word	Rx_head
 740 006c 00000000 		.word	Rx_tail
 741 0070 00800040 		.word	1073774592
 742              		.cfi_endproc
ARM GAS  /tmp/cclNLZpg.s 			page 27


 743              	.LFE37:
 744              		.size	serial_init_irq, .-serial_init_irq
 745              		.section	.text.serial_send_irq,"ax",%progbits
 746              		.align	2
 747              		.global	serial_send_irq
 748              		.code	16
 749              		.thumb_func
 750              		.type	serial_send_irq, %function
 751              	serial_send_irq:
 752              	.LFB38:
 223:uart.c        **** 
 224:uart.c        **** void serial_send_irq(uint8_t data)
 225:uart.c        **** {
 753              		.loc 2 225 0
 754              		.cfi_startproc
 755 0000 80B5     		push	{r7, lr}	@
 756              	.LCFI21:
 757              		.cfi_def_cfa_offset 8
 758              		.cfi_offset 7, -8
 759              		.cfi_offset 14, -4
 760 0002 82B0     		sub	sp, sp, #8	@,,
 761              	.LCFI22:
 762              		.cfi_def_cfa_offset 16
 763 0004 00AF     		add	r7, sp, #0	@,,
 764              	.LCFI23:
 765              		.cfi_def_cfa_register 7
 766 0006 021C     		mov	r2, r0	@ tmp139, data
 767 0008 FB1D     		add	r3, r7, #7	@ tmp140,,
 768 000a 1A70     		strb	r2, [r3]	@ tmp141, data
 226:uart.c        ****    while ((UART0->LSR & UART_LSR_THRE) == 0);  // wait for room
 769              		.loc 2 226 0
 770 000c C046     		mov	r8, r8
 771              	.L53:
 772              		.loc 2 226 0 is_stmt 0 discriminator 1
 773 000e 064B     		ldr	r3, .L54	@ D.4864,
 774 0010 5A69     		ldr	r2, [r3, #20]	@ D.4865, D.4864_1->LSR
 775 0012 2023     		mov	r3, #32	@ tmp142,
 776 0014 1340     		and	r3, r2	@ D.4866, D.4865
 777 0016 FAD0     		beq	.L53	@,
 227:uart.c        ****    UART0 -> DATA = data;
 778              		.loc 2 227 0 is_stmt 1
 779 0018 034B     		ldr	r3, .L54	@ D.4867,
 780 001a FA1D     		add	r2, r7, #7	@ tmp143,,
 781 001c 1278     		ldrb	r2, [r2]	@ D.4868, data
 782 001e 1A60     		str	r2, [r3]	@ D.4868, D.4867_4->DATA
 228:uart.c        **** }
 783              		.loc 2 228 0
 784 0020 BD46     		mov	sp, r7	@,
 785 0022 02B0     		add	sp, sp, #8	@,,
 786              		@ sp needed for prologue	@
 787 0024 80BD     		pop	{r7, pc}
 788              	.L55:
 789 0026 C046     		.align	2
 790              	.L54:
 791 0028 00800040 		.word	1073774592
 792              		.cfi_endproc
 793              	.LFE38:
ARM GAS  /tmp/cclNLZpg.s 			page 28


 794              		.size	serial_send_irq, .-serial_send_irq
 795              		.section	.text.serial_receive_irq,"ax",%progbits
 796              		.align	2
 797              		.global	serial_receive_irq
 798              		.code	16
 799              		.thumb_func
 800              		.type	serial_receive_irq, %function
 801              	serial_receive_irq:
 802              	.LFB39:
 229:uart.c        **** 
 230:uart.c        **** int16_t serial_receive_irq(void)
 231:uart.c        **** {
 803              		.loc 2 231 0
 804              		.cfi_startproc
 805 0000 80B5     		push	{r7, lr}	@
 806              	.LCFI24:
 807              		.cfi_def_cfa_offset 8
 808              		.cfi_offset 7, -8
 809              		.cfi_offset 14, -4
 810 0002 82B0     		sub	sp, sp, #8	@,,
 811              	.LCFI25:
 812              		.cfi_def_cfa_offset 16
 813 0004 00AF     		add	r7, sp, #0	@,,
 814              	.LCFI26:
 815              		.cfi_def_cfa_register 7
 232:uart.c        ****    int16_t rtn = 0;
 816              		.loc 2 232 0
 817 0006 BB1D     		add	r3, r7, #6	@ tmp150,,
 818 0008 0022     		mov	r2, #0	@ tmp151,
 819 000a 1A80     		strh	r2, [r3]	@ tmp152, rtn
 233:uart.c        ****    uint32_t int_enables;
 234:uart.c        ****    // disable interrupts
 235:uart.c        ****    int_enables = UART0->IER;
 820              		.loc 2 235 0
 821 000c 1B4B     		ldr	r3, .L59	@ D.4832,
 822 000e 5B68     		ldr	r3, [r3, #4]	@ tmp153, D.4832_3->IER
 823 0010 3B60     		str	r3, [r7]	@ tmp153, int_enables
 236:uart.c        ****    UART0->IER = 0;  
 824              		.loc 2 236 0
 825 0012 1A4B     		ldr	r3, .L59	@ D.4833,
 826 0014 0022     		mov	r2, #0	@ tmp154,
 827 0016 5A60     		str	r2, [r3, #4]	@ tmp154, D.4833_5->IER
 237:uart.c        ****    NVIC_DisableIRQ(21);
 828              		.loc 2 237 0
 829 0018 1520     		mov	r0, #21	@,
 830 001a FFF7FEFF 		bl	NVIC_DisableIRQ	@
 238:uart.c        **** 
 239:uart.c        ****    // get character from buffer
 240:uart.c        ****    if (Rx_head != Rx_tail)
 831              		.loc 2 240 0
 832 001e 184B     		ldr	r3, .L59+4	@ tmp155,
 833 0020 1B78     		ldrb	r3, [r3]	@ tmp156, Rx_head
 834 0022 DAB2     		uxtb	r2, r3	@ Rx_head.0, tmp156
 835 0024 174B     		ldr	r3, .L59+8	@ tmp157,
 836 0026 1B78     		ldrb	r3, [r3]	@ tmp158, Rx_tail
 837 0028 DBB2     		uxtb	r3, r3	@ Rx_tail.1, tmp158
 838 002a 9A42     		cmp	r2, r3	@ Rx_head.0, Rx_tail.1
ARM GAS  /tmp/cclNLZpg.s 			page 29


 839 002c 19D0     		beq	.L57	@,
 241:uart.c        ****    {
 242:uart.c        ****       rtn = Rx_buf[Rx_tail];
 840              		.loc 2 242 0
 841 002e 164B     		ldr	r3, .L59+12	@ tmp159,
 842 0030 1A68     		ldr	r2, [r3]	@ Rx_buf.2, Rx_buf
 843 0032 144B     		ldr	r3, .L59+8	@ tmp160,
 844 0034 1B78     		ldrb	r3, [r3]	@ tmp161, Rx_tail
 845 0036 DBB2     		uxtb	r3, r3	@ Rx_tail.3, tmp161
 846 0038 D318     		add	r3, r2, r3	@ D.4841, Rx_buf.2, D.4840
 847 003a 1A78     		ldrb	r2, [r3]	@ D.4842, *D.4841_11
 848 003c BB1D     		add	r3, r7, #6	@ tmp162,,
 849 003e 1A80     		strh	r2, [r3]	@ tmp163, rtn
 243:uart.c        ****       ++Rx_tail;
 850              		.loc 2 243 0
 851 0040 104B     		ldr	r3, .L59+8	@ tmp164,
 852 0042 1B78     		ldrb	r3, [r3]	@ tmp165, Rx_tail
 853 0044 DBB2     		uxtb	r3, r3	@ Rx_tail.4, tmp165
 854 0046 0133     		add	r3, r3, #1	@ tmp166,
 855 0048 DAB2     		uxtb	r2, r3	@ Rx_tail.5, tmp166
 856 004a 0E4B     		ldr	r3, .L59+8	@ tmp167,
 857 004c 1A70     		strb	r2, [r3]	@ tmp168, Rx_tail
 244:uart.c        ****       if (Rx_tail == Rx_buf_size)
 858              		.loc 2 244 0
 859 004e 0D4B     		ldr	r3, .L59+8	@ tmp169,
 860 0050 1B78     		ldrb	r3, [r3]	@ tmp170, Rx_tail
 861 0052 DAB2     		uxtb	r2, r3	@ Rx_tail.6, tmp170
 862 0054 0D4B     		ldr	r3, .L59+16	@ tmp171,
 863 0056 1B78     		ldrb	r3, [r3]	@ Rx_buf_size.7, Rx_buf_size
 864 0058 9A42     		cmp	r2, r3	@ Rx_tail.6, Rx_buf_size.7
 865 005a 02D1     		bne	.L57	@,
 245:uart.c        ****       {
 246:uart.c        **** 	 Rx_tail = 0;
 866              		.loc 2 246 0
 867 005c 094B     		ldr	r3, .L59+8	@ tmp172,
 868 005e 0022     		mov	r2, #0	@ tmp173,
 869 0060 1A70     		strb	r2, [r3]	@ tmp174, Rx_tail
 870              	.L57:
 247:uart.c        ****       }
 248:uart.c        ****    }
 249:uart.c        **** 
 250:uart.c        ****    // restore interrupts
 251:uart.c        ****    UART0->IER = int_enables;
 871              		.loc 2 251 0
 872 0062 064B     		ldr	r3, .L59	@ D.4849,
 873 0064 3A68     		ldr	r2, [r7]	@ tmp175, int_enables
 874 0066 5A60     		str	r2, [r3, #4]	@ tmp175, D.4849_18->IER
 252:uart.c        ****    NVIC_EnableIRQ(NVIC_IRQ_UART_0);
 875              		.loc 2 252 0
 876 0068 1520     		mov	r0, #21	@,
 877 006a FFF7FEFF 		bl	NVIC_EnableIRQ	@
 253:uart.c        **** 
 254:uart.c        ****    return rtn;
 878              		.loc 2 254 0
 879 006e BB1D     		add	r3, r7, #6	@ tmp176,,
 880 0070 1B88     		ldrh	r3, [r3]	@ D.4850, rtn
 881 0072 1BB2     		sxth	r3, r3	@ tmp178, D.4850
ARM GAS  /tmp/cclNLZpg.s 			page 30


 255:uart.c        **** }
 882              		.loc 2 255 0
 883 0074 181C     		mov	r0, r3	@, <retval>
 884 0076 BD46     		mov	sp, r7	@,
 885 0078 02B0     		add	sp, sp, #8	@,,
 886              		@ sp needed for prologue	@
 887 007a 80BD     		pop	{r7, pc}
 888              	.L60:
 889              		.align	2
 890              	.L59:
 891 007c 00800040 		.word	1073774592
 892 0080 00000000 		.word	Rx_head
 893 0084 00000000 		.word	Rx_tail
 894 0088 00000000 		.word	Rx_buf
 895 008c 00000000 		.word	Rx_buf_size
 896              		.cfi_endproc
 897              	.LFE39:
 898              		.size	serial_receive_irq, .-serial_receive_irq
 899              		.text
 900              	.Letext0:
 901              		.file 3 "/opt/gcc-arm-none-eabi-4_7-2013q2/bin/../lib/gcc/arm-none-eabi/4.7.4/../../../../arm-none
 902              		.file 4 "/home/wrcooke/git/projects/arm_gcc/include/LPC11xx.h"
 903              		.file 5 "/home/wrcooke/git/projects/arm_gcc/include/system_LPC11xx.h"